
libLLVMSupport.a(AMDGPUCodeObjectMetadata.o):
                 U __DefaultRuneLocale
0000000000005310 T __Z7isasciii
0000000000003b40 T __Z7isspacei
0000000000005290 T __Z8__istypeim
                 U __ZN4llvm11raw_ostream14flush_nonemptyEv
00000000000010c0 T __ZN4llvm11raw_ostream5flushEv
0000000000000550 T __ZN4llvm11raw_ostreamC2Eb
0000000000001020 T __ZN4llvm18raw_string_ostream3strEv
0000000000000460 T __ZN4llvm18raw_string_ostreamC1ERNSt3__112basic_stringIcNS1_11char_traitsIcEENS1_9allocatorIcEEEE
0000000000000500 T __ZN4llvm18raw_string_ostreamC2ERNSt3__112basic_stringIcNS1_11char_traitsIcEENS1_9allocatorIcEEEE
                 U __ZN4llvm18raw_string_ostreamD1Ev
0000000000003960 T __ZN4llvm4yaml11needsQuotesENS_9StringRefE
                 U __ZN4llvm4yaml12ScalarTraitsINSt3__112basic_stringIcNS2_11char_traitsIcEENS2_9allocatorIcEEEEE5inputENS_9StringRefEPvRS8_
                 U __ZN4llvm4yaml12ScalarTraitsINSt3__112basic_stringIcNS2_11char_traitsIcEENS2_9allocatorIcEEEEE6outputERKS8_PvRNS_11raw_ostreamE
0000000000003920 T __ZN4llvm4yaml12ScalarTraitsINSt3__112basic_stringIcNS2_11char_traitsIcEENS2_9allocatorIcEEEEE9mustQuoteENS_9StringRefE
                 U __ZN4llvm4yaml12ScalarTraitsIbE5inputENS_9StringRefEPvRb
                 U __ZN4llvm4yaml12ScalarTraitsIbE6outputERKbPvRNS_11raw_ostreamE
000000000000dfe0 T __ZN4llvm4yaml12ScalarTraitsIbE9mustQuoteENS_9StringRefE
                 U __ZN4llvm4yaml12ScalarTraitsIhE5inputENS_9StringRefEPvRh
                 U __ZN4llvm4yaml12ScalarTraitsIhE6outputERKhPvRNS_11raw_ostreamE
00000000000111f0 T __ZN4llvm4yaml12ScalarTraitsIhE9mustQuoteENS_9StringRefE
                 U __ZN4llvm4yaml12ScalarTraitsIjE5inputENS_9StringRefEPvRj
                 U __ZN4llvm4yaml12ScalarTraitsIjE6outputERKjPvRNS_11raw_ostreamE
0000000000001050 T __ZN4llvm4yaml12ScalarTraitsIjE9mustQuoteENS_9StringRefE
                 U __ZN4llvm4yaml12ScalarTraitsItE5inputENS_9StringRefEPvRt
                 U __ZN4llvm4yaml12ScalarTraitsItE6outputERKtPvRNS_11raw_ostreamE
0000000000010af0 T __ZN4llvm4yaml12ScalarTraitsItE9mustQuoteENS_9StringRefE
                 U __ZN4llvm4yaml12ScalarTraitsIyE5inputENS_9StringRefEPvRy
                 U __ZN4llvm4yaml12ScalarTraitsIyE6outputERKyPvRNS_11raw_ostreamE
00000000000103f0 T __ZN4llvm4yaml12ScalarTraitsIyE9mustQuoteENS_9StringRefE
00000000000113c0 T __ZN4llvm4yaml13MappingTraitsINS_6AMDGPU10CodeObject6Kernel10DebugProps8MetadataEE7mappingERNS0_2IOERS6_
000000000000c530 T __ZN4llvm4yaml13MappingTraitsINS_6AMDGPU10CodeObject6Kernel3Arg8MetadataEE7mappingERNS0_2IOERS6_
000000000000bd20 T __ZN4llvm4yaml13MappingTraitsINS_6AMDGPU10CodeObject6Kernel5Attrs8MetadataEE7mappingERNS0_2IOERS6_
0000000000009750 T __ZN4llvm4yaml13MappingTraitsINS_6AMDGPU10CodeObject6Kernel8MetadataEE7mappingERNS0_2IOERS5_
000000000000faf0 T __ZN4llvm4yaml13MappingTraitsINS_6AMDGPU10CodeObject6Kernel9CodeProps8MetadataEE7mappingERNS0_2IOERS6_
0000000000000620 T __ZN4llvm4yaml13MappingTraitsINS_6AMDGPU10CodeObject8MetadataEE7mappingERNS0_2IOERS4_
00000000000032e0 T __ZN4llvm4yaml18SequenceTraitsImplINSt3__16vectorINS2_12basic_stringIcNS2_11char_traitsIcEENS2_9allocatorIcEEEENS7_IS9_EEEELb0EE4sizeERNS0_2IOERSB_
0000000000003890 T __ZN4llvm4yaml18SequenceTraitsImplINSt3__16vectorINS2_12basic_stringIcNS2_11char_traitsIcEENS2_9allocatorIcEEEENS7_IS9_EEEELb0EE7elementERNS0_2IOERSB_m
000000000000c3e0 T __ZN4llvm4yaml18SequenceTraitsImplINSt3__16vectorINS_6AMDGPU10CodeObject6Kernel3Arg8MetadataENS2_9allocatorIS8_EEEELb0EE4sizeERNS0_2IOERSB_
000000000000c470 T __ZN4llvm4yaml18SequenceTraitsImplINSt3__16vectorINS_6AMDGPU10CodeObject6Kernel3Arg8MetadataENS2_9allocatorIS8_EEEELb0EE7elementERNS0_2IOERSB_m
0000000000009600 T __ZN4llvm4yaml18SequenceTraitsImplINSt3__16vectorINS_6AMDGPU10CodeObject6Kernel8MetadataENS2_9allocatorIS7_EEEELb0EE4sizeERNS0_2IOERSA_
0000000000009690 T __ZN4llvm4yaml18SequenceTraitsImplINSt3__16vectorINS_6AMDGPU10CodeObject6Kernel8MetadataENS2_9allocatorIS7_EEEELb0EE7elementERNS0_2IOERSA_m
0000000000000a00 T __ZN4llvm4yaml18SequenceTraitsImplINSt3__16vectorIjNS2_9allocatorIjEEEELb1EE4sizeERNS0_2IOERS6_
0000000000000fa0 T __ZN4llvm4yaml18SequenceTraitsImplINSt3__16vectorIjNS2_9allocatorIjEEEELb1EE7elementERNS0_2IOERS6_m
000000000000d4d0 T __ZN4llvm4yaml23ScalarEnumerationTraitsINS_6AMDGPU10CodeObject15AccessQualifierEE11enumerationERNS0_2IOERS4_
000000000000d7a0 T __ZN4llvm4yaml23ScalarEnumerationTraitsINS_6AMDGPU10CodeObject21AddressSpaceQualifierEE11enumerationERNS0_2IOERS4_
000000000000ccb0 T __ZN4llvm4yaml23ScalarEnumerationTraitsINS_6AMDGPU10CodeObject9ValueKindEE11enumerationERNS0_2IOERS4_
000000000000cfe0 T __ZN4llvm4yaml23ScalarEnumerationTraitsINS_6AMDGPU10CodeObject9ValueTypeEE11enumerationERNS0_2IOERS4_
                 U __ZN4llvm4yaml2IO10getContextEv
0000000000011280 T __ZN4llvm4yaml2IO10processKeyINS_6AMDGPU10CodeObject6Kernel10DebugProps8MetadataENS0_12EmptyContextEEEvPKcRT_bRT0_
000000000000bbe0 T __ZN4llvm4yaml2IO10processKeyINS_6AMDGPU10CodeObject6Kernel5Attrs8MetadataENS0_12EmptyContextEEEvPKcRT_bRT0_
000000000000f9b0 T __ZN4llvm4yaml2IO10processKeyINS_6AMDGPU10CodeObject6Kernel9CodeProps8MetadataENS0_12EmptyContextEEEvPKcRT_bRT0_
000000000000cba0 T __ZN4llvm4yaml2IO10processKeyINS_6AMDGPU10CodeObject9ValueKindENS0_12EmptyContextEEEvPKcRT_bRT0_
000000000000ced0 T __ZN4llvm4yaml2IO10processKeyINS_6AMDGPU10CodeObject9ValueTypeENS0_12EmptyContextEEEvPKcRT_bRT0_
0000000000009e10 T __ZN4llvm4yaml2IO10processKeyINSt3__112basic_stringIcNS3_11char_traitsIcEENS3_9allocatorIcEEEENS0_12EmptyContextEEEvPKcRT_bRT0_
000000000000c210 T __ZN4llvm4yaml2IO10processKeyINSt3__16vectorINS_6AMDGPU10CodeObject6Kernel3Arg8MetadataENS3_9allocatorIS9_EEEENS0_12EmptyContextEEEvPKcRT_bRT0_
0000000000009430 T __ZN4llvm4yaml2IO10processKeyINSt3__16vectorINS_6AMDGPU10CodeObject6Kernel8MetadataENS3_9allocatorIS8_EEEENS0_12EmptyContextEEEvPKcRT_bRT0_
0000000000000830 T __ZN4llvm4yaml2IO10processKeyINSt3__16vectorIjNS3_9allocatorIjEEEENS0_12EmptyContextEEEvPKcRT_bRT0_
000000000000cae0 T __ZN4llvm4yaml2IO10processKeyIjNS0_12EmptyContextEEEvPKcRT_bRT0_
000000000000ca20 T __ZN4llvm4yaml2IO11mapOptionalINS_6AMDGPU10CodeObject15AccessQualifierEEEvPKcRT_RKS8_
000000000000ca60 T __ZN4llvm4yaml2IO11mapOptionalINS_6AMDGPU10CodeObject21AddressSpaceQualifierEEEvPKcRT_RKS8_
0000000000009de0 T __ZN4llvm4yaml2IO11mapOptionalINS_6AMDGPU10CodeObject6Kernel10DebugProps8MetadataEEEvPKcRT_
0000000000009cf0 T __ZN4llvm4yaml2IO11mapOptionalINS_6AMDGPU10CodeObject6Kernel5Attrs8MetadataEEEvPKcRT_
0000000000009d80 T __ZN4llvm4yaml2IO11mapOptionalINS_6AMDGPU10CodeObject6Kernel9CodeProps8MetadataEEEvPKcRT_
0000000000009b30 T __ZN4llvm4yaml2IO11mapOptionalINSt3__112basic_stringIcNS3_11char_traitsIcEENS3_9allocatorIcEEEEEEvPKcRT_RKSC_
00000000000007a0 T __ZN4llvm4yaml2IO11mapOptionalINSt3__16vectorINS3_12basic_stringIcNS3_11char_traitsIcEENS3_9allocatorIcEEEENS8_ISA_EEEEEEvPKcRT_RKSF_
0000000000009d20 T __ZN4llvm4yaml2IO11mapOptionalINSt3__16vectorINS_6AMDGPU10CodeObject6Kernel3Arg8MetadataENS3_9allocatorIS9_EEEEEEvPKcRT_
0000000000000800 T __ZN4llvm4yaml2IO11mapOptionalINSt3__16vectorINS_6AMDGPU10CodeObject6Kernel8MetadataENS3_9allocatorIS8_EEEEEEvPKcRT_
0000000000009b70 T __ZN4llvm4yaml2IO11mapOptionalINSt3__16vectorIjNS3_9allocatorIjEEEEEEvPKcRT_RKSA_
000000000000caa0 T __ZN4llvm4yaml2IO11mapOptionalIbEEvPKcRT_RKS5_
000000000000fcd0 T __ZN4llvm4yaml2IO11mapOptionalIhEEvPKcRT_RKS5_
000000000000c9e0 T __ZN4llvm4yaml2IO11mapOptionalIjEEvPKcRT_RKS5_
000000000000fc90 T __ZN4llvm4yaml2IO11mapOptionalItEEvPKcRT_RKS5_
000000000000fc50 T __ZN4llvm4yaml2IO11mapOptionalIyEEvPKcRT_RKS5_
000000000000c960 T __ZN4llvm4yaml2IO11mapRequiredINS_6AMDGPU10CodeObject9ValueKindEEEvPKcRT_
000000000000c9a0 T __ZN4llvm4yaml2IO11mapRequiredINS_6AMDGPU10CodeObject9ValueTypeEEEvPKcRT_
0000000000009af0 T __ZN4llvm4yaml2IO11mapRequiredINSt3__112basic_stringIcNS3_11char_traitsIcEENS3_9allocatorIcEEEEEEvPKcRT_
0000000000000760 T __ZN4llvm4yaml2IO11mapRequiredINSt3__16vectorIjNS3_9allocatorIjEEEEEEvPKcRT_
000000000000c920 T __ZN4llvm4yaml2IO11mapRequiredIjEEvPKcRT_
000000000000d360 T __ZN4llvm4yaml2IO21processKeyWithDefaultINS_6AMDGPU10CodeObject15AccessQualifierENS0_12EmptyContextEEEvPKcRT_RKS9_bRT0_
000000000000d630 T __ZN4llvm4yaml2IO21processKeyWithDefaultINS_6AMDGPU10CodeObject21AddressSpaceQualifierENS0_12EmptyContextEEEvPKcRT_RKS9_bRT0_
0000000000009f10 T __ZN4llvm4yaml2IO21processKeyWithDefaultINSt3__112basic_stringIcNS3_11char_traitsIcEENS3_9allocatorIcEEEENS0_12EmptyContextEEEvPKcRT_RKSD_bRT0_
00000000000026a0 T __ZN4llvm4yaml2IO21processKeyWithDefaultINSt3__16vectorINS3_12basic_stringIcNS3_11char_traitsIcEENS3_9allocatorIcEEEENS8_ISA_EEEENS0_12EmptyContextEEEvPKcRT_RKSG_bRT0_
000000000000a5b0 T __ZN4llvm4yaml2IO21processKeyWithDefaultINSt3__16vectorIjNS3_9allocatorIjEEEENS0_12EmptyContextEEEvPKcRT_RKSB_bRT0_
000000000000d930 T __ZN4llvm4yaml2IO21processKeyWithDefaultIbNS0_12EmptyContextEEEvPKcRT_RKS6_bRT0_
0000000000010b50 T __ZN4llvm4yaml2IO21processKeyWithDefaultIhNS0_12EmptyContextEEEvPKcRT_RKS6_bRT0_
000000000000d200 T __ZN4llvm4yaml2IO21processKeyWithDefaultIjNS0_12EmptyContextEEEvPKcRT_RKS6_bRT0_
0000000000010450 T __ZN4llvm4yaml2IO21processKeyWithDefaultItNS0_12EmptyContextEEEvPKcRT_RKS6_bRT0_
000000000000fd50 T __ZN4llvm4yaml2IO21processKeyWithDefaultIyNS0_12EmptyContextEEEvPKcRT_RKS6_bRT0_
000000000000d320 T __ZN4llvm4yaml2IO22mapOptionalWithContextINS_6AMDGPU10CodeObject15AccessQualifierENS0_12EmptyContextEEEvPKcRT_RKS9_RT0_
000000000000d5f0 T __ZN4llvm4yaml2IO22mapOptionalWithContextINS_6AMDGPU10CodeObject21AddressSpaceQualifierENS0_12EmptyContextEEEvPKcRT_RKS9_RT0_
0000000000011240 T __ZN4llvm4yaml2IO22mapOptionalWithContextINS_6AMDGPU10CodeObject6Kernel10DebugProps8MetadataENS0_12EmptyContextEEENSt3__19enable_ifIXntsr18has_SequenceTraitsIT_EE5valueEvE4typeEPKcRSB_RT0_
000000000000bba0 T __ZN4llvm4yaml2IO22mapOptionalWithContextINS_6AMDGPU10CodeObject6Kernel5Attrs8MetadataENS0_12EmptyContextEEENSt3__19enable_ifIXntsr18has_SequenceTraitsIT_EE5valueEvE4typeEPKcRSB_RT0_
000000000000f970 T __ZN4llvm4yaml2IO22mapOptionalWithContextINS_6AMDGPU10CodeObject6Kernel9CodeProps8MetadataENS0_12EmptyContextEEENSt3__19enable_ifIXntsr18has_SequenceTraitsIT_EE5valueEvE4typeEPKcRSB_RT0_
0000000000009ed0 T __ZN4llvm4yaml2IO22mapOptionalWithContextINSt3__112basic_stringIcNS3_11char_traitsIcEENS3_9allocatorIcEEEENS0_12EmptyContextEEEvPKcRT_RKSD_RT0_
0000000000002660 T __ZN4llvm4yaml2IO22mapOptionalWithContextINSt3__16vectorINS3_12basic_stringIcNS3_11char_traitsIcEENS3_9allocatorIcEEEENS8_ISA_EEEENS0_12EmptyContextEEEvPKcRT_RKSG_RT0_
000000000000c030 T __ZN4llvm4yaml2IO22mapOptionalWithContextINSt3__16vectorINS_6AMDGPU10CodeObject6Kernel3Arg8MetadataENS3_9allocatorIS9_EEEENS0_12EmptyContextEEENS3_9enable_ifIXsr18has_SequenceTraitsIT_EE5valueEvE4typeEPKcRSF_RT0_
0000000000009250 T __ZN4llvm4yaml2IO22mapOptionalWithContextINSt3__16vectorINS_6AMDGPU10CodeObject6Kernel8MetadataENS3_9allocatorIS8_EEEENS0_12EmptyContextEEENS3_9enable_ifIXsr18has_SequenceTraitsIT_EE5valueEvE4typeEPKcRSE_RT0_
000000000000a570 T __ZN4llvm4yaml2IO22mapOptionalWithContextINSt3__16vectorIjNS3_9allocatorIjEEEENS0_12EmptyContextEEEvPKcRT_RKSB_RT0_
000000000000d8f0 T __ZN4llvm4yaml2IO22mapOptionalWithContextIbNS0_12EmptyContextEEEvPKcRT_RKS6_RT0_
0000000000010b10 T __ZN4llvm4yaml2IO22mapOptionalWithContextIhNS0_12EmptyContextEEEvPKcRT_RKS6_RT0_
000000000000d1c0 T __ZN4llvm4yaml2IO22mapOptionalWithContextIjNS0_12EmptyContextEEEvPKcRT_RKS6_RT0_
0000000000010410 T __ZN4llvm4yaml2IO22mapOptionalWithContextItNS0_12EmptyContextEEEvPKcRT_RKS6_RT0_
000000000000fd10 T __ZN4llvm4yaml2IO22mapOptionalWithContextIyNS0_12EmptyContextEEEvPKcRT_RKS6_RT0_
000000000000d550 T __ZN4llvm4yaml2IO8enumCaseINS_6AMDGPU10CodeObject15AccessQualifierEEEvRT_PKcS6_
000000000000d850 T __ZN4llvm4yaml2IO8enumCaseINS_6AMDGPU10CodeObject21AddressSpaceQualifierEEEvRT_PKcS6_
000000000000ce30 T __ZN4llvm4yaml2IO8enumCaseINS_6AMDGPU10CodeObject9ValueKindEEEvRT_PKcS6_
000000000000d120 T __ZN4llvm4yaml2IO8enumCaseINS_6AMDGPU10CodeObject9ValueTypeEEEvRT_PKcS6_
                 U __ZN4llvm4yaml5Input18setCurrentDocumentEv
                 U __ZN4llvm4yaml5Input5errorEv
                 U __ZN4llvm4yaml5InputC1ENS_9StringRefEPvPFvRKNS_12SMDiagnosticES3_ES3_
                 U __ZN4llvm4yaml5InputD1Ev
                 U __ZN4llvm4yaml6Output12endDocumentsEv
                 U __ZN4llvm4yaml6Output14beginDocumentsEv
                 U __ZN4llvm4yaml6Output17preflightDocumentEj
                 U __ZN4llvm4yaml6Output18postflightDocumentEv
                 U __ZN4llvm4yaml6OutputC1ERNS_11raw_ostreamEPvi
                 U __ZN4llvm4yaml6OutputD1Ev
0000000000011390 T __ZN4llvm4yaml6detail9doMappingINS_6AMDGPU10CodeObject6Kernel10DebugProps8MetadataEEEvRNS0_2IOERT_RNS0_12EmptyContextE
000000000000c500 T __ZN4llvm4yaml6detail9doMappingINS_6AMDGPU10CodeObject6Kernel3Arg8MetadataEEEvRNS0_2IOERT_RNS0_12EmptyContextE
000000000000bcf0 T __ZN4llvm4yaml6detail9doMappingINS_6AMDGPU10CodeObject6Kernel5Attrs8MetadataEEEvRNS0_2IOERT_RNS0_12EmptyContextE
0000000000009720 T __ZN4llvm4yaml6detail9doMappingINS_6AMDGPU10CodeObject6Kernel8MetadataEEEvRNS0_2IOERT_RNS0_12EmptyContextE
000000000000fac0 T __ZN4llvm4yaml6detail9doMappingINS_6AMDGPU10CodeObject6Kernel9CodeProps8MetadataEEEvRNS0_2IOERT_RNS0_12EmptyContextE
00000000000005f0 T __ZN4llvm4yaml6detail9doMappingINS_6AMDGPU10CodeObject8MetadataEEEvRNS0_2IOERT_RNS0_12EmptyContextE
0000000000004200 T __ZN4llvm4yaml6isBoolENS_9StringRefE
0000000000003c50 T __ZN4llvm4yaml6isNullENS_9StringRefE
000000000000d480 T __ZN4llvm4yaml7yamlizeINS_6AMDGPU10CodeObject15AccessQualifierEEENSt3__19enable_ifIXsr27has_ScalarEnumerationTraitsIT_EE5valueEvE4typeERNS0_2IOERS7_bRNS0_12EmptyContextE
000000000000d750 T __ZN4llvm4yaml7yamlizeINS_6AMDGPU10CodeObject21AddressSpaceQualifierEEENSt3__19enable_ifIXsr27has_ScalarEnumerationTraitsIT_EE5valueEvE4typeERNS0_2IOERS7_bRNS0_12EmptyContextE
0000000000011340 T __ZN4llvm4yaml7yamlizeINS_6AMDGPU10CodeObject6Kernel10DebugProps8MetadataENS0_12EmptyContextEEENSt3__19enable_ifIXsr24unvalidatedMappingTraitsIT_T0_EE5valueEvE4typeERNS0_2IOERSA_bRSB_
000000000000c420 T __ZN4llvm4yaml7yamlizeINS_6AMDGPU10CodeObject6Kernel3Arg8MetadataENS0_12EmptyContextEEENSt3__19enable_ifIXsr24unvalidatedMappingTraitsIT_T0_EE5valueEvE4typeERNS0_2IOERSA_bRSB_
000000000000bca0 T __ZN4llvm4yaml7yamlizeINS_6AMDGPU10CodeObject6Kernel5Attrs8MetadataENS0_12EmptyContextEEENSt3__19enable_ifIXsr24unvalidatedMappingTraitsIT_T0_EE5valueEvE4typeERNS0_2IOERSA_bRSB_
0000000000009640 T __ZN4llvm4yaml7yamlizeINS_6AMDGPU10CodeObject6Kernel8MetadataENS0_12EmptyContextEEENSt3__19enable_ifIXsr24unvalidatedMappingTraitsIT_T0_EE5valueEvE4typeERNS0_2IOERS9_bRSA_
000000000000fa70 T __ZN4llvm4yaml7yamlizeINS_6AMDGPU10CodeObject6Kernel9CodeProps8MetadataENS0_12EmptyContextEEENSt3__19enable_ifIXsr24unvalidatedMappingTraitsIT_T0_EE5valueEvE4typeERNS0_2IOERSA_bRSB_
00000000000005a0 T __ZN4llvm4yaml7yamlizeINS_6AMDGPU10CodeObject8MetadataENS0_12EmptyContextEEENSt3__19enable_ifIXsr24unvalidatedMappingTraitsIT_T0_EE5valueEvE4typeERNS0_2IOERS8_bRS9_
000000000000cc60 T __ZN4llvm4yaml7yamlizeINS_6AMDGPU10CodeObject9ValueKindEEENSt3__19enable_ifIXsr27has_ScalarEnumerationTraitsIT_EE5valueEvE4typeERNS0_2IOERS7_bRNS0_12EmptyContextE
000000000000cf90 T __ZN4llvm4yaml7yamlizeINS_6AMDGPU10CodeObject9ValueTypeEEENSt3__19enable_ifIXsr27has_ScalarEnumerationTraitsIT_EE5valueEvE4typeERNS0_2IOERS7_bRNS0_12EmptyContextE
0000000000003320 T __ZN4llvm4yaml7yamlizeINSt3__112basic_stringIcNS2_11char_traitsIcEENS2_9allocatorIcEEEEEENS2_9enable_ifIXsr16has_ScalarTraitsIT_EE5valueEvE4typeERNS0_2IOERSA_bRNS0_12EmptyContextE
0000000000003180 T __ZN4llvm4yaml7yamlizeINSt3__16vectorINS2_12basic_stringIcNS2_11char_traitsIcEENS2_9allocatorIcEEEENS7_IS9_EEEENS0_12EmptyContextEEENS2_9enable_ifIXsr18has_SequenceTraitsIT_EE5valueEvE4typeERNS0_2IOERSE_bRT0_
000000000000c2d0 T __ZN4llvm4yaml7yamlizeINSt3__16vectorINS_6AMDGPU10CodeObject6Kernel3Arg8MetadataENS2_9allocatorIS8_EEEENS0_12EmptyContextEEENS2_9enable_ifIXsr18has_SequenceTraitsIT_EE5valueEvE4typeERNS0_2IOERSE_bRT0_
00000000000094f0 T __ZN4llvm4yaml7yamlizeINSt3__16vectorINS_6AMDGPU10CodeObject6Kernel8MetadataENS2_9allocatorIS7_EEEENS0_12EmptyContextEEENS2_9enable_ifIXsr18has_SequenceTraitsIT_EE5valueEvE4typeERNS0_2IOERSD_bRT0_
00000000000008f0 T __ZN4llvm4yaml7yamlizeINSt3__16vectorIjNS2_9allocatorIjEEEENS0_12EmptyContextEEENS2_9enable_ifIXsr18has_SequenceTraitsIT_EE5valueEvE4typeERNS0_2IOERS9_bRT0_
000000000000da70 T __ZN4llvm4yaml7yamlizeIbEENSt3__19enable_ifIXsr16has_ScalarTraitsIT_EE5valueEvE4typeERNS0_2IOERS4_bRNS0_12EmptyContextE
0000000000010c80 T __ZN4llvm4yaml7yamlizeIhEENSt3__19enable_ifIXsr16has_ScalarTraitsIT_EE5valueEvE4typeERNS0_2IOERS4_bRNS0_12EmptyContextE
0000000000000a30 T __ZN4llvm4yaml7yamlizeIjEENSt3__19enable_ifIXsr16has_ScalarTraitsIT_EE5valueEvE4typeERNS0_2IOERS4_bRNS0_12EmptyContextE
0000000000010580 T __ZN4llvm4yaml7yamlizeItEENSt3__19enable_ifIXsr16has_ScalarTraitsIT_EE5valueEvE4typeERNS0_2IOERS4_bRNS0_12EmptyContextE
000000000000fe80 T __ZN4llvm4yaml7yamlizeIyEENSt3__19enable_ifIXsr16has_ScalarTraitsIT_EE5valueEvE4typeERNS0_2IOERS4_bRNS0_12EmptyContextE
0000000000005330 T __ZN4llvm4yaml8isNumberENS_9StringRefE
0000000000004aa0 T __ZN4llvm4yaml9isNumericENS_9StringRefE
0000000000000490 T __ZN4llvm4yamllsINS_6AMDGPU10CodeObject8MetadataEEENSt3__19enable_ifIXsr17has_MappingTraitsIT_NS0_12EmptyContextEEE5valueERNS0_6OutputEE4typeESA_RS7_
0000000000000340 T __ZN4llvm4yamlrsINS_6AMDGPU10CodeObject8MetadataEEENSt3__19enable_ifIXsr17has_MappingTraitsIT_NS0_12EmptyContextEEE5valueERNS0_5InputEE4typeESA_RS7_
                 U __ZN4llvm5Regex5matchENS_9StringRefEPNS_15SmallVectorImplIS1_EE
                 U __ZN4llvm5RegexC1ENS_9StringRefEj
                 U __ZN4llvm5RegexD1Ev
0000000000001090 T __ZN4llvm5TwineC1ERKNS_9StringRefE
0000000000001120 T __ZN4llvm5TwineC2ERKNS_9StringRefE
0000000000014398 s __ZN4llvm6AMDGPU10CodeObject3KeyL6PrintfE
000000000001439f s __ZN4llvm6AMDGPU10CodeObject3KeyL7KernelsE
0000000000014390 s __ZN4llvm6AMDGPU10CodeObject3KeyL7VersionE
0000000000014650 s __ZN4llvm6AMDGPU10CodeObject6Kernel10DebugProps3KeyL16ReservedNumVGPRsE
0000000000014670 s __ZN4llvm6AMDGPU10CodeObject6Kernel10DebugProps3KeyL17ReservedFirstVGPRE
0000000000014630 s __ZN4llvm6AMDGPU10CodeObject6Kernel10DebugProps3KeyL18DebuggerABIVersionE
0000000000014690 s __ZN4llvm6AMDGPU10CodeObject6Kernel10DebugProps3KeyL24PrivateSegmentBufferSGPRE
00000000000146b0 s __ZN4llvm6AMDGPU10CodeObject6Kernel10DebugProps3KeyL33WavefrontPrivateSegmentOffsetSGPRE
00000000000136e0 T __ZN4llvm6AMDGPU10CodeObject6Kernel10DebugProps8MetadataC1EOS4_
0000000000012960 T __ZN4llvm6AMDGPU10CodeObject6Kernel10DebugProps8MetadataC1Ev
0000000000013c40 T __ZN4llvm6AMDGPU10CodeObject6Kernel10DebugProps8MetadataC2EOS4_
0000000000012c20 T __ZN4llvm6AMDGPU10CodeObject6Kernel10DebugProps8MetadataC2Ev
00000000000140e0 T __ZN4llvm6AMDGPU10CodeObject6Kernel10DebugProps8MetadataD1Ev
0000000000014140 T __ZN4llvm6AMDGPU10CodeObject6Kernel10DebugProps8MetadataD2Ev
00000000000144ef s __ZN4llvm6AMDGPU10CodeObject6Kernel3Arg3KeyL10IsRestrictE
00000000000144fa s __ZN4llvm6AMDGPU10CodeObject6Kernel3Arg3KeyL10IsVolatileE
00000000000144bd s __ZN4llvm6AMDGPU10CodeObject6Kernel3Arg3KeyL12PointeeAlignE
00000000000144d2 s __ZN4llvm6AMDGPU10CodeObject6Kernel3Arg3KeyL13AddrSpaceQualE
0000000000014505 s __ZN4llvm6AMDGPU10CodeObject6Kernel3Arg3KeyL4NameE
000000000001449e s __ZN4llvm6AMDGPU10CodeObject6Kernel3Arg3KeyL4SizeE
00000000000144a3 s __ZN4llvm6AMDGPU10CodeObject6Kernel3Arg3KeyL5AlignE
00000000000144e8 s __ZN4llvm6AMDGPU10CodeObject6Kernel3Arg3KeyL6IsPipeE
00000000000144ca s __ZN4llvm6AMDGPU10CodeObject6Kernel3Arg3KeyL7AccQualE
00000000000144e0 s __ZN4llvm6AMDGPU10CodeObject6Kernel3Arg3KeyL7IsConstE
000000000001450a s __ZN4llvm6AMDGPU10CodeObject6Kernel3Arg3KeyL8TypeNameE
00000000000144a9 s __ZN4llvm6AMDGPU10CodeObject6Kernel3Arg3KeyL9ValueKindE
00000000000144b3 s __ZN4llvm6AMDGPU10CodeObject6Kernel3Arg3KeyL9ValueTypeE
000000000000f490 T __ZN4llvm6AMDGPU10CodeObject6Kernel3Arg8MetadataC1EOS4_
000000000000ef90 T __ZN4llvm6AMDGPU10CodeObject6Kernel3Arg8MetadataC1Ev
000000000000f4c0 T __ZN4llvm6AMDGPU10CodeObject6Kernel3Arg8MetadataC2EOS4_
000000000000efb0 T __ZN4llvm6AMDGPU10CodeObject6Kernel3Arg8MetadataC2Ev
000000000000f850 T __ZN4llvm6AMDGPU10CodeObject6Kernel3Arg8MetadataD1Ev
000000000000f870 T __ZN4llvm6AMDGPU10CodeObject6Kernel3Arg8MetadataD2Ev
0000000000014455 s __ZN4llvm6AMDGPU10CodeObject6Kernel3KeyL10DebugPropsE
0000000000014430 s __ZN4llvm6AMDGPU10CodeObject6Kernel3KeyL15LanguageVersionE
0000000000014446 s __ZN4llvm6AMDGPU10CodeObject6Kernel3KeyL4ArgsE
0000000000014422 s __ZN4llvm6AMDGPU10CodeObject6Kernel3KeyL4NameE
0000000000014440 s __ZN4llvm6AMDGPU10CodeObject6Kernel3KeyL5AttrsE
0000000000014427 s __ZN4llvm6AMDGPU10CodeObject6Kernel3KeyL8LanguageE
000000000001444b s __ZN4llvm6AMDGPU10CodeObject6Kernel3KeyL9CodePropsE
0000000000014492 s __ZN4llvm6AMDGPU10CodeObject6Kernel5Attrs3KeyL11VecTypeHintE
0000000000014460 s __ZN4llvm6AMDGPU10CodeObject6Kernel5Attrs3KeyL17ReqdWorkGroupSizeE
0000000000014480 s __ZN4llvm6AMDGPU10CodeObject6Kernel5Attrs3KeyL17WorkGroupSizeHintE
00000000000136b0 T __ZN4llvm6AMDGPU10CodeObject6Kernel5Attrs8MetadataC1EOS4_
0000000000012920 T __ZN4llvm6AMDGPU10CodeObject6Kernel5Attrs8MetadataC1Ev
0000000000013710 T __ZN4llvm6AMDGPU10CodeObject6Kernel5Attrs8MetadataC2EOS4_
0000000000012980 T __ZN4llvm6AMDGPU10CodeObject6Kernel5Attrs8MetadataC2Ev
0000000000014120 T __ZN4llvm6AMDGPU10CodeObject6Kernel5Attrs8MetadataD1Ev
0000000000014340 T __ZN4llvm6AMDGPU10CodeObject6Kernel5Attrs8MetadataD2Ev
0000000000012fe0 T __ZN4llvm6AMDGPU10CodeObject6Kernel8MetadataC1EOS3_
0000000000012510 T __ZN4llvm6AMDGPU10CodeObject6Kernel8MetadataC1Ev
0000000000013010 T __ZN4llvm6AMDGPU10CodeObject6Kernel8MetadataC2EOS3_
0000000000012530 T __ZN4llvm6AMDGPU10CodeObject6Kernel8MetadataC2Ev
0000000000014040 T __ZN4llvm6AMDGPU10CodeObject6Kernel8MetadataD1Ev
0000000000014060 T __ZN4llvm6AMDGPU10CodeObject6Kernel8MetadataD2Ev
0000000000014614 s __ZN4llvm6AMDGPU10CodeObject6Kernel9CodeProps3KeyL13WavefrontSizeE
00000000000145a0 s __ZN4llvm6AMDGPU10CodeObject6Kernel9CodeProps3KeyL16WorkitemNumVGPRsE
00000000000145e0 s __ZN4llvm6AMDGPU10CodeObject6Kernel9CodeProps3KeyL17GroupSegmentAlignE
0000000000014580 s __ZN4llvm6AMDGPU10CodeObject6Kernel9CodeProps3KeyL17WavefrontNumSGPRsE
0000000000014520 s __ZN4llvm6AMDGPU10CodeObject6Kernel9CodeProps3KeyL18KernargSegmentSizeE
00000000000145c0 s __ZN4llvm6AMDGPU10CodeObject6Kernel9CodeProps3KeyL19KernargSegmentAlignE
0000000000014600 s __ZN4llvm6AMDGPU10CodeObject6Kernel9CodeProps3KeyL19PrivateSegmentAlignE
0000000000014540 s __ZN4llvm6AMDGPU10CodeObject6Kernel9CodeProps3KeyL25WorkgroupGroupSegmentSizeE
0000000000014560 s __ZN4llvm6AMDGPU10CodeObject6Kernel9CodeProps3KeyL26WorkitemPrivateSegmentSizeE
0000000000012940 T __ZN4llvm6AMDGPU10CodeObject6Kernel9CodeProps8MetadataC1Ev
0000000000012be0 T __ZN4llvm6AMDGPU10CodeObject6Kernel9CodeProps8MetadataC2Ev
0000000000000390 T __ZN4llvm6AMDGPU10CodeObject8Metadata12toYamlStringES2_RNSt3__112basic_stringIcNS3_11char_traitsIcEENS3_9allocatorIcEEEE
0000000000000000 T __ZN4llvm6AMDGPU10CodeObject8Metadata14fromYamlStringENSt3__112basic_stringIcNS3_11char_traitsIcEENS3_9allocatorIcEEEERS2_
0000000000001070 T __ZN4llvm9StringRefC1Ev
0000000000001100 T __ZN4llvm9StringRefC2Ev
0000000000001320 T __ZNK4llvm5Twine10getLHSKindEv
0000000000001300 T __ZNK4llvm5Twine10getRHSKindEv
0000000000001390 T __ZNK4llvm5Twine6isNullEv
00000000000013c0 T __ZNK4llvm5Twine7isEmptyEv
00000000000011b0 T __ZNK4llvm5Twine7isValidEv
0000000000001340 T __ZNK4llvm5Twine8isBinaryEv
00000000000012c0 T __ZNK4llvm5Twine9isNullaryEv
0000000000009db0 T __ZNK4llvm6AMDGPU10CodeObject6Kernel10DebugProps8Metadata5emptyEv
0000000000011210 T __ZNK4llvm6AMDGPU10CodeObject6Kernel10DebugProps8Metadata8notEmptyEv
0000000000009bd0 T __ZNK4llvm6AMDGPU10CodeObject6Kernel5Attrs8Metadata5emptyEv
0000000000009d50 T __ZNK4llvm6AMDGPU10CodeObject6Kernel9CodeProps8Metadata5emptyEv
000000000000f8b0 T __ZNK4llvm6AMDGPU10CodeObject6Kernel9CodeProps8Metadata8notEmptyEv
                 U __ZNK4llvm9StringRef17find_first_not_ofES0_m
0000000000003bd0 T __ZNK4llvm9StringRef4backEv
0000000000003b60 T __ZNK4llvm9StringRef5frontEv
                 U __ZNKSt3__120__vector_base_commonILb1EE20__throw_length_errorEv
000000000000f180 T __ZNKSt3__16vectorIN4llvm6AMDGPU10CodeObject6Kernel3Arg8MetadataENS_9allocatorIS6_EEE8max_sizeEv
0000000000012cd0 T __ZNKSt3__16vectorIN4llvm6AMDGPU10CodeObject6Kernel8MetadataENS_9allocatorIS5_EEE8max_sizeEv
0000000000007b00 T __ZNKSt3__16vectorINS_12basic_stringIcNS_11char_traitsIcEENS_9allocatorIcEEEENS4_IS6_EEE8max_sizeEv
0000000000002180 T __ZNKSt3__16vectorIjNS_9allocatorIjEEE8max_sizeEv
0000000000003290 T __ZNSt3__111char_traitsIcE7compareEPKcS3_m
                 U __ZNSt3__112basic_stringIcNS_11char_traitsIcEENS_9allocatorIcEEEC1ERKS5_
                 U __ZNSt3__112basic_stringIcNS_11char_traitsIcEENS_9allocatorIcEEED1Ev
                 U __ZNSt3__112basic_stringIcNS_11char_traitsIcEENS_9allocatorIcEEEaSERKS5_
0000000000014180 T __ZNSt3__113__vector_baseIN4llvm6AMDGPU10CodeObject6Kernel3Arg8MetadataENS_9allocatorIS6_EEED2Ev
0000000000009090 T __ZNSt3__113__vector_baseINS_12basic_stringIcNS_11char_traitsIcEENS_9allocatorIcEEEENS4_IS6_EEED2Ev
000000000000ba00 T __ZNSt3__113__vector_baseIjNS_9allocatorIjEEED2Ev
000000000000e7a0 T __ZNSt3__114__split_bufferIN4llvm6AMDGPU10CodeObject6Kernel3Arg8MetadataERNS_9allocatorIS6_EEE18__construct_at_endEm
000000000000e760 T __ZNSt3__114__split_bufferIN4llvm6AMDGPU10CodeObject6Kernel3Arg8MetadataERNS_9allocatorIS6_EEEC1EmmS9_
000000000000f270 T __ZNSt3__114__split_bufferIN4llvm6AMDGPU10CodeObject6Kernel3Arg8MetadataERNS_9allocatorIS6_EEEC2EmmS9_
000000000000ef70 T __ZNSt3__114__split_bufferIN4llvm6AMDGPU10CodeObject6Kernel3Arg8MetadataERNS_9allocatorIS6_EEED1Ev
000000000000f670 T __ZNSt3__114__split_bufferIN4llvm6AMDGPU10CodeObject6Kernel3Arg8MetadataERNS_9allocatorIS6_EEED2Ev
0000000000011d00 T __ZNSt3__114__split_bufferIN4llvm6AMDGPU10CodeObject6Kernel8MetadataERNS_9allocatorIS5_EEE18__construct_at_endEm
0000000000011cc0 T __ZNSt3__114__split_bufferIN4llvm6AMDGPU10CodeObject6Kernel8MetadataERNS_9allocatorIS5_EEEC1EmmS8_
0000000000012dc0 T __ZNSt3__114__split_bufferIN4llvm6AMDGPU10CodeObject6Kernel8MetadataERNS_9allocatorIS5_EEEC2EmmS8_
00000000000124f0 T __ZNSt3__114__split_bufferIN4llvm6AMDGPU10CodeObject6Kernel8MetadataERNS_9allocatorIS5_EEED1Ev
0000000000013e60 T __ZNSt3__114__split_bufferIN4llvm6AMDGPU10CodeObject6Kernel8MetadataERNS_9allocatorIS5_EEED2Ev
00000000000071a0 T __ZNSt3__114__split_bufferINS_12basic_stringIcNS_11char_traitsIcEENS_9allocatorIcEEEERNS4_IS6_EEE18__construct_at_endEm
0000000000007160 T __ZNSt3__114__split_bufferINS_12basic_stringIcNS_11char_traitsIcEENS_9allocatorIcEEEERNS4_IS6_EEEC1EmmS8_
0000000000007bf0 T __ZNSt3__114__split_bufferINS_12basic_stringIcNS_11char_traitsIcEENS_9allocatorIcEEEERNS4_IS6_EEEC2EmmS8_
0000000000007ae0 T __ZNSt3__114__split_bufferINS_12basic_stringIcNS_11char_traitsIcEENS_9allocatorIcEEEERNS4_IS6_EEED1Ev
0000000000007e10 T __ZNSt3__114__split_bufferINS_12basic_stringIcNS_11char_traitsIcEENS_9allocatorIcEEEERNS4_IS6_EEED2Ev
0000000000001ae0 T __ZNSt3__114__split_bufferIjRNS_9allocatorIjEEE18__construct_at_endEm
0000000000001aa0 T __ZNSt3__114__split_bufferIjRNS_9allocatorIjEEEC1EmmS3_
0000000000002270 T __ZNSt3__114__split_bufferIjRNS_9allocatorIjEEEC2EmmS3_
0000000000002160 T __ZNSt3__114__split_bufferIjRNS_9allocatorIjEEED1Ev
0000000000002490 T __ZNSt3__114__split_bufferIjRNS_9allocatorIjEEED2Ev
                 U __ZNSt3__115system_categoryEv
000000000000e610 T __ZNSt3__16vectorIN4llvm6AMDGPU10CodeObject6Kernel3Arg8MetadataENS_9allocatorIS6_EEE18__construct_at_endEm
000000000000e880 T __ZNSt3__16vectorIN4llvm6AMDGPU10CodeObject6Kernel3Arg8MetadataENS_9allocatorIS6_EEE26__swap_out_circular_bufferERNS_14__split_bufferIS6_RS8_EE
000000000000e000 T __ZNSt3__16vectorIN4llvm6AMDGPU10CodeObject6Kernel3Arg8MetadataENS_9allocatorIS6_EEE6resizeEm
000000000000e330 T __ZNSt3__16vectorIN4llvm6AMDGPU10CodeObject6Kernel3Arg8MetadataENS_9allocatorIS6_EEE8__appendEm
0000000000014100 T __ZNSt3__16vectorIN4llvm6AMDGPU10CodeObject6Kernel3Arg8MetadataENS_9allocatorIS6_EEED1Ev
0000000000014160 T __ZNSt3__16vectorIN4llvm6AMDGPU10CodeObject6Kernel3Arg8MetadataENS_9allocatorIS6_EEED2Ev
0000000000011b70 T __ZNSt3__16vectorIN4llvm6AMDGPU10CodeObject6Kernel8MetadataENS_9allocatorIS5_EEE18__construct_at_endEm
0000000000011de0 T __ZNSt3__16vectorIN4llvm6AMDGPU10CodeObject6Kernel8MetadataENS_9allocatorIS5_EEE26__swap_out_circular_bufferERNS_14__split_bufferIS5_RS7_EE
0000000000011550 T __ZNSt3__16vectorIN4llvm6AMDGPU10CodeObject6Kernel8MetadataENS_9allocatorIS5_EEE6resizeEm
0000000000011890 T __ZNSt3__16vectorIN4llvm6AMDGPU10CodeObject6Kernel8MetadataENS_9allocatorIS5_EEE8__appendEm
00000000000089c0 T __ZNSt3__16vectorINS_12basic_stringIcNS_11char_traitsIcEENS_9allocatorIcEEEENS4_IS6_EEE10deallocateEv
0000000000006f70 T __ZNSt3__16vectorINS_12basic_stringIcNS_11char_traitsIcEENS_9allocatorIcEEEENS4_IS6_EEE18__construct_at_endEm
0000000000008800 T __ZNSt3__16vectorINS_12basic_stringIcNS_11char_traitsIcEENS_9allocatorIcEEEENS4_IS6_EEE18__construct_at_endIPS6_EENS_9enable_ifIXsr21__is_forward_iteratorIT_EE5valueEvE4typeESC_SC_m
0000000000007330 T __ZNSt3__16vectorINS_12basic_stringIcNS_11char_traitsIcEENS_9allocatorIcEEEENS4_IS6_EEE26__swap_out_circular_bufferERNS_14__split_bufferIS6_RS7_EE
0000000000007ff0 T __ZNSt3__16vectorINS_12basic_stringIcNS_11char_traitsIcEENS_9allocatorIcEEEENS4_IS6_EEE6assignIPS6_EENS_9enable_ifIXaasr21__is_forward_iteratorIT_EE5valuesr16is_constructibleIS6_NS_15iterator_traitsISC_E9referenceEEE5valueEvE4typeESC_SC_
0000000000006960 T __ZNSt3__16vectorINS_12basic_stringIcNS_11char_traitsIcEENS_9allocatorIcEEEENS4_IS6_EEE6resizeEm
0000000000006c90 T __ZNSt3__16vectorINS_12basic_stringIcNS_11char_traitsIcEENS_9allocatorIcEEEENS4_IS6_EEE8__appendEm
0000000000008da0 T __ZNSt3__16vectorINS_12basic_stringIcNS_11char_traitsIcEENS_9allocatorIcEEEENS4_IS6_EEE8allocateEm
00000000000007e0 T __ZNSt3__16vectorINS_12basic_stringIcNS_11char_traitsIcEENS_9allocatorIcEEEENS4_IS6_EEED1Ev
0000000000009070 T __ZNSt3__16vectorINS_12basic_stringIcNS_11char_traitsIcEENS_9allocatorIcEEEENS4_IS6_EEED2Ev
000000000000b390 T __ZNSt3__16vectorIjNS_9allocatorIjEEE10deallocateEv
0000000000001990 T __ZNSt3__16vectorIjNS_9allocatorIjEEE18__construct_at_endEm
000000000000b280 T __ZNSt3__16vectorIjNS_9allocatorIjEEE18__construct_at_endIPjEENS_9enable_ifIXsr21__is_forward_iteratorIT_EE5valueEvE4typeES7_S7_m
0000000000001b90 T __ZNSt3__16vectorIjNS_9allocatorIjEEE26__swap_out_circular_bufferERNS_14__split_bufferIjRS2_EE
000000000000ab40 T __ZNSt3__16vectorIjNS_9allocatorIjEEE6assignIPjEENS_9enable_ifIXaasr21__is_forward_iteratorIT_EE5valuesr16is_constructibleIjNS_15iterator_traitsIS7_E9referenceEEE5valueEvE4typeES7_S7_
00000000000013f0 T __ZNSt3__16vectorIjNS_9allocatorIjEEE6resizeEm
00000000000016e0 T __ZNSt3__16vectorIjNS_9allocatorIjEEE8__appendEm
000000000000b730 T __ZNSt3__16vectorIjNS_9allocatorIjEEE8allocateEm
0000000000009bb0 T __ZNSt3__16vectorIjNS_9allocatorIjEEED1Ev
000000000000b9e0 T __ZNSt3__16vectorIjNS_9allocatorIjEEED2Ev
                 U __ZTVN4llvm11raw_ostreamE
                 U __ZTVN4llvm18raw_string_ostreamE
00000000000143b0 S __ZZN4llvm4yaml11needsQuotesENS_9StringRefEE15ScalarSafeChars
00000000000143f7 S __ZZN4llvm4yaml8isNumberENS_9StringRefEE10OctalChars
0000000000014417 S __ZZN4llvm4yaml8isNumberENS_9StringRefEE8DecChars
0000000000014400 S __ZZN4llvm4yaml8isNumberENS_9StringRefEE8HexChars
                 U __ZdlPv
                 U __Znwm
                 U ___assert_rtn
                 U ___maskrune
                 U ___stack_chk_fail
                 U ___stack_chk_guard
                 U _abort
                 U _memcmp
                 U _memcpy
                 U _memmove
                 U _memset
                 U _strlen

libLLVMSupport.a(APFloat.o):
000000000001de78 D __ZGVZN4llvm7hashing6detail18get_execution_seedEvE4seed
00000000000142c0 T __ZN4llvm10hash_valueERKNS_7APFloatE
000000000001b710 T __ZN4llvm10hash_valueERKNS_9hash_codeE
0000000000000020 T __ZN4llvm11APFloatBase10IEEEdoubleEv
0000000000000010 T __ZN4llvm11APFloatBase10IEEEsingleEv
00000000000000f0 T __ZN4llvm11APFloatBase13getSizeInBitsERKNS_12fltSemanticsE
0000000000000060 T __ZN4llvm11APFloatBase15PPCDoubleDoubleEv
0000000000000040 T __ZN4llvm11APFloatBase17x87DoubleExtendedEv
0000000000000070 T __ZN4llvm11APFloatBase18semanticsPrecisionERKNS_12fltSemanticsE
00000000000000d0 T __ZN4llvm11APFloatBase19semanticsSizeInBitsERKNS_12fltSemanticsE
0000000000000090 T __ZN4llvm11APFloatBase20semanticsMaxExponentERKNS_12fltSemanticsE
00000000000000b0 T __ZN4llvm11APFloatBase20semanticsMinExponentERKNS_12fltSemanticsE
0000000000000050 T __ZN4llvm11APFloatBase5BogusEv
0000000000000000 T __ZN4llvm11APFloatBase8IEEEhalfEv
0000000000000030 T __ZN4llvm11APFloatBase8IEEEquadEv
0000000000017be0 T __ZN4llvm11BitsToFloatEj
0000000000017c20 T __ZN4llvm11FloatToBitsEf
0000000000016e60 T __ZN4llvm11SmallVectorIcLj16EEC1Ev
000000000001bb80 T __ZN4llvm11SmallVectorIcLj16EEC2Ev
0000000000016f90 T __ZN4llvm11SmallVectorIcLj16EED1Ev
0000000000019290 T __ZN4llvm11SmallVectorIcLj16EED2Ev
000000000000d0b0 T __ZN4llvm11SmallVectorIcLj256EEC1Ev
000000000001b790 T __ZN4llvm11SmallVectorIcLj256EEC2Ev
000000000000d9e0 T __ZN4llvm11SmallVectorIcLj256EED1Ev
0000000000018420 T __ZN4llvm11SmallVectorIcLj256EED2Ev
000000000000d9a0 T __ZN4llvm11SmallVectorIcLj6EEC1Ev
000000000001b880 T __ZN4llvm11SmallVectorIcLj6EEC2Ev
000000000000d9c0 T __ZN4llvm11SmallVectorIcLj6EED1Ev
0000000000018360 T __ZN4llvm11SmallVectorIcLj6EED2Ev
00000000000171d0 T __ZN4llvm11SmallVectorIyLj4EEC1EmRKy
000000000001bbd0 T __ZN4llvm11SmallVectorIyLj4EEC2EmRKy
00000000000172c0 T __ZN4llvm11SmallVectorIyLj4EED1Ev
00000000000192b0 T __ZN4llvm11SmallVectorIyLj4EED2Ev
                 U __ZN4llvm11raw_ostream5writeEPKcm
00000000000191d0 T __ZN4llvm11raw_ostreamlsENS_9StringRefE
0000000000016ef0 T __ZN4llvm11raw_ostreamlsEPKc
0000000000016e80 T __ZN4llvm11raw_ostreamlsERKNS_15SmallVectorImplIcEE
0000000000017c00 T __ZN4llvm12BitsToDoubleEy
0000000000017c40 T __ZN4llvm12DoubleToBitsEd
0000000000004ac0 T __ZN4llvm12NextPowerOf2Ey
0000000000014210 T __ZN4llvm12hash_combineIJNS_9hash_codeES1_EEES1_DpRKT_
0000000000014360 T __ZN4llvm12hash_combineIJPKNS_12fltSemanticsEEEENS_9hash_codeEDpRKT_
0000000000008e10 T __ZN4llvm12hash_combineIJhhjEEENS_9hash_codeEDpRKT_
0000000000008f10 T __ZN4llvm12hash_combineIJhhjsNS_9hash_codeEEEES1_DpRKT_
0000000000005640 T __ZN4llvm12makeArrayRefIyEENS_8ArrayRefIT_EEPKS2_m
0000000000019380 T __ZN4llvm15MutableArrayRefIyEC1EPym
0000000000017200 T __ZN4llvm15MutableArrayRefIyEC1ERNS_15SmallVectorImplIyEE
00000000000193b0 T __ZN4llvm15MutableArrayRefIyEC2EPym
000000000001bf00 T __ZN4llvm15MutableArrayRefIyEC2ERNS_15SmallVectorImplIyEE
                 U __ZN4llvm15SmallVectorBase8grow_podEPvmm
000000000001b840 T __ZN4llvm15SmallVectorBaseC2EPvm
0000000000018300 T __ZN4llvm15SmallVectorImplIcE5clearEv
0000000000018090 T __ZN4llvm15SmallVectorImplIcE5eraseEPKcS3_
000000000000cca0 T __ZN4llvm15SmallVectorImplIcE6appendEmRKc
0000000000017c60 T __ZN4llvm15SmallVectorImplIcE6appendIPKcvEEvT_S5_
000000000001b7b0 T __ZN4llvm15SmallVectorImplIcEC2Ej
0000000000018380 T __ZN4llvm15SmallVectorImplIcED2Ev
000000000001bd60 T __ZN4llvm15SmallVectorImplIyE5clearEv
000000000001bc50 T __ZN4llvm15SmallVectorImplIyE6assignEmRKy
000000000001bc20 T __ZN4llvm15SmallVectorImplIyEC2Ej
00000000000192d0 T __ZN4llvm15SmallVectorImplIyED2Ev
0000000000017030 T __ZN4llvm16FoldingSetNodeID3AddINS_5APIntEEEvRKT_
0000000000017fa0 T __ZN4llvm17countLeadingZerosIyEEmT_NS_12ZeroBehaviorE
0000000000017e80 T __ZN4llvm18countTrailingZerosIyEEmT_NS_12ZeroBehaviorE
0000000000009010 T __ZN4llvm18hash_combine_rangeIPKyEENS_9hash_codeET_S4_
00000000000042c0 T __ZN4llvm19makeMutableArrayRefIyEENS_15MutableArrayRefIT_EEPS2_m
000000000001bba0 T __ZN4llvm22DefaultFoldingSetTraitINS_5APIntEE7ProfileERKS1_RNS_16FoldingSetNodeIDE
0000000000018350 T __ZN4llvm23SmallVectorTemplateBaseIcLb1EE13destroy_rangeEPcS2_
0000000000017dd0 T __ZN4llvm23SmallVectorTemplateBaseIcLb1EE18uninitialized_copyIKccEEvPT_S5_PT0_PNSt3__19enable_ifIXsr3std7is_sameINS8_12remove_constIS4_E4typeES6_EE5valueEvE4typeE
0000000000017d90 T __ZN4llvm23SmallVectorTemplateBaseIcLb1EE4growEm
000000000000cc20 T __ZN4llvm23SmallVectorTemplateBaseIcLb1EE9push_backERKc
000000000001b7e0 T __ZN4llvm23SmallVectorTemplateBaseIcLb1EEC2Em
0000000000019340 T __ZN4llvm23SmallVectorTemplateBaseIyLb1EE13destroy_rangeEPyS2_
000000000001bdf0 T __ZN4llvm23SmallVectorTemplateBaseIyLb1EE4growEm
000000000001bd00 T __ZN4llvm23SmallVectorTemplateBaseIyLb1EEC2Em
0000000000017d70 T __ZN4llvm25SmallVectorTemplateCommonIcvE12capacity_ptrEv
0000000000017e20 T __ZN4llvm25SmallVectorTemplateCommonIcvE6setEndEPc
0000000000017e40 T __ZN4llvm25SmallVectorTemplateCommonIcvE8grow_podEmm
000000000001b810 T __ZN4llvm25SmallVectorTemplateCommonIcvEC2Em
000000000001be30 T __ZN4llvm25SmallVectorTemplateCommonIyvE6setEndEPy
000000000001bec0 T __ZN4llvm25SmallVectorTemplateCommonIyvE8grow_podEmm
000000000001bd30 T __ZN4llvm25SmallVectorTemplateCommonIyvEC2Em
                 U __ZN4llvm25llvm_unreachable_internalEPKcS1_j
                 U __ZN4llvm4dbgsEv
                 U __ZN4llvm5APInt10tcClearBitEPyj
                 U __ZN4llvm5APInt10tcSubtractEPyPKyyj
0000000000017780 T __ZN4llvm5APInt11flipAllBitsEv
000000000000b470 T __ZN4llvm5APInt11floatToBitsEf
00000000000172e0 T __ZN4llvm5APInt11getNumWordsEj
000000000000ce40 T __ZN4llvm5APInt11lshrInPlaceEj
                 U __ZN4llvm5APInt11shlSlowCaseEj
000000000000e0e0 T __ZN4llvm5APInt11tcDecrementEPyj
0000000000001af0 T __ZN4llvm5APInt11tcIncrementEPyj
                 U __ZN4llvm5APInt11tcShiftLeftEPyjj
000000000000b530 T __ZN4llvm5APInt12doubleToBitsEd
                 U __ZN4llvm5APInt12initSlowCaseERKS0_
                 U __ZN4llvm5APInt12initSlowCaseEyb
                 U __ZN4llvm5APInt12lshrSlowCaseEj
                 U __ZN4llvm5APInt12tcExtractBitEPKyj
                 U __ZN4llvm5APInt12tcShiftRightEPyjj
                 U __ZN4llvm5APInt14tcFullMultiplyEPyPKyS3_jj
                 U __ZN4llvm5APInt14tcMultiplyPartEPyPKyyyjjb
                 U __ZN4llvm5APInt14tcSubtractPartEPyyj
00000000000173f0 T __ZN4llvm5APInt15clearUnusedBitsEv
0000000000016db0 T __ZN4llvm5APInt15getAllOnesValueEj
                 U __ZN4llvm5APInt19flipAllBitsSlowCaseEv
                 U __ZN4llvm5APInt25tcSetLeastSignificantBitsEPyjj
                 U __ZN4llvm5APInt5tcAddEPyPKyyj
                 U __ZN4llvm5APInt5tcLSBEPKyj
                 U __ZN4llvm5APInt5tcMSBEPKyj
                 U __ZN4llvm5APInt5tcSetEPyyj
0000000000017720 T __ZN4llvm5APInt6negateEv
0000000000017630 T __ZN4llvm5APInt7maskBitEj
                 U __ZN4llvm5APInt7udivremERKS0_S2_RS0_S3_
                 U __ZN4llvm5APInt8tcAssignEPyPKyj
                 U __ZN4llvm5APInt8tcIsZeroEPKyj
                 U __ZN4llvm5APInt8tcNegateEPyj
                 U __ZN4llvm5APInt8tcSetBitEPyj
00000000000176e0 T __ZN4llvm5APInt8whichBitEj
                 U __ZN4llvm5APInt9tcAddPartEPyyj
                 U __ZN4llvm5APInt9tcCompareEPKyS2_j
                 U __ZN4llvm5APInt9tcExtractEPyjPKyjj
0000000000017700 T __ZN4llvm5APInt9whichWordEj
0000000000017750 T __ZN4llvm5APIntC1EOS0_
00000000000053b0 T __ZN4llvm5APIntC1ERKS0_
                 U __ZN4llvm5APIntC1EjNS_8ArrayRefIyEE
                 U __ZN4llvm5APIntC1EjjPKy
0000000000004b40 T __ZN4llvm5APIntC1Ejyb
00000000000177e0 T __ZN4llvm5APIntC2EOS0_
0000000000017520 T __ZN4llvm5APIntC2ERKS0_
0000000000017320 T __ZN4llvm5APIntC2Ejyb
0000000000004d90 T __ZN4llvm5APIntD1Ev
0000000000017490 T __ZN4llvm5APIntD2Ev
0000000000005450 T __ZN4llvm5APIntaSEOS0_
0000000000004b80 T __ZN4llvm5APIntlSEj
                 U __ZN4llvm5APIntmLERKS0_
                 U __ZN4llvm5APIntppEv
0000000000016410 T __ZN4llvm5frexpERKNS_7APFloatERiNS_11APFloatBase12roundingModeE
0000000000017280 T __ZN4llvm6APSIntaSENS_5APIntE
0000000000014120 T __ZN4llvm6detail10hash_valueERKNS0_13DoubleAPFloatE
0000000000008cc0 T __ZN4llvm6detail10hash_valueERKNS0_9IEEEFloatE
000000000000d1d0 t __ZN4llvm6detail12_GLOBAL__N_117AdjustToPrecisionERNS_15SmallVectorImplIcEERij
000000000000cf10 t __ZN4llvm6detail12_GLOBAL__N_117AdjustToPrecisionERNS_5APIntERij
000000000000cbd0 t __ZN4llvm6detail12_GLOBAL__N_16appendERNS_15SmallVectorImplIcEENS_9StringRefE
00000000000113b0 T __ZN4llvm6detail13DoubleAPFloat10changeSignEv
0000000000013580 T __ZN4llvm6detail13DoubleAPFloat11makeLargestEb
0000000000013790 T __ZN4llvm6detail13DoubleAPFloat12makeSmallestEb
0000000000010a50 T __ZN4llvm6detail13DoubleAPFloat14addWithSpecialERKS1_S3_RS1_NS_11APFloatBase12roundingModeE
0000000000012d70 T __ZN4llvm6detail13DoubleAPFloat15roundToIntegralENS_11APFloatBase12roundingModeE
0000000000014b30 T __ZN4llvm6detail13DoubleAPFloat16convertFromAPIntERKNS_5APIntEbNS_11APFloatBase12roundingModeE
0000000000012b60 T __ZN4llvm6detail13DoubleAPFloat16fusedMultiplyAddERKS1_S3_NS_11APFloatBase12roundingModeE
0000000000014400 T __ZN4llvm6detail13DoubleAPFloat17convertFromStringENS_9StringRefENS_11APFloatBase12roundingModeE
0000000000013960 T __ZN4llvm6detail13DoubleAPFloat22makeSmallestNormalizedEb
0000000000014d60 T __ZN4llvm6detail13DoubleAPFloat30convertFromSignExtendedIntegerEPKyjbNS_11APFloatBase12roundingModeE
0000000000014f80 T __ZN4llvm6detail13DoubleAPFloat30convertFromZeroExtendedIntegerEPKyjbNS_11APFloatBase12roundingModeE
0000000000011320 T __ZN4llvm6detail13DoubleAPFloat3addERKS1_NS_11APFloatBase12roundingModeE
0000000000012880 T __ZN4llvm6detail13DoubleAPFloat3modERKS1_
0000000000014640 T __ZN4llvm6detail13DoubleAPFloat4nextEb
0000000000012010 T __ZN4llvm6detail13DoubleAPFloat6divideERKS1_NS_11APFloatBase12roundingModeE
000000000000f6c0 T __ZN4llvm6detail13DoubleAPFloat7addImplERKNS_7APFloatES4_S4_S4_NS_11APFloatBase12roundingModeE
0000000000013360 T __ZN4llvm6detail13DoubleAPFloat7makeInfEb
0000000000011250 T __ZN4llvm6detail13DoubleAPFloat7makeNaNEbbPKNS_5APIntE
0000000000019160 T __ZN4llvm6detail13DoubleAPFloat8getFirstEv
00000000000134d0 T __ZN4llvm6detail13DoubleAPFloat8makeZeroEb
0000000000011450 T __ZN4llvm6detail13DoubleAPFloat8multiplyERKS1_NS_11APFloatBase12roundingModeE
0000000000011360 T __ZN4llvm6detail13DoubleAPFloat8subtractERKS1_NS_11APFloatBase12roundingModeE
00000000000125a0 T __ZN4llvm6detail13DoubleAPFloat9remainderERKS1_
000000000000f460 T __ZN4llvm6detail13DoubleAPFloatC1EOS1_
000000000000e4d0 T __ZN4llvm6detail13DoubleAPFloatC1ERKNS_12fltSemanticsE
000000000000e6f0 T __ZN4llvm6detail13DoubleAPFloatC1ERKNS_12fltSemanticsENS_11APFloatBase16uninitializedTagE
000000000000ef20 T __ZN4llvm6detail13DoubleAPFloatC1ERKNS_12fltSemanticsEONS_7APFloatES6_
000000000000eb90 T __ZN4llvm6detail13DoubleAPFloatC1ERKNS_12fltSemanticsERKNS_5APIntE
000000000000e910 T __ZN4llvm6detail13DoubleAPFloatC1ERKNS_12fltSemanticsEy
000000000000f260 T __ZN4llvm6detail13DoubleAPFloatC1ERKS1_
000000000000f290 T __ZN4llvm6detail13DoubleAPFloatC2EOS1_
000000000000e2f0 T __ZN4llvm6detail13DoubleAPFloatC2ERKNS_12fltSemanticsE
000000000000e500 T __ZN4llvm6detail13DoubleAPFloatC2ERKNS_12fltSemanticsENS_11APFloatBase16uninitializedTagE
000000000000ebc0 T __ZN4llvm6detail13DoubleAPFloatC2ERKNS_12fltSemanticsEONS_7APFloatES6_
000000000000e940 T __ZN4llvm6detail13DoubleAPFloatC2ERKNS_12fltSemanticsERKNS_5APIntE
000000000000e720 T __ZN4llvm6detail13DoubleAPFloatC2ERKNS_12fltSemanticsEy
000000000000ef60 T __ZN4llvm6detail13DoubleAPFloatC2ERKS1_
000000000000f6a0 T __ZN4llvm6detail13DoubleAPFloatD1Ev
0000000000018cf0 T __ZN4llvm6detail13DoubleAPFloatD2Ev
0000000000012550 T __ZN4llvm6detail13DoubleAPFloataSEOS1_
000000000000f490 T __ZN4llvm6detail13DoubleAPFloataSERKS1_
0000000000017fd0 T __ZN4llvm6detail19LeadingZerosCounterIyLm8EE5countEyNS_12ZeroBehaviorE
0000000000017eb0 T __ZN4llvm6detail20TrailingZerosCounterIyLm8EE5countEyNS_12ZeroBehaviorE
00000000000161b0 T __ZN4llvm6detail5frexpERKNS0_13DoubleAPFloatERiNS_11APFloatBase12roundingModeE
000000000000e1e0 T __ZN4llvm6detail5frexpERKNS0_9IEEEFloatERiNS_11APFloatBase12roundingModeE
0000000000004830 T __ZN4llvm6detail5ilogbERKNS0_9IEEEFloatE
0000000000015e80 T __ZN4llvm6detail6scalbnENS0_13DoubleAPFloatEiNS_11APFloatBase12roundingModeE
0000000000004630 T __ZN4llvm6detail6scalbnENS0_9IEEEFloatEiNS_11APFloatBase12roundingModeE
0000000000003a60 T __ZN4llvm6detail9IEEEFloat10changeSignEv
0000000000000110 T __ZN4llvm6detail9IEEEFloat10initializeEPKNS_12fltSemanticsE
000000000000b1c0 T __ZN4llvm6detail9IEEEFloat11makeLargestEb
0000000000003940 T __ZN4llvm6detail9IEEEFloat11modSpecialsERKS1_
000000000000b2b0 T __ZN4llvm6detail9IEEEFloat12makeSmallestEb
0000000000003aa0 T __ZN4llvm6detail9IEEEFloat13addOrSubtractERKS1_NS_11APFloatBase12roundingModeEb
000000000000b0b0 T __ZN4llvm6detail9IEEEFloat13initFromAPIntEPKNS_12fltSemanticsERKNS_5APIntE
0000000000001b20 T __ZN4llvm6detail9IEEEFloat14addSignificandERKS1_
00000000000037f0 T __ZN4llvm6detail9IEEEFloat14divideSpecialsERKS1_
0000000000003170 T __ZN4llvm6detail9IEEEFloat14handleOverflowENS_11APFloatBase12roundingModeE
0000000000000390 T __ZN4llvm6detail9IEEEFloat15copySignificandERKS1_
00000000000001c0 T __ZN4llvm6detail9IEEEFloat15freeSignificandEv
0000000000000e30 T __ZN4llvm6detail9IEEEFloat15roundToIntegralENS_11APFloatBase12roundingModeE
0000000000001540 T __ZN4llvm6detail9IEEEFloat15zeroSignificandEv
0000000000004c70 T __ZN4llvm6detail9IEEEFloat16convertFromAPIntERKNS_5APIntEbNS_11APFloatBase12roundingModeE
0000000000004930 T __ZN4llvm6detail9IEEEFloat16fusedMultiplyAddERKS1_S3_NS_11APFloatBase12roundingModeE
0000000000003690 T __ZN4llvm6detail9IEEEFloat16multiplySpecialsERKS1_
00000000000004a0 T __ZN4llvm6detail9IEEEFloat16significandPartsEv
0000000000008190 T __ZN4llvm6detail9IEEEFloat17convertFromStringENS_9StringRefENS_11APFloatBase12roundingModeE
0000000000002ab0 T __ZN4llvm6detail9IEEEFloat17divideSignificandERKS1_
000000000000aea0 T __ZN4llvm6detail9IEEEFloat17initFromHalfAPIntERKNS_5APIntE
000000000000ac90 T __ZN4llvm6detail9IEEEFloat18initFromFloatAPIntERKNS_5APIntE
000000000000a790 T __ZN4llvm6detail9IEEEFloat19initFromDoubleAPIntERKNS_5APIntE
0000000000001d20 T __ZN4llvm6detail9IEEEFloat19multiplySignificandERKS1_PS2_
0000000000001c20 T __ZN4llvm6detail9IEEEFloat19subtractSignificandERKS1_y
0000000000001a70 T __ZN4llvm6detail9IEEEFloat20incrementSignificandEv
0000000000002f10 T __ZN4llvm6detail9IEEEFloat20shiftSignificandLeftEj
0000000000003450 T __ZN4llvm6detail9IEEEFloat21addOrSubtractSpecialsERKS1_b
00000000000026a0 T __ZN4llvm6detail9IEEEFloat21shiftSignificandRightEj
000000000000a9f0 T __ZN4llvm6detail9IEEEFloat22initFromQuadrupleAPIntERKNS_5APIntE
000000000000b330 T __ZN4llvm6detail9IEEEFloat22makeSmallestNormalizedEb
0000000000002740 T __ZN4llvm6detail9IEEEFloat24addOrSubtractSignificandERKS1_b
0000000000006cc0 T __ZN4llvm6detail9IEEEFloat24convertFromDecimalStringENS_9StringRefENS_11APFloatBase12roundingModeE
00000000000052b0 T __ZN4llvm6detail9IEEEFloat24convertFromUnsignedPartsEPKyjNS_11APFloatBase12roundingModeE
00000000000074b0 T __ZN4llvm6detail9IEEEFloat25convertFromStringSpecialsENS_9StringRefE
000000000000a340 T __ZN4llvm6detail9IEEEFloat26initFromF80LongDoubleAPIntERKNS_5APIntE
0000000000005670 T __ZN4llvm6detail9IEEEFloat28convertFromHexadecimalStringENS_9StringRefENS_11APFloatBase12roundingModeE
000000000000a5a0 T __ZN4llvm6detail9IEEEFloat28initFromPPCDoubleDoubleAPIntERKNS_5APIntE
00000000000060a0 T __ZN4llvm6detail9IEEEFloat28roundSignificandWithExponentEPKyjiNS_11APFloatBase12roundingModeE
0000000000005520 T __ZN4llvm6detail9IEEEFloat30convertFromSignExtendedIntegerEPKyjbNS_11APFloatBase12roundingModeE
00000000000042f0 T __ZN4llvm6detail9IEEEFloat30convertFromZeroExtendedIntegerEPKyjbNS_11APFloatBase12roundingModeE
0000000000003c20 T __ZN4llvm6detail9IEEEFloat3addERKS1_NS_11APFloatBase12roundingModeE
0000000000004440 T __ZN4llvm6detail9IEEEFloat3modERKS1_
000000000000dcf0 T __ZN4llvm6detail9IEEEFloat4nextEb
0000000000000250 T __ZN4llvm6detail9IEEEFloat6assignERKS1_
0000000000003d50 T __ZN4llvm6detail9IEEEFloat6divideERKS1_NS_11APFloatBase12roundingModeE
0000000000002270 T __ZN4llvm6detail9IEEEFloat7convertERKNS_12fltSemanticsENS_11APFloatBase12roundingModeEPb
0000000000008110 T __ZN4llvm6detail9IEEEFloat7makeInfEb
0000000000000510 T __ZN4llvm6detail9IEEEFloat7makeNaNEbbPKNS_5APIntE
0000000000006980 T __ZN4llvm6detail9IEEEFloat8makeZeroEb
0000000000003c80 T __ZN4llvm6detail9IEEEFloat8multiplyERKS1_NS_11APFloatBase12roundingModeE
0000000000003c50 T __ZN4llvm6detail9IEEEFloat8subtractERKS1_NS_11APFloatBase12roundingModeE
000000000000e110 T __ZN4llvm6detail9IEEEFloat9makeQuietEv
0000000000001580 T __ZN4llvm6detail9IEEEFloat9normalizeENS_11APFloatBase12roundingModeENS_12lostFractionE
0000000000003e10 T __ZN4llvm6detail9IEEEFloat9remainderERKS1_
0000000000001a00 T __ZN4llvm6detail9IEEEFloatC1EOS1_
00000000000018e0 T __ZN4llvm6detail9IEEEFloatC1ERKNS_12fltSemanticsE
0000000000001940 T __ZN4llvm6detail9IEEEFloatC1ERKNS_12fltSemanticsENS_11APFloatBase16uninitializedTagE
000000000000a9c0 T __ZN4llvm6detail9IEEEFloatC1ERKNS_12fltSemanticsERKNS_5APIntE
0000000000001860 T __ZN4llvm6detail9IEEEFloatC1ERKNS_12fltSemanticsEy
0000000000000e00 T __ZN4llvm6detail9IEEEFloatC1ERKS1_
000000000000b570 T __ZN4llvm6detail9IEEEFloatC1Ed
000000000000b4b0 T __ZN4llvm6detail9IEEEFloatC1Ef
00000000000019c0 T __ZN4llvm6detail9IEEEFloatC2EOS1_
0000000000001890 T __ZN4llvm6detail9IEEEFloatC2ERKNS_12fltSemanticsE
0000000000001910 T __ZN4llvm6detail9IEEEFloatC2ERKNS_12fltSemanticsENS_11APFloatBase16uninitializedTagE
000000000000b3f0 T __ZN4llvm6detail9IEEEFloatC2ERKNS_12fltSemanticsERKNS_5APIntE
00000000000014b0 T __ZN4llvm6detail9IEEEFloatC2ERKNS_12fltSemanticsEy
0000000000001970 T __ZN4llvm6detail9IEEEFloatC2ERKS1_
000000000000b4e0 T __ZN4llvm6detail9IEEEFloatC2Ed
000000000000b420 T __ZN4llvm6detail9IEEEFloatC2Ef
0000000000001290 T __ZN4llvm6detail9IEEEFloatD1Ev
0000000000001a30 T __ZN4llvm6detail9IEEEFloatD2Ev
0000000000000860 T __ZN4llvm6detail9IEEEFloataSEOS1_
00000000000007f0 T __ZN4llvm6detail9IEEEFloataSERKS1_
0000000000016080 T __ZN4llvm6scalbnENS_7APFloatEiNS_11APFloatBase12roundingModeE
0000000000010950 T __ZN4llvm7APFloat10changeSignEv
00000000000166b0 T __ZN4llvm7APFloat10usesLayoutINS_6detail13DoubleAPFloatEEEbRKNS_12fltSemanticsE
0000000000016680 T __ZN4llvm7APFloat10usesLayoutINS_6detail9IEEEFloatEEEbRKNS_12fltSemanticsE
00000000000138a0 T __ZN4llvm7APFloat12makeSmallestEb
0000000000016b90 T __ZN4llvm7APFloat15getAllOnesValueEjb
0000000000012eb0 T __ZN4llvm7APFloat15roundToIntegralENS_11APFloatBase12roundingModeE
0000000000014c70 T __ZN4llvm7APFloat16convertFromAPIntERKNS_5APIntEbNS_11APFloatBase12roundingModeE
0000000000011e50 T __ZN4llvm7APFloat16fusedMultiplyAddERKS0_S2_NS_11APFloatBase12roundingModeE
0000000000014550 T __ZN4llvm7APFloat17convertFromStringENS_9StringRefENS_11APFloatBase12roundingModeE
0000000000014ea0 T __ZN4llvm7APFloat30convertFromSignExtendedIntegerEPKyjbNS_11APFloatBase12roundingModeE
00000000000150c0 T __ZN4llvm7APFloat30convertFromZeroExtendedIntegerEPKyjbNS_11APFloatBase12roundingModeE
0000000000010480 T __ZN4llvm7APFloat3addERKS0_NS_11APFloatBase12roundingModeE
0000000000012a30 T __ZN4llvm7APFloat3modERKS0_
0000000000014790 T __ZN4llvm7APFloat4nextEb
0000000000012370 T __ZN4llvm7APFloat6divideERKS0_NS_11APFloatBase12roundingModeE
0000000000018ff0 T __ZN4llvm7APFloat7StorageC1ENS_6detail13DoubleAPFloatERKNS_12fltSemanticsE
00000000000166e0 T __ZN4llvm7APFloat7StorageC1ENS_6detail9IEEEFloatERKNS_12fltSemanticsE
00000000000185b0 T __ZN4llvm7APFloat7StorageC1EOS1_
0000000000018b30 T __ZN4llvm7APFloat7StorageC1ERKS1_
00000000000190a0 T __ZN4llvm7APFloat7StorageC1IJEEERKNS_12fltSemanticsEDpOT_
0000000000018790 T __ZN4llvm7APFloat7StorageC1IJNS_11APFloatBase16uninitializedTagEEEERKNS_12fltSemanticsEDpOT_
00000000000189d0 T __ZN4llvm7APFloat7StorageC1IJRKNS_5APIntEEEERKNS_12fltSemanticsEDpOT_
00000000000188b0 T __ZN4llvm7APFloat7StorageC1IJRyEEERKNS_12fltSemanticsEDpOT_
0000000000019020 T __ZN4llvm7APFloat7StorageC2ENS_6detail13DoubleAPFloatERKNS_12fltSemanticsE
0000000000016520 T __ZN4llvm7APFloat7StorageC2ENS_6detail9IEEEFloatERKNS_12fltSemanticsE
0000000000018670 T __ZN4llvm7APFloat7StorageC2EOS1_
0000000000018b60 T __ZN4llvm7APFloat7StorageC2ERKS1_
00000000000190d0 T __ZN4llvm7APFloat7StorageC2IJEEERKNS_12fltSemanticsEDpOT_
00000000000187c0 T __ZN4llvm7APFloat7StorageC2IJNS_11APFloatBase16uninitializedTagEEEERKNS_12fltSemanticsEDpOT_
0000000000018a00 T __ZN4llvm7APFloat7StorageC2IJRKNS_5APIntEEEERKNS_12fltSemanticsEDpOT_
00000000000188e0 T __ZN4llvm7APFloat7StorageC2IJRyEEERKNS_12fltSemanticsEDpOT_
0000000000018590 T __ZN4llvm7APFloat7StorageD1Ev
00000000000185e0 T __ZN4llvm7APFloat7StorageD2Ev
0000000000018490 T __ZN4llvm7APFloat7StorageaSEOS1_
0000000000018c00 T __ZN4llvm7APFloat7StorageaSERKS1_
0000000000016810 T __ZN4llvm7APFloat7convertERKNS_12fltSemanticsENS_11APFloatBase12roundingModeEPb
0000000000016af0 T __ZN4llvm7APFloat7getIEEEEv
0000000000013410 T __ZN4llvm7APFloat7makeInfEb
0000000000013b50 T __ZN4llvm7APFloat7makeNaNEbbPKNS_5APIntE
0000000000010630 T __ZN4llvm7APFloat8makeZeroEb
0000000000011cd0 T __ZN4llvm7APFloat8multiplyERKS0_NS_11APFloatBase12roundingModeE
0000000000010820 T __ZN4llvm7APFloat8subtractERKS0_NS_11APFloatBase12roundingModeE
0000000000012750 T __ZN4llvm7APFloat9remainderERKS0_
0000000000018f70 T __ZN4llvm7APFloatC1ENS_6detail13DoubleAPFloatERKNS_12fltSemanticsE
000000000000dbf0 T __ZN4llvm7APFloatC1ENS_6detail9IEEEFloatERKNS_12fltSemanticsE
000000000000eed0 T __ZN4llvm7APFloatC1EOS0_
000000000000e4a0 T __ZN4llvm7APFloatC1ERKNS_12fltSemanticsE
000000000000e6c0 T __ZN4llvm7APFloatC1ERKNS_12fltSemanticsENS_11APFloatBase16uninitializedTagE
00000000000167b0 T __ZN4llvm7APFloatC1ERKNS_12fltSemanticsENS_9StringRefE
000000000000eb60 T __ZN4llvm7APFloatC1ERKNS_12fltSemanticsERKNS_5APIntE
000000000000e8e0 T __ZN4llvm7APFloatC1ERKNS_12fltSemanticsEy
000000000000f230 T __ZN4llvm7APFloatC1ERKS0_
0000000000018fa0 T __ZN4llvm7APFloatC2ENS_6detail13DoubleAPFloatERKNS_12fltSemanticsE
0000000000018440 T __ZN4llvm7APFloatC2ENS_6detail9IEEEFloatERKNS_12fltSemanticsE
0000000000018ab0 T __ZN4llvm7APFloatC2EOS0_
0000000000016770 T __ZN4llvm7APFloatC2ERKNS_12fltSemanticsE
0000000000018740 T __ZN4llvm7APFloatC2ERKNS_12fltSemanticsENS_11APFloatBase16uninitializedTagE
0000000000016710 T __ZN4llvm7APFloatC2ERKNS_12fltSemanticsENS_9StringRefE
0000000000018990 T __ZN4llvm7APFloatC2ERKNS_12fltSemanticsERKNS_5APIntE
0000000000018870 T __ZN4llvm7APFloatC2ERKNS_12fltSemanticsEy
0000000000018af0 T __ZN4llvm7APFloatC2ERKS0_
000000000000dc60 T __ZN4llvm7APFloatD1Ev
0000000000018720 T __ZN4llvm7APFloatD2Ev
000000000000dc20 T __ZN4llvm7APFloataSEOS0_
000000000000f660 T __ZN4llvm7APFloataSERKS0_
000000000001a200 T __ZN4llvm7hashing6detail10hash_shortEPKcmy
0000000000019c40 T __ZN4llvm7hashing6detail10hash_state12mix_32_bytesEPKcRyS5_
0000000000019930 T __ZN4llvm7hashing6detail10hash_state3mixEPKc
0000000000019860 T __ZN4llvm7hashing6detail10hash_state6createEPKcy
000000000001a340 T __ZN4llvm7hashing6detail10hash_state8finalizeEm
0000000000019b30 T __ZN4llvm7hashing6detail13hash_16_bytesEyy
000000000001a890 T __ZN4llvm7hashing6detail15hash_1to3_bytesEPKcmy
000000000001a3f0 T __ZN4llvm7hashing6detail15hash_4to8_bytesEPKcmy
000000000001a460 T __ZN4llvm7hashing6detail16hash_9to16_bytesEPKcmy
000000000001b660 T __ZN4llvm7hashing6detail17get_hashable_dataINS_9hash_codeEEENSt3__19enable_ifIXntsr16is_hashable_dataIT_EE5valueEmE4typeERKS6_
000000000001bad0 T __ZN4llvm7hashing6detail17get_hashable_dataIPKNS_12fltSemanticsEEENSt3__19enable_ifIXsr16is_hashable_dataIT_EE5valueES8_E4typeERKS8_
0000000000019720 T __ZN4llvm7hashing6detail17get_hashable_dataIhEENSt3__19enable_ifIXsr16is_hashable_dataIT_EE5valueES5_E4typeERKS5_
0000000000019ec0 T __ZN4llvm7hashing6detail17get_hashable_dataIjEENSt3__19enable_ifIXsr16is_hashable_dataIT_EE5valueES5_E4typeERKS5_
000000000001b410 T __ZN4llvm7hashing6detail17get_hashable_dataIsEENSt3__19enable_ifIXsr16is_hashable_dataIT_EE5valueES5_E4typeERKS5_
000000000001a4d0 T __ZN4llvm7hashing6detail17hash_17to32_bytesEPKcmy
000000000001a5f0 T __ZN4llvm7hashing6detail17hash_33to64_bytesEPKcmy
000000000001baf0 T __ZN4llvm7hashing6detail17store_and_advanceIPKNS_12fltSemanticsEEEbRPcS6_RKT_m
00000000000197d0 T __ZN4llvm7hashing6detail17store_and_advanceIhEEbRPcS3_RKT_m
000000000001a170 T __ZN4llvm7hashing6detail17store_and_advanceIjEEbRPcS3_RKT_m
000000000001b680 T __ZN4llvm7hashing6detail17store_and_advanceImEEbRPcS3_RKT_m
000000000001b4b0 T __ZN4llvm7hashing6detail17store_and_advanceIsEEbRPcS3_RKT_m
0000000000019560 T __ZN4llvm7hashing6detail18get_execution_seedEv
                 U __ZN4llvm7hashing6detail19fixed_seed_overrideE
000000000001af10 T __ZN4llvm7hashing6detail23hash_combine_range_implIKyEENSt3__19enable_ifIXsr16is_hashable_dataIT_EE5valueENS_9hash_codeEE4typeEPS6_SA_
000000000001b9b0 T __ZN4llvm7hashing6detail29hash_combine_recursive_helper12combine_dataIPKNS_12fltSemanticsEEEPcRmS7_S7_T_
0000000000019600 T __ZN4llvm7hashing6detail29hash_combine_recursive_helper12combine_dataIhEEPcRmS4_S4_T_
0000000000019da0 T __ZN4llvm7hashing6detail29hash_combine_recursive_helper12combine_dataIjEEPcRmS4_S4_T_
000000000001b540 T __ZN4llvm7hashing6detail29hash_combine_recursive_helper12combine_dataImEEPcRmS4_S4_T_
000000000001b2f0 T __ZN4llvm7hashing6detail29hash_combine_recursive_helper12combine_dataIsEEPcRmS4_S4_T_
0000000000019ed0 T __ZN4llvm7hashing6detail29hash_combine_recursive_helper7combineEmPcS3_
000000000001b430 T __ZN4llvm7hashing6detail29hash_combine_recursive_helper7combineINS_9hash_codeEJEEES4_mPcS5_RKT_DpRKT0_
000000000001b8a0 T __ZN4llvm7hashing6detail29hash_combine_recursive_helper7combineINS_9hash_codeEJS4_EEES4_mPcS5_RKT_DpRKT0_
000000000001b930 T __ZN4llvm7hashing6detail29hash_combine_recursive_helper7combineIPKNS_12fltSemanticsEJEEENS_9hash_codeEmPcS8_RKT_DpRKT0_
0000000000019490 T __ZN4llvm7hashing6detail29hash_combine_recursive_helper7combineIhJhjEEENS_9hash_codeEmPcS5_RKT_DpRKT0_
000000000001b050 T __ZN4llvm7hashing6detail29hash_combine_recursive_helper7combineIhJhjsNS_9hash_codeEEEES4_mPcS5_RKT_DpRKT0_
0000000000019740 T __ZN4llvm7hashing6detail29hash_combine_recursive_helper7combineIhJjEEENS_9hash_codeEmPcS5_RKT_DpRKT0_
000000000001b120 T __ZN4llvm7hashing6detail29hash_combine_recursive_helper7combineIhJjsNS_9hash_codeEEEES4_mPcS5_RKT_DpRKT0_
0000000000019d20 T __ZN4llvm7hashing6detail29hash_combine_recursive_helper7combineIjJEEENS_9hash_codeEmPcS5_RKT_DpRKT0_
000000000001b1d0 T __ZN4llvm7hashing6detail29hash_combine_recursive_helper7combineIjJsNS_9hash_codeEEEES4_mPcS5_RKT_DpRKT0_
000000000001b260 T __ZN4llvm7hashing6detail29hash_combine_recursive_helper7combineIsJNS_9hash_codeEEEES4_mPcS5_RKT_DpRKT0_
0000000000019470 T __ZN4llvm7hashing6detail29hash_combine_recursive_helperC1Ev
0000000000019530 T __ZN4llvm7hashing6detail29hash_combine_recursive_helperC2Ev
0000000000019ba0 T __ZN4llvm7hashing6detail6rotateEym
000000000001a960 T __ZN4llvm7hashing6detail7fetch32EPKc
0000000000019c20 T __ZN4llvm7hashing6detail7fetch64EPKc
0000000000019c00 T __ZN4llvm7hashing6detail9shift_mixEy
0000000000019440 T __ZN4llvm8ArrayRefIyEC1EPKym
00000000000092c0 T __ZN4llvm8ArrayRefIyEC1ILm2EEERAT__Ky
0000000000017250 T __ZN4llvm8ArrayRefIyEC1IvEERKNS_25SmallVectorTemplateCommonIyT_EE
00000000000193f0 T __ZN4llvm8ArrayRefIyEC2EPKym
0000000000017bb0 T __ZN4llvm8ArrayRefIyEC2ILm2EEERAT__Ky
000000000001bf30 T __ZN4llvm8ArrayRefIyEC2IvEERKNS_25SmallVectorTemplateCommonIyT_EE
000000000001a310 T __ZN4llvm9hash_codeC1Em
000000000001a980 T __ZN4llvm9hash_codeC2Em
0000000000006a00 t __ZN4llvmL10HUerrBoundEbjj
0000000000002a20 t __ZN4llvmL10shiftRightEPyjj
000000000001bfb0 s __ZN4llvmL11semIEEEhalfE
000000000001bfd4 s __ZN4llvmL11semIEEEquadE
0000000000017820 t __ZN4llvmL12readExponentEPKcS1_
0000000000007490 t __ZN4llvmL13decDigitValueEj
0000000000005c50 t __ZN4llvmL13hexDigitValueEc
000000000001bfc8 s __ZN4llvmL13semIEEEdoubleE
000000000001bfbc s __ZN4llvmL13semIEEEsingleE
0000000000005e50 t __ZN4llvmL13totalExponentEPKcS1_i
000000000001c050 s __ZN4llvmL14hexDigitsLowerE
000000000001c030 s __ZN4llvmL14hexDigitsUpperE
00000000000070b0 t __ZN4llvmL16interpretDecimalEPKcS1_PNS_11decimalInfoE
0000000000001a50 t __ZN4llvmL16partCountForBitsEj
0000000000006ac0 t __ZN4llvmL16ulpsFromBoundaryEPKyjb
000000000001bff8 s __ZN4llvmL18semPPCDoubleDoubleE
0000000000008c60 t __ZN4llvmL18writeSignedDecimalEPci
0000000000002a60 t __ZN4llvmL20combineLostFractionsENS_12lostFractionES0_
000000000001bfe0 s __ZN4llvmL20semX87DoubleExtendedE
0000000000017ad0 t __ZN4llvmL20writeUnsignedDecimalEPcj
000000000001c064 s __ZN4llvmL24semPPCDoubleDoubleLegacyE
0000000000005af0 t __ZN4llvmL26skipLeadingZeroesAndAnyDotEPKcS1_PS1_
0000000000005cf0 t __ZN4llvmL27trailingHexadecimalFractionEPKcS1_j
0000000000005210 t __ZN4llvmL29lostFractionThroughTruncationEPKyjj
000000000001c026 s __ZN4llvmL4NaNLE
000000000001c022 s __ZN4llvmL4NaNUE
0000000000006620 t __ZN4llvmL8powerOf5EPyj
000000000001bfec s __ZN4llvmL8semBogusE
000000000001c019 s __ZN4llvmL9infinityLE
000000000001c010 s __ZN4llvmL9infinityUE
0000000000008b80 t __ZN4llvmL9partAsHexEPcyjPKc
0000000000005410 T __ZN4llvmngENS_5APIntE
00000000000051f0 T __ZNK4llvm15MutableArrayRefIyE4dataEv
000000000000d1b0 T __ZNK4llvm15SmallVectorBase5emptyEv
00000000000191b0 T __ZNK4llvm25SmallVectorTemplateCommonIcvE4dataEv
00000000000183f0 T __ZNK4llvm25SmallVectorTemplateCommonIcvE7isSmallEv
000000000001bea0 T __ZNK4llvm25SmallVectorTemplateCommonIyvE12capacity_ptrEv
000000000001bf90 T __ZNK4llvm25SmallVectorTemplateCommonIyvE4dataEv
0000000000019350 T __ZNK4llvm25SmallVectorTemplateCommonIyvE7isSmallEv
000000000001bdb0 T __ZNK4llvm25SmallVectorTemplateCommonIyvE8capacityEv
00000000000007a0 T __ZNK4llvm5APInt10getRawDataEv
00000000000053e0 T __ZNK4llvm5APInt10isNegativeEv
000000000000a240 T __ZNK4llvm5APInt11bitsToFloatEv
000000000000a580 T __ZNK4llvm5APInt11getBitWidthEv
0000000000000780 T __ZNK4llvm5APInt11getNumWordsEv
000000000000a310 T __ZNK4llvm5APInt12bitsToDoubleEv
000000000000d100 T __ZNK4llvm5APInt12getZExtValueEv
0000000000017300 T __ZNK4llvm5APInt12isSingleWordEv
00000000000174f0 T __ZNK4llvm5APInt12needsCleanupEv
0000000000017f00 T __ZNK4llvm5APInt13getActiveBitsEv
0000000000017f30 T __ZNK4llvm5APInt17countLeadingZerosEv
000000000000cd70 T __ZNK4llvm5APInt18countTrailingZerosEv
                 U __ZNK4llvm5APInt25countLeadingZerosSlowCaseEv
                 U __ZNK4llvm5APInt26countTrailingZerosSlowCaseEv
                 U __ZNK4llvm5APInt4udivERKS0_
                 U __ZNK4llvm5APInt4zextEj
                 U __ZNK4llvm5APInt5truncEj
                 U __ZNK4llvm5APInt7ProfileERNS_16FoldingSetNodeIDE
0000000000017670 T __ZNK4llvm5APInt7getWordEj
0000000000018020 T __ZNK4llvm5APInteqEy
0000000000017580 T __ZNK4llvm5APIntixEj
000000000000d0d0 T __ZNK4llvm5APIntneEy
0000000000017230 T __ZNK4llvm6APSInt8isSignedEv
0000000000015390 T __ZNK4llvm6detail13DoubleAPFloat10isDenormalEv
00000000000111f0 T __ZNK4llvm6detail13DoubleAPFloat10isNegativeEv
0000000000015720 T __ZNK4llvm6detail13DoubleAPFloat10isSmallestEv
00000000000111a0 T __ZNK4llvm6detail13DoubleAPFloat11getCategoryEv
00000000000121c0 T __ZNK4llvm6detail13DoubleAPFloat14bitcastToAPIntEv
0000000000013ee0 T __ZNK4llvm6detail13DoubleAPFloat14bitwiseIsEqualERKS1_
0000000000015bf0 T __ZNK4llvm6detail13DoubleAPFloat15getExactInverseEPNS_7APFloatE
0000000000014850 T __ZNK4llvm6detail13DoubleAPFloat16convertToIntegerENS_15MutableArrayRefIyEEjbNS_11APFloatBase12roundingModeEPb
00000000000151a0 T __ZNK4llvm6detail13DoubleAPFloat18convertToHexStringEPcjbNS_11APFloatBase12roundingModeE
0000000000012f60 T __ZNK4llvm6detail13DoubleAPFloat20compareAbsoluteValueERKS1_
0000000000013c50 T __ZNK4llvm6detail13DoubleAPFloat7compareERKS1_
0000000000018f00 T __ZNK4llvm6detail13DoubleAPFloat8getFirstEv
0000000000015a00 T __ZNK4llvm6detail13DoubleAPFloat8toStringERNS_15SmallVectorImplIcEEjjb
0000000000015840 T __ZNK4llvm6detail13DoubleAPFloat9isIntegerEv
00000000000157b0 T __ZNK4llvm6detail13DoubleAPFloat9isLargestEv
0000000000000910 T __ZNK4llvm6detail9IEEEFloat10isDenormalEv
000000000000e190 T __ZNK4llvm6detail9IEEEFloat10isInfinityEv
0000000000004d60 T __ZNK4llvm6detail9IEEEFloat10isNegativeEv
00000000000009a0 T __ZNK4llvm6detail9IEEEFloat10isSmallestEv
0000000000018f50 T __ZNK4llvm6detail9IEEEFloat11getCategoryEv
000000000000dc80 T __ZNK4llvm6detail9IEEEFloat11isSignalingEv
000000000000e1c0 T __ZNK4llvm6detail9IEEEFloat12getSemanticsEv
0000000000000220 T __ZNK4llvm6detail9IEEEFloat12needsCleanupEv
000000000000a050 T __ZNK4llvm6detail9IEEEFloat14bitcastToAPIntEv
00000000000012b0 T __ZNK4llvm6detail9IEEEFloat14bitwiseIsEqualERKS1_
000000000000a1a0 T __ZNK4llvm6detail9IEEEFloat14convertToFloatEv
0000000000002ed0 T __ZNK4llvm6detail9IEEEFloat14significandLSBEv
0000000000000a10 T __ZNK4llvm6detail9IEEEFloat14significandMSBEv
000000000000a270 T __ZNK4llvm6detail9IEEEFloat15convertToDoubleEv
000000000000da00 T __ZNK4llvm6detail9IEEEFloat15getExactInverseEPNS_7APFloatE
0000000000000340 T __ZNK4llvm6detail9IEEEFloat15isFiniteNonZeroEv
00000000000040f0 T __ZNK4llvm6detail9IEEEFloat16convertToIntegerENS_15MutableArrayRefIyEEjbNS_11APFloatBase12roundingModeEPb
00000000000004f0 T __ZNK4llvm6detail9IEEEFloat16significandPartsEv
0000000000003250 T __ZNK4llvm6detail9IEEEFloat17roundAwayFromZeroENS_11APFloatBase12roundingModeENS_12lostFractionEj
0000000000008530 T __ZNK4llvm6detail9IEEEFloat18convertToHexStringEPcjbNS_11APFloatBase12roundingModeE
0000000000003000 T __ZNK4llvm6detail9IEEEFloat20compareAbsoluteValueERKS1_
0000000000000a50 T __ZNK4llvm6detail9IEEEFloat20isSignificandAllOnesEv
0000000000000b90 T __ZNK4llvm6detail9IEEEFloat21isSignificandAllZerosEv
00000000000087a0 T __ZNK4llvm6detail9IEEEFloat24convertNormalToHexStringEPcjbNS_11APFloatBase12roundingModeE
0000000000009e20 T __ZNK4llvm6detail9IEEEFloat25convertHalfAPFloatToAPIntEv
0000000000009bf0 T __ZNK4llvm6detail9IEEEFloat26convertFloatAPFloatToAPIntEv
00000000000096e0 T __ZNK4llvm6detail9IEEEFloat27convertDoubleAPFloatToAPIntEv
0000000000004db0 T __ZNK4llvm6detail9IEEEFloat28convertToSignExtendedIntegerENS_15MutableArrayRefIyEEjbNS_11APFloatBase12roundingModeEPb
0000000000009930 T __ZNK4llvm6detail9IEEEFloat30convertQuadrupleAPFloatToAPIntEv
0000000000009040 T __ZNK4llvm6detail9IEEEFloat34convertF80LongDoubleAPFloatToAPIntEv
00000000000092f0 T __ZNK4llvm6detail9IEEEFloat36convertPPCDoubleDoubleAPFloatToAPIntEv
0000000000008ee0 T __ZNK4llvm6detail9IEEEFloat5isNaNEv
0000000000004410 T __ZNK4llvm6detail9IEEEFloat6isZeroEv
0000000000000ff0 T __ZNK4llvm6detail9IEEEFloat7compareERKS1_
0000000000000db0 T __ZNK4llvm6detail9IEEEFloat8isFiniteEv
000000000000b5a0 T __ZNK4llvm6detail9IEEEFloat8toStringERNS_15SmallVectorImplIcEEjjb
0000000000000d30 T __ZNK4llvm6detail9IEEEFloat9isIntegerEv
0000000000000cc0 T __ZNK4llvm6detail9IEEEFloat9isLargestEv
0000000000002240 T __ZNK4llvm6detail9IEEEFloat9isNonZeroEv
0000000000000190 T __ZNK4llvm6detail9IEEEFloat9partCountEv
0000000000015610 T __ZNK4llvm7APFloat10isDenormalEv
0000000000010600 T __ZNK4llvm7APFloat10isInfinityEv
0000000000010a20 T __ZNK4llvm7APFloat10isNegativeEv
0000000000013330 T __ZNK4llvm7APFloat11getCategoryEv
000000000000ef00 T __ZNK4llvm7APFloat12getSemanticsEv
00000000000124a0 T __ZNK4llvm7APFloat14bitcastToAPIntEv
0000000000014030 T __ZNK4llvm7APFloat14bitwiseIsEqualERKS0_
0000000000015dc0 T __ZNK4llvm7APFloat15getExactInverseEPS0_
0000000000011e00 T __ZNK4llvm7APFloat15isFiniteNonZeroEv
00000000000149c0 T __ZNK4llvm7APFloat16convertToIntegerENS_15MutableArrayRefIyEEjbNS_11APFloatBase12roundingModeEPb
0000000000017060 T __ZNK4llvm7APFloat16convertToIntegerERNS_6APSIntENS_11APFloatBase12roundingModeEPb
00000000000152b0 T __ZNK4llvm7APFloat18convertToHexStringEPcjbNS_11APFloatBase12roundingModeE
00000000000106f0 T __ZNK4llvm7APFloat20compareAbsoluteValueERKS0_
0000000000016fb0 T __ZNK4llvm7APFloat4dumpEv
0000000000018e30 T __ZNK4llvm7APFloat5isNaNEv
0000000000016de0 T __ZNK4llvm7APFloat5printERNS_11raw_ostreamE
00000000000109f0 T __ZNK4llvm7APFloat6isZeroEv
0000000000016fe0 T __ZNK4llvm7APFloat7ProfileERNS_16FoldingSetNodeIDE
0000000000013db0 T __ZNK4llvm7APFloat7compareERKS0_
0000000000018e60 T __ZNK4llvm7APFloat7getIEEEEv
00000000000105b0 T __ZNK4llvm7APFloat8isFiniteEv
0000000000015b00 T __ZNK4llvm7APFloat8toStringERNS_15SmallVectorImplIcEEjjb
0000000000015950 T __ZNK4llvm7APFloat9isIntegerEv
00000000000156c0 T __ZNK4llvm7APFloatplERKS0_
0000000000019420 T __ZNK4llvm8ArrayRefIyE4dataEv
00000000000051d0 T __ZNK4llvm8ArrayRefIyE4sizeEv
0000000000005ad0 T __ZNK4llvm9StringRef3endEv
0000000000005ab0 T __ZNK4llvm9StringRef5beginEv
000000000001ac60 T __ZNSt3__112__rotate_gcdIPcEET_S2_S2_S2_
000000000001a9a0 T __ZNSt3__113__rotate_leftIPcEET_S2_S2_
000000000001aaf0 T __ZNSt3__114__rotate_rightIPcEET_S2_S2_
000000000001be50 T __ZNSt3__118uninitialized_fillIPyyEEvT_S2_RKT0_
000000000001b730 T __ZNSt3__120uninitialized_fill_nIPcmcEET_S2_T0_RKT1_
000000000001de70 D __ZZN4llvm7hashing6detail18get_execution_seedEvE4seed
000000000001c070 s __ZZN4llvmL8powerOf5EPyjE16firstEightPowers
                 U __ZdaPv
                 U __Znam
                 U ___assert_rtn
                 U ___cxa_guard_acquire
                 U ___cxa_guard_release
                 U ___stack_chk_fail
                 U ___stack_chk_guard
                 U _abort
                 U _free
                 U _memcmp
                 U _memcpy
                 U _memmove
                 U _memset
                 U _strlen
000000000001c004 s l__ZZN4llvm6detail9IEEEFloat28roundSignificandWithExponentEPKyjiNS_11APFloatBase12roundingModeEE13calcSemantics

libLLVMSupport.a(APInt.o):
0000000000012ef8 D __ZGVZN4llvm7hashing6detail18get_execution_seedEvE4seed
000000000000ea80 t __ZL10lowBitMaskj
0000000000006ad0 t __ZL12rotateModulojRKN4llvm5APIntE
00000000000000b0 t __ZL16getClearedMemoryj
000000000000eb40 t __ZL7lowHalfy
000000000000e810 t __ZL7partLSBy
000000000000e8c0 t __ZL7partMSBy
000000000000a310 t __ZL8KnuthDivPjS_S_S_jj
000000000000d4d0 t __ZL8getDigitch
000000000000eb70 t __ZL8highHalfy
00000000000002a0 t __ZL9getMemoryj
00000000000039a0 T __ZN4llvm10hash_valueERKNS_5APIntE
0000000000004af0 T __ZN4llvm11ByteSwap_16Et
0000000000004b20 T __ZN4llvm11ByteSwap_32Ej
0000000000004b40 T __ZN4llvm11ByteSwap_64Ey
000000000000e0f0 T __ZN4llvm11SmallStringILj40EEC1Ev
000000000000f6c0 T __ZN4llvm11SmallStringILj40EEC2Ev
000000000000e1c0 T __ZN4llvm11SmallStringILj40EED1Ev
000000000000f970 T __ZN4llvm11SmallStringILj40EED2Ev
000000000000f6e0 T __ZN4llvm11SmallVectorIcLj40EEC2Ev
000000000000f990 T __ZN4llvm11SmallVectorIcLj40EED2Ev
000000000000fb90 T __ZN4llvm11findLastSetIyEET_S1_NS_12ZeroBehaviorE
                 U __ZN4llvm11raw_ostream5writeEPKcm
                 U __ZN4llvm11raw_ostream5writeEh
000000000000fa60 T __ZN4llvm11raw_ostreamlsENS_9StringRefE
000000000000e350 T __ZN4llvm11raw_ostreamlsEPKc
000000000000e420 T __ZN4llvm11raw_ostreamlsERKNS_15SmallVectorImplIcEE
000000000000f490 T __ZN4llvm11raw_ostreamlsEc
000000000000f520 T __ZN4llvm11raw_ostreamlsEi
000000000000e3f0 T __ZN4llvm11raw_ostreamlsEj
                 U __ZN4llvm11raw_ostreamlsEl
                 U __ZN4llvm11raw_ostreamlsEm
                 U __ZN4llvm11raw_ostreamlsEx
                 U __ZN4llvm11raw_ostreamlsEy
0000000000004fe0 T __ZN4llvm11reverseBitsIhEET_S1_
0000000000004ef0 T __ZN4llvm11reverseBitsIjEET_S1_
0000000000004f60 T __ZN4llvm11reverseBitsItEET_S1_
0000000000004e40 T __ZN4llvm11reverseBitsIyEET_S1_
00000000000027a0 T __ZN4llvm12SignExtend64Eyj
000000000000fb40 T __ZN4llvm12findFirstSetIyEET_S1_NS_12ZeroBehaviorE
0000000000003a30 T __ZN4llvm12hash_combineIJyEEENS_9hash_codeEDpRKT_
0000000000000720 T __ZN4llvm12makeArrayRefIyEENS_8ArrayRefIT_EEPKS2_m
                 U __ZN4llvm15SmallVectorBase8grow_podEPvmm
000000000000f790 T __ZN4llvm15SmallVectorBaseC2EPvm
000000000000df20 T __ZN4llvm15SmallVectorImplIcE6appendIPcvEEvT_S4_
000000000000f700 T __ZN4llvm15SmallVectorImplIcEC2Ej
000000000000f9b0 T __ZN4llvm15SmallVectorImplIcED2Ev
0000000000004730 T __ZN4llvm15countPopulationIyEEjT_
                 U __ZN4llvm16FoldingSetNodeID10AddIntegerEj
                 U __ZN4llvm16FoldingSetNodeID10AddIntegerEy
00000000000043e0 T __ZN4llvm16countLeadingOnesIyEEmT_NS_12ZeroBehaviorE
000000000000f500 T __ZN4llvm17countLeadingZerosIjEEmT_NS_12ZeroBehaviorE
0000000000004290 T __ZN4llvm17countLeadingZerosIyEEmT_NS_12ZeroBehaviorE
0000000000004690 T __ZN4llvm17countTrailingOnesIyEEmT_NS_12ZeroBehaviorE
0000000000004550 T __ZN4llvm18countTrailingZerosIyEEmT_NS_12ZeroBehaviorE
0000000000003ad0 T __ZN4llvm18hash_combine_rangeIPyEENS_9hash_codeET_S3_
                 U __ZN4llvm18isCurrentDebugTypeEPKc
000000000000fa20 T __ZN4llvm23SmallVectorTemplateBaseIcLb1EE13destroy_rangeEPcS2_
0000000000011700 T __ZN4llvm23SmallVectorTemplateBaseIcLb1EE18uninitialized_copyIccEEvPT_S4_PT0_PNSt3__19enable_ifIXsr3std7is_sameINS7_12remove_constIS3_E4typeES5_EE5valueEvE4typeE
0000000000011640 T __ZN4llvm23SmallVectorTemplateBaseIcLb1EE4growEm
000000000000ddf0 T __ZN4llvm23SmallVectorTemplateBaseIcLb1EE9push_backERKc
000000000000f730 T __ZN4llvm23SmallVectorTemplateBaseIcLb1EEC2Em
00000000000116e0 T __ZN4llvm25SmallVectorTemplateCommonIcvE12capacity_ptrEv
0000000000011680 T __ZN4llvm25SmallVectorTemplateCommonIcvE6setEndEPc
00000000000116a0 T __ZN4llvm25SmallVectorTemplateCommonIcvE8grow_podEmm
000000000000f760 T __ZN4llvm25SmallVectorTemplateCommonIcvEC2Em
                 U __ZN4llvm25llvm_unreachable_internalEPKcS1_j
000000000000f380 T __ZN4llvm3sys16SwapByteOrder_16Et
000000000000f3c0 T __ZN4llvm3sys16SwapByteOrder_32Ej
000000000000f3d0 T __ZN4llvm3sys16SwapByteOrder_64Ey
                 U __ZN4llvm4dbgsEv
0000000000000840 T __ZN4llvm5APInt10fromStringEjNS_9StringRefEh
0000000000002dd0 T __ZN4llvm5APInt10insertBitsERKS0_j
0000000000000dc0 T __ZN4llvm5APInt10reallocateEj
000000000000f190 T __ZN4llvm5APInt10setLowBitsEj
000000000000e730 T __ZN4llvm5APInt10tcClearBitEPyj
0000000000001920 T __ZN4llvm5APInt10tcMultiplyEPyPKyS3_j
0000000000001520 T __ZN4llvm5APInt10tcSubtractEPyPKyyj
0000000000006210 T __ZN4llvm5APInt11ashrInPlaceERKS0_
0000000000006250 T __ZN4llvm5APInt11ashrInPlaceEj
000000000000f5a0 T __ZN4llvm5APInt11flipAllBitsEv
0000000000000e70 T __ZN4llvm5APInt11getNumWordsEj
00000000000065f0 T __ZN4llvm5APInt11lshrInPlaceERKS0_
0000000000004b60 T __ZN4llvm5APInt11lshrInPlaceEj
0000000000006880 T __ZN4llvm5APInt11shlSlowCaseEj
0000000000001100 T __ZN4llvm5APInt11tcDecrementEPyj
0000000000001060 T __ZN4llvm5APInt11tcIncrementEPyj
00000000000068d0 T __ZN4llvm5APInt11tcShiftLeftEPyjj
00000000000063a0 T __ZN4llvm5APInt12ashrSlowCaseEj
0000000000000230 T __ZN4llvm5APInt12initSlowCaseERKS0_
0000000000000000 T __ZN4llvm5APInt12initSlowCaseEyb
0000000000006630 T __ZN4llvm5APInt12lshrSlowCaseEj
0000000000002a60 T __ZN4llvm5APInt12tcComplementEPyj
000000000000e640 T __ZN4llvm5APInt12tcExtractBitEPKyj
0000000000006670 T __ZN4llvm5APInt12tcShiftRightEPyjj
0000000000003570 T __ZN4llvm5APInt13getBitsNeededENS_9StringRefEh
0000000000003e30 T __ZN4llvm5APInt13getLowBitsSetEjj
0000000000000350 T __ZN4llvm5APInt13initFromArrayENS_8ArrayRefIyEE
0000000000000e90 T __ZN4llvm5APInt14AssignSlowCaseERKS0_
000000000000eb90 T __ZN4llvm5APInt14tcFullMultiplyEPyPKyS3_jj
0000000000001e80 T __ZN4llvm5APInt14tcMultiplyPartEPyPKyyyjjb
00000000000016d0 T __ZN4llvm5APInt14tcSubtractPartEPyyj
0000000000000190 T __ZN4llvm5APInt15clearUnusedBitsEv
00000000000097e0 T __ZN4llvm5APInt15getAllOnesValueEj
00000000000028c0 T __ZN4llvm5APInt15setBitsSlowCaseEjj
0000000000001b20 T __ZN4llvm5APInt16OrAssignSlowCaseERKS0_
0000000000001a80 T __ZN4llvm5APInt17AndAssignSlowCaseERKS0_
0000000000001bc0 T __ZN4llvm5APInt17XorAssignSlowCaseERKS0_
0000000000009810 T __ZN4llvm5APInt17getSignedMaxValueEj
0000000000008820 T __ZN4llvm5APInt17getSignedMinValueEj
0000000000002a20 T __ZN4llvm5APInt19flipAllBitsSlowCaseEv
000000000000eea0 T __ZN4llvm5APInt25tcSetLeastSignificantBitsEPyjj
0000000000008880 T __ZN4llvm5APInt2msC1Ev
000000000000f410 T __ZN4llvm5APInt2msC2Ev
0000000000008da0 T __ZN4llvm5APInt2msD1Ev
000000000000f430 T __ZN4llvm5APInt2msD2Ev
00000000000097c0 T __ZN4llvm5APInt2muC1Ev
000000000000f450 T __ZN4llvm5APInt2muC2Ev
0000000000009870 T __ZN4llvm5APInt2muD1Ev
000000000000f470 T __ZN4llvm5APInt2muD2Ev
0000000000001b70 T __ZN4llvm5APInt4tcOrEPyPKyj
0000000000001210 T __ZN4llvm5APInt5tcAddEPyPKyyj
0000000000001ad0 T __ZN4llvm5APInt5tcAndEPyPKyj
000000000000e780 T __ZN4llvm5APInt5tcLSBEPKyj
000000000000e840 T __ZN4llvm5APInt5tcMSBEPKyj
000000000000e500 T __ZN4llvm5APInt5tcSetEPyyj
0000000000001c10 T __ZN4llvm5APInt5tcXorEPyPKyj
0000000000009890 T __ZN4llvm5APInt6divideEPKyjS2_jPyS3_
000000000000c8a0 T __ZN4llvm5APInt6negateEv
0000000000002cf0 T __ZN4llvm5APInt6setBitEj
0000000000002ab0 T __ZN4llvm5APInt7flipBitEj
000000000000e6a0 T __ZN4llvm5APInt7maskBitEj
000000000000c6e0 T __ZN4llvm5APInt7sdivremERKS0_S2_RS0_S3_
000000000000c8d0 T __ZN4llvm5APInt7sdivremERKS0_xRS0_Rx
000000000000f1c0 T __ZN4llvm5APInt7setBitsEjj
0000000000007bc0 T __ZN4llvm5APInt7udivremERKS0_S2_RS0_S3_
000000000000c450 T __ZN4llvm5APInt7udivremERKS0_yRS0_Ry
0000000000002c10 T __ZN4llvm5APInt8clearBitEj
0000000000003f50 T __ZN4llvm5APInt8getSplatEjRKS0_
000000000000e590 T __ZN4llvm5APInt8tcAssignEPyPKyj
000000000000ecc0 T __ZN4llvm5APInt8tcDivideEPyPKyS1_S1_j
000000000000e5e0 T __ZN4llvm5APInt8tcIsZeroEPKyj
000000000000eb00 T __ZN4llvm5APInt8tcNegateEPyj
000000000000e6e0 T __ZN4llvm5APInt8tcSetBitEPyj
0000000000002a00 T __ZN4llvm5APInt8whichBitEj
00000000000013c0 T __ZN4llvm5APInt9tcAddPartEPyyj
0000000000002590 T __ZN4llvm5APInt9tcCompareEPKyS2_j
000000000000e8f0 T __ZN4llvm5APInt9tcExtractEPyjPKyjj
00000000000029e0 T __ZN4llvm5APInt9whichWordEj
0000000000001a30 T __ZN4llvm5APIntC1EOS0_
00000000000018f0 T __ZN4llvm5APIntC1EPyj
0000000000003540 T __ZN4llvm5APIntC1ERKS0_
0000000000000680 T __ZN4llvm5APIntC1EjNS_8ArrayRefIyEE
0000000000000d80 T __ZN4llvm5APIntC1EjNS_9StringRefEh
0000000000000750 T __ZN4llvm5APIntC1EjjPKy
00000000000018b0 T __ZN4llvm5APIntC1Ejyb
0000000000008800 T __ZN4llvm5APIntC1Ev
000000000000f060 T __ZN4llvm5APIntC2EOS0_
000000000000f030 T __ZN4llvm5APIntC2EPyj
000000000000f130 T __ZN4llvm5APIntC2ERKS0_
0000000000000630 T __ZN4llvm5APIntC2EjNS_8ArrayRefIyEE
0000000000000780 T __ZN4llvm5APIntC2EjNS_9StringRefEh
00000000000006c0 T __ZN4llvm5APIntC2EjjPKy
000000000000ef60 T __ZN4llvm5APIntC2Ejyb
000000000000f3f0 T __ZN4llvm5APIntC2Ev
0000000000001a60 T __ZN4llvm5APIntD1Ev
000000000000f0a0 T __ZN4llvm5APIntD2Ev
0000000000003e90 T __ZN4llvm5APIntaNERKS0_
0000000000001d10 T __ZN4llvm5APIntaSEOS0_
00000000000030c0 T __ZN4llvm5APIntaSERKS0_
000000000000c3c0 T __ZN4llvm5APIntaSEy
0000000000006830 T __ZN4llvm5APIntlSERKS0_
0000000000005080 T __ZN4llvm5APIntlSEj
0000000000001440 T __ZN4llvm5APIntmIERKS0_
0000000000001650 T __ZN4llvm5APIntmIEy
0000000000001c60 T __ZN4llvm5APIntmLERKS0_
0000000000001de0 T __ZN4llvm5APIntmLEy
0000000000001090 T __ZN4llvm5APIntmmEv
00000000000040f0 T __ZN4llvm5APIntoRERKS0_
0000000000005170 T __ZN4llvm5APIntoREy
0000000000001130 T __ZN4llvm5APIntpLERKS0_
0000000000001340 T __ZN4llvm5APIntpLEy
0000000000000ff0 T __ZN4llvm5APIntppEv
000000000000a2d0 T __ZN4llvm5Hi_32Ey
000000000000a2c0 T __ZN4llvm5Lo_32Ey
000000000000fc80 T __ZN4llvm6detail17PopulationCounterIyLm8EE5countEy
000000000000f550 T __ZN4llvm6detail19LeadingZerosCounterIjLm4EE5countEjNS_12ZeroBehaviorE
000000000000fbe0 T __ZN4llvm6detail19LeadingZerosCounterIyLm8EE5countEyNS_12ZeroBehaviorE
000000000000fc30 T __ZN4llvm6detail20TrailingZerosCounterIyLm8EE5countEyNS_12ZeroBehaviorE
000000000000a2f0 T __ZN4llvm7Make_64Ejj
00000000000107f0 T __ZN4llvm7hashing6detail10hash_shortEPKcmy
0000000000010710 T __ZN4llvm7hashing6detail10hash_state12mix_32_bytesEPKcRyS5_
0000000000010400 T __ZN4llvm7hashing6detail10hash_state3mixEPKc
0000000000010330 T __ZN4llvm7hashing6detail10hash_state6createEPKcy
0000000000010930 T __ZN4llvm7hashing6detail10hash_state8finalizeEm
0000000000010600 T __ZN4llvm7hashing6detail13hash_16_bytesEyy
0000000000010e80 T __ZN4llvm7hashing6detail15hash_1to3_bytesEPKcmy
00000000000109e0 T __ZN4llvm7hashing6detail15hash_4to8_bytesEPKcmy
0000000000010a50 T __ZN4llvm7hashing6detail16hash_9to16_bytesEPKcmy
000000000000ffe0 T __ZN4llvm7hashing6detail17get_hashable_dataIyEENSt3__19enable_ifIXsr16is_hashable_dataIT_EE5valueES5_E4typeERKS5_
0000000000010ac0 T __ZN4llvm7hashing6detail17hash_17to32_bytesEPKcmy
0000000000010be0 T __ZN4llvm7hashing6detail17hash_33to64_bytesEPKcmy
00000000000102a0 T __ZN4llvm7hashing6detail17store_and_advanceIyEEbRPcS3_RKT_m
000000000000fe20 T __ZN4llvm7hashing6detail18get_execution_seedEv
                 U __ZN4llvm7hashing6detail19fixed_seed_overrideE
0000000000011500 T __ZN4llvm7hashing6detail23hash_combine_range_implIyEENSt3__19enable_ifIXsr16is_hashable_dataIT_EE5valueENS_9hash_codeEE4typeEPS5_S9_
000000000000fec0 T __ZN4llvm7hashing6detail29hash_combine_recursive_helper12combine_dataIyEEPcRmS4_S4_T_
0000000000010000 T __ZN4llvm7hashing6detail29hash_combine_recursive_helper7combineEmPcS3_
000000000000fd70 T __ZN4llvm7hashing6detail29hash_combine_recursive_helper7combineIyJEEENS_9hash_codeEmPcS5_RKT_DpRKT0_
000000000000fd50 T __ZN4llvm7hashing6detail29hash_combine_recursive_helperC1Ev
000000000000fdf0 T __ZN4llvm7hashing6detail29hash_combine_recursive_helperC2Ev
0000000000010670 T __ZN4llvm7hashing6detail6rotateEym
0000000000010f50 T __ZN4llvm7hashing6detail7fetch32EPKc
00000000000106f0 T __ZN4llvm7hashing6detail7fetch64EPKc
00000000000106d0 T __ZN4llvm7hashing6detail9shift_mixEy
0000000000005540 T __ZN4llvm8APIntOps18RoundDoubleToAPIntEdj
00000000000051e0 T __ZN4llvm8APIntOps21GreatestCommonDivisorENS_5APIntES1_
000000000000fcf0 T __ZN4llvm8ArrayRefIyEC1EPKym
000000000000fd20 T __ZN4llvm8ArrayRefIyEC2EPKym
                 U __ZN4llvm9DebugFlagE
0000000000010900 T __ZN4llvm9hash_codeC1Em
0000000000010f70 T __ZN4llvm9hash_codeC2Em
0000000000012df0 s __ZN4llvmL18BitReverseTable256E
00000000000077a0 T __ZN4llvmmiENS_5APIntERKS0_
00000000000089d0 T __ZN4llvmmiENS_5APIntEy
0000000000008970 T __ZN4llvmmiERKNS_5APIntEOS0_
0000000000005770 T __ZN4llvmngENS_5APIntE
0000000000006ba0 T __ZN4llvmorERKNS_5APIntEOS0_
00000000000073e0 T __ZN4llvmplENS_5APIntERKS0_
0000000000007720 T __ZN4llvmplENS_5APIntEy
0000000000008920 T __ZN4llvmplERKNS_5APIntEOS0_
000000000000e110 T __ZNK4llvm11SmallStringILj40EE3strEv
000000000000fb20 T __ZNK4llvm25SmallVectorTemplateCommonIcvE4dataEv
000000000000fa30 T __ZNK4llvm25SmallVectorTemplateCommonIcvE7isSmallEv
0000000000003150 T __ZNK4llvm5APInt10getRawDataEv
0000000000002890 T __ZNK4llvm5APInt10isNegativeEv
00000000000061b0 T __ZNK4llvm5APInt10sextOrSelfEj
0000000000004060 T __ZNK4llvm5APInt10zextOrSelfEj
0000000000003210 T __ZNK4llvm5APInt11extractBitsEjj
0000000000000f30 T __ZNK4llvm5APInt11getBitWidthEv
0000000000000170 T __ZNK4llvm5APInt11getNumWordsEv
0000000000004c30 T __ZNK4llvm5APInt11reverseBitsEv
0000000000006130 T __ZNK4llvm5APInt11sextOrTruncEj
00000000000060b0 T __ZNK4llvm5APInt11zextOrTruncEj
000000000000e030 T __ZNK4llvm5APInt12getBoolValueEv
000000000000de70 T __ZNK4llvm5APInt12getSExtValueEv
000000000000c000 T __ZNK4llvm5APInt12getZExtValueEv
0000000000000560 T __ZNK4llvm5APInt12isSingleWordEv
000000000000f100 T __ZNK4llvm5APInt12needsCleanupEv
00000000000023a0 T __ZNK4llvm5APInt13EqualSlowCaseERKS0_
0000000000002620 T __ZNK4llvm5APInt13compareSignedERKS0_
0000000000005b20 T __ZNK4llvm5APInt13getActiveBitsEv
000000000000cb20 T __ZNK4llvm5APInt13isNonNegativeEv
00000000000057b0 T __ZNK4llvm5APInt13roundToDoubleEb
000000000000ce90 T __ZNK4llvm5APInt14isAllOnesValueEv
000000000000e310 T __ZNK4llvm5APInt14toStringSignedERNS_15SmallVectorImplIcEEj
0000000000006340 T __ZNK4llvm5APInt15getLimitedValueEy
000000000000d2f0 T __ZNK4llvm5APInt16countLeadingOnesEv
000000000000f660 T __ZNK4llvm5APInt16getMinSignedBitsEv
000000000000cde0 T __ZNK4llvm5APInt16isMinSignedValueEv
000000000000e2e0 T __ZNK4llvm5APInt16toStringUnsignedERNS_15SmallVectorImplIcEEj
000000000000d280 T __ZNK4llvm5APInt17countLeadingZerosEv
0000000000005410 T __ZNK4llvm5APInt18countTrailingZerosEv
0000000000004750 T __ZNK4llvm5APInt18intersectsSlowCaseERKS0_
00000000000047e0 T __ZNK4llvm5APInt18isSubsetOfSlowCaseERKS0_
00000000000077f0 T __ZNK4llvm5APInt21multiplicativeInverseERKS0_
00000000000046c0 T __ZNK4llvm5APInt23countPopulationSlowCaseEv
00000000000042c0 T __ZNK4llvm5APInt24countLeadingOnesSlowCaseEv
00000000000041b0 T __ZNK4llvm5APInt25countLeadingZerosSlowCaseEv
0000000000004580 T __ZNK4llvm5APInt25countTrailingOnesSlowCaseEv
0000000000004410 T __ZNK4llvm5APInt26countTrailingZerosSlowCaseEv
00000000000088a0 T __ZNK4llvm5APInt3absEv
000000000000f600 T __ZNK4llvm5APInt3shlERKS0_
0000000000006bf0 T __ZNK4llvm5APInt3shlEj
0000000000008d00 T __ZNK4llvm5APInt3ugeERKS0_
000000000000d250 T __ZNK4llvm5APInt3ugeEy
0000000000005510 T __ZNK4llvm5APInt3ugtERKS0_
000000000000d450 T __ZNK4llvm5APInt3ugtEy
00000000000073b0 T __ZNK4llvm5APInt3uleERKS0_
0000000000007770 T __ZNK4llvm5APInt3ultERKS0_
000000000000bab0 T __ZNK4llvm5APInt3ultEy
000000000000e1e0 T __ZNK4llvm5APInt4dumpEv
0000000000003d60 T __ZNK4llvm5APInt4lshrEj
0000000000006a80 T __ZNK4llvm5APInt4rotlERKS0_
0000000000003c80 T __ZNK4llvm5APInt4rotlEj
0000000000006c50 T __ZNK4llvm5APInt4rotrERKS0_
0000000000006ca0 T __ZNK4llvm5APInt4rotrEj
000000000000bb20 T __ZNK4llvm5APInt4sdivERKS0_
000000000000bd10 T __ZNK4llvm5APInt4sdivEx
0000000000005d20 T __ZNK4llvm5APInt4sextEj
0000000000006d50 T __ZNK4llvm5APInt4sqrtEv
000000000000c0b0 T __ZNK4llvm5APInt4sremERKS0_
000000000000c2a0 T __ZNK4llvm5APInt4sremEx
0000000000007430 T __ZNK4llvm5APInt4udivERKS0_
000000000000b8b0 T __ZNK4llvm5APInt4udivEy
0000000000008a20 T __ZNK4llvm5APInt4uremERKS0_
000000000000be70 T __ZNK4llvm5APInt4uremEy
0000000000005f40 T __ZNK4llvm5APInt4zextEj
0000000000008000 T __ZNK4llvm5APInt5magicEv
000000000000e490 T __ZNK4llvm5APInt5printERNS_11raw_ostreamEb
0000000000005b50 T __ZNK4llvm5APInt5truncEj
0000000000008dc0 T __ZNK4llvm5APInt6magicuEj
0000000000000f50 T __ZNK4llvm5APInt7ProfileERNS_16FoldingSetNodeIDE
0000000000002480 T __ZNK4llvm5APInt7compareERKS0_
00000000000031a0 T __ZNK4llvm5APInt7getWordEj
0000000000003b00 T __ZNK4llvm5APInt7isSplatEj
000000000000ca30 T __ZNK4llvm5APInt7sadd_ovERKS0_Rb
000000000000cd60 T __ZNK4llvm5APInt7sdiv_ovERKS0_Rb
000000000000cf10 T __ZNK4llvm5APInt7smul_ovERKS0_Rb
000000000000d150 T __ZNK4llvm5APInt7sshl_ovERKS0_Rb
000000000000cbe0 T __ZNK4llvm5APInt7ssub_ovERKS0_Rb
000000000000cb50 T __ZNK4llvm5APInt7uadd_ovERKS0_Rb
000000000000d030 T __ZNK4llvm5APInt7umul_ovERKS0_Rb
000000000000d390 T __ZNK4llvm5APInt7ushl_ovERKS0_Rb
000000000000ccd0 T __ZNK4llvm5APInt7usub_ovERKS0_Rb
0000000000004880 T __ZNK4llvm5APInt8byteSwapEv
0000000000003970 T __ZNK4llvm5APInt8logBase2Ev
000000000000d5b0 T __ZNK4llvm5APInt8toStringERNS_15SmallVectorImplIcEEjbb
000000000000e060 T __ZNK4llvm5APInt8toStringEjb
0000000000003d30 T __ZNK4llvm5APInt9getHiBitsEj
0000000000003dc0 T __ZNK4llvm5APInt9getLoBitsEj
0000000000003bb0 T __ZNK4llvm5APInteqERKS0_
0000000000008d30 T __ZNK4llvm5APInteqEy
0000000000002b60 T __ZNK4llvm5APIntixEj
000000000000d360 T __ZNK4llvm5APIntlsERKS0_
00000000000040c0 T __ZNK4llvm5APIntlsEj
0000000000001760 T __ZNK4llvm5APIntmlERKS0_
00000000000054e0 T __ZNK4llvm5APIntneERKS0_
0000000000005050 T __ZNK4llvm5APIntneEy
00000000000053a0 T __ZNK4llvm5APIntntEv
0000000000000540 T __ZNK4llvm8ArrayRefIyE4dataEv
0000000000000610 T __ZNK4llvm8ArrayRefIyE4sizeEv
0000000000000580 T __ZNK4llvm8ArrayRefIyEixEm
000000000000d4b0 T __ZNK4llvm9StringRef3endEv
000000000000f7d0 T __ZNK4llvm9StringRef3strEv
0000000000003950 T __ZNK4llvm9StringRef5beginEv
000000000000e190 T __ZNK4llvm9StringRefcvNSt3__112basic_stringIcNS1_11char_traitsIcEENS1_9allocatorIcEEEEEv
0000000000011250 T __ZNSt3__112__rotate_gcdIPcEET_S2_S2_S2_
                 U __ZNSt3__112basic_stringIcNS_11char_traitsIcEENS_9allocatorIcEEE6__initEPKcm
0000000000010f90 T __ZNSt3__113__rotate_leftIPcEET_S2_S2_
00000000000110e0 T __ZNSt3__114__rotate_rightIPcEET_S2_S2_
0000000000012ef0 D __ZZN4llvm7hashing6detail18get_execution_seedEvE4seed
0000000000012da0 s __ZZNK4llvm5APInt4sqrtEvE7results
0000000000012dc0 s __ZZNK4llvm5APInt8toStringERNS_15SmallVectorImplIcEEjbbE6Digits
                 U __ZdaPv
                 U __Znam
                 U ___assert_rtn
                 U ___cxa_guard_acquire
                 U ___cxa_guard_release
                 U ___stack_chk_fail
                 U ___stack_chk_guard
                 U _abort
                 U _free
                 U _memcpy
                 U _memmove
                 U _memset
                 U _round
                 U _strlen

libLLVMSupport.a(APSInt.o):
                 U __ZN4llvm16FoldingSetNodeID10AddIntegerEj
00000000000008b0 T __ZN4llvm16countLeadingOnesIyEEmT_NS_12ZeroBehaviorE
00000000000008e0 T __ZN4llvm17countLeadingZerosIyEEmT_NS_12ZeroBehaviorE
                 U __ZN4llvm5APInt12initSlowCaseERKS0_
00000000000007a0 T __ZN4llvm5APInt7maskBitEj
0000000000000850 T __ZN4llvm5APInt8whichBitEj
0000000000000890 T __ZN4llvm5APInt9whichWordEj
00000000000004b0 T __ZN4llvm5APIntC1ERKS0_
                 U __ZN4llvm5APIntC1EjNS_9StringRefEh
0000000000000a90 T __ZN4llvm5APIntC2EOS0_
00000000000009f0 T __ZN4llvm5APIntC2ERKS0_
00000000000002b0 T __ZN4llvm5APIntC2Ev
0000000000000490 T __ZN4llvm5APIntD1Ev
0000000000000960 T __ZN4llvm5APIntD2Ev
00000000000003c0 T __ZN4llvm5APIntaSEOS0_
00000000000004e0 T __ZN4llvm6APSIntC1ENS_5APIntEb
00000000000005b0 T __ZN4llvm6APSIntC1ENS_9StringRefE
0000000000000a50 T __ZN4llvm6APSIntC2ENS_5APIntEb
0000000000000000 T __ZN4llvm6APSIntC2ENS_9StringRefE
0000000000000560 T __ZN4llvm6APSIntD1Ev
0000000000000ad0 T __ZN4llvm6APSIntD2Ev
0000000000000510 T __ZN4llvm6APSIntaSEOS0_
0000000000000910 T __ZN4llvm6detail19LeadingZerosCounterIyLm8EE5countEyNS_12ZeroBehaviorE
0000000000000630 T __ZNK4llvm5APInt10isNegativeEv
0000000000000780 T __ZNK4llvm5APInt11getBitWidthEv
0000000000000870 T __ZNK4llvm5APInt12isSingleWordEv
00000000000009c0 T __ZNK4llvm5APInt12needsCleanupEv
0000000000000580 T __ZNK4llvm5APInt13getActiveBitsEv
0000000000000660 T __ZNK4llvm5APInt16countLeadingOnesEv
0000000000000360 T __ZNK4llvm5APInt16getMinSignedBitsEv
0000000000000af0 T __ZNK4llvm5APInt17countLeadingZerosEv
                 U __ZNK4llvm5APInt24countLeadingOnesSlowCaseEv
                 U __ZNK4llvm5APInt25countLeadingZerosSlowCaseEv
                 U __ZNK4llvm5APInt5truncEj
                 U __ZNK4llvm5APInt7ProfileERNS_16FoldingSetNodeIDE
00000000000007e0 T __ZNK4llvm5APInt7getWordEj
00000000000006d0 T __ZNK4llvm5APIntixEj
00000000000005e0 T __ZNK4llvm6APSInt7ProfileERNS_16FoldingSetNodeIDE
00000000000002d0 T __ZNK4llvm9StringRefixEm
                 U __ZdaPv
                 U ___assert_rtn

libLLVMSupport.a(ARMAttributeParser.o):
000000000000bdd0 s __GLOBAL__sub_I_ARMAttributeParser.cpp
000000000005c5d0 b __ZL8TagNames
00000000000085e0 T __ZN4llvm11SmallVectorIhLj8EEC1Ev
000000000000ba60 T __ZN4llvm11SmallVectorIhLj8EEC2Ev
0000000000008ae0 T __ZN4llvm11SmallVectorIhLj8EED1Ev
00000000000092f0 T __ZN4llvm11SmallVectorIhLj8EED2Ev
                 U __ZN4llvm11raw_ostream5writeEPKcm
                 U __ZN4llvm11raw_ostream5writeEh
00000000000071a0 T __ZN4llvm11raw_ostreamlsENS_9StringRefE
0000000000007100 T __ZN4llvm11raw_ostreamlsEPKc
0000000000008600 T __ZN4llvm11raw_ostreamlsERKNSt3__112basic_stringIcNS1_11char_traitsIcEENS1_9allocatorIcEEEE
0000000000007260 T __ZN4llvm11raw_ostreamlsEc
000000000000bb50 T __ZN4llvm11raw_ostreamlsEh
0000000000008de0 T __ZN4llvm11raw_ostreamlsEi
0000000000008cf0 T __ZN4llvm11raw_ostreamlsEj
                 U __ZN4llvm11raw_ostreamlsEl
                 U __ZN4llvm11raw_ostreamlsEm
                 U __ZN4llvm11raw_ostreamlsEy
00000000000085b0 T __ZN4llvm12makeArrayRefINS_9EnumEntryIjEELm3EEENS_8ArrayRefIT_EERAT0__KS4_
                 U __ZN4llvm13ARMBuildAttrs16AttrTypeAsStringENS0_8AttrTypeEb
                 U __ZN4llvm13ARMBuildAttrs16AttrTypeAsStringEjb
000000000000aa70 T __ZN4llvm13ScopedPrinter10getOStreamEv
0000000000009210 T __ZN4llvm13ScopedPrinter11printIndentEv
0000000000006550 T __ZN4llvm13ScopedPrinter11printNumberENS_9StringRefEi
0000000000006de0 T __ZN4llvm13ScopedPrinter11printNumberENS_9StringRefEj
0000000000006490 T __ZN4llvm13ScopedPrinter11printNumberENS_9StringRefEy
00000000000065d0 T __ZN4llvm13ScopedPrinter11printStringENS_9StringRefES1_
000000000000b9e0 T __ZN4llvm13ScopedPrinter3hexIhEENS_9HexNumberET_
0000000000008d20 T __ZN4llvm13ScopedPrinter6indentEi
0000000000008d40 T __ZN4llvm13ScopedPrinter8unindentEi
0000000000008390 T __ZN4llvm13ScopedPrinter9printEnumIhjEEvNS_9StringRefET_NS_8ArrayRefINS_9EnumEntryIT0_EEEE
00000000000089c0 T __ZN4llvm13ScopedPrinter9printListINS_11SmallVectorIhLj8EEEEEvNS_9StringRefERKT_
00000000000070d0 T __ZN4llvm13ScopedPrinter9startLineEv
0000000000005f10 T __ZN4llvm13decodeULEB128EPKhPjS1_PPKc
0000000000006510 T __ZN4llvm14DelimitedScopeILc123ELc125EEC1ERNS_13ScopedPrinterENS_9StringRefE
000000000000a9b0 T __ZN4llvm14DelimitedScopeILc123ELc125EEC2ERNS_13ScopedPrinterENS_9StringRefE
0000000000006660 T __ZN4llvm14DelimitedScopeILc123ELc125EED1Ev
000000000000aa90 T __ZN4llvm14DelimitedScopeILc123ELc125EED2Ev
0000000000007640 T __ZN4llvm14array_lengthofIKNS_18ARMAttributeParser14DisplayHandlerELm38EEEmRAT0__T_
0000000000006e60 T __ZN4llvm14array_lengthofIKPKcLm15EEEmRAT0__T_
0000000000006e90 T __ZN4llvm14array_lengthofIKPKcLm2EEEmRAT0__T_
0000000000006ea0 T __ZN4llvm14array_lengthofIKPKcLm3EEEmRAT0__T_
0000000000006ee0 T __ZN4llvm14array_lengthofIKPKcLm4EEEmRAT0__T_
0000000000006ec0 T __ZN4llvm14array_lengthofIKPKcLm5EEEmRAT0__T_
00000000000070c0 T __ZN4llvm14array_lengthofIKPKcLm7EEEmRAT0__T_
0000000000006ed0 T __ZN4llvm14array_lengthofIKPKcLm8EEEmRAT0__T_
0000000000006eb0 T __ZN4llvm14array_lengthofIKPKcLm9EEEmRAT0__T_
                 U __ZN4llvm15SmallVectorBase8grow_podEPvmm
000000000000bb10 T __ZN4llvm15SmallVectorBaseC2EPvm
000000000000ba80 T __ZN4llvm15SmallVectorImplIhEC2Ej
0000000000009310 T __ZN4llvm15SmallVectorImplIhED2Ev
0000000000001050 T __ZN4llvm18ARMAttributeParser10PCS_configENS_13ARMBuildAttrs8AttrTypeEPKhRj
0000000000005dd0 T __ZN4llvm18ARMAttributeParser10nodefaultsENS_13ARMBuildAttrs8AttrTypeEPKhRj
0000000000000a60 T __ZN4llvm18ARMAttributeParser11ARM_ISA_useENS_13ARMBuildAttrs8AttrTypeEPKhRj
00000000000060a0 T __ZN4llvm18ARMAttributeParser11ParseStringEPKhRj
00000000000047c0 T __ZN4llvm18ARMAttributeParser12ABI_VFP_argsENS_13ARMBuildAttrs8AttrTypeEPKhRj
0000000000005eb0 T __ZN4llvm18ARMAttributeParser12ParseIntegerEPKhRj
00000000000048f0 T __ZN4llvm18ARMAttributeParser13ABI_WMMX_argsENS_13ARMBuildAttrs8AttrTypeEPKhRj
0000000000004560 T __ZN4llvm18ARMAttributeParser13ABI_enum_sizeENS_13ARMBuildAttrs8AttrTypeEPKhRj
0000000000005a40 T __ZN4llvm18ARMAttributeParser13DSP_extensionENS_13ARMBuildAttrs8AttrTypeEPKhRj
0000000000000b90 T __ZN4llvm18ARMAttributeParser13THUMB_ISA_useENS_13ARMBuildAttrs8AttrTypeEPKhRj
0000000000004c80 T __ZN4llvm18ARMAttributeParser13compatibilityENS_13ARMBuildAttrs8AttrTypeEPKhRj
0000000000004690 T __ZN4llvm18ARMAttributeParser14ABI_HardFP_useENS_13ARMBuildAttrs8AttrTypeEPKhRj
0000000000001180 T __ZN4llvm18ARMAttributeParser14ABI_PCS_R9_useENS_13ARMBuildAttrs8AttrTypeEPKhRj
00000000000072d0 T __ZN4llvm18ARMAttributeParser14ParseIndexListEPKhRjRNS_15SmallVectorImplIhEE
0000000000006680 T __ZN4llvm18ARMAttributeParser14PrintAttributeEjjNS_9StringRefE
00000000000018a0 T __ZN4llvm18ARMAttributeParser15ABI_FP_denormalENS_13ARMBuildAttrs8AttrTypeEPKhRj
0000000000001770 T __ZN4llvm18ARMAttributeParser15ABI_FP_roundingENS_13ARMBuildAttrs8AttrTypeEPKhRj
0000000000001510 T __ZN4llvm18ARMAttributeParser15ABI_PCS_GOT_useENS_13ARMBuildAttrs8AttrTypeEPKhRj
00000000000013e0 T __ZN4llvm18ARMAttributeParser15ABI_PCS_RO_dataENS_13ARMBuildAttrs8AttrTypeEPKhRj
00000000000012b0 T __ZN4llvm18ARMAttributeParser15ABI_PCS_RW_dataENS_13ARMBuildAttrs8AttrTypeEPKhRj
0000000000001640 T __ZN4llvm18ARMAttributeParser15ABI_PCS_wchar_tENS_13ARMBuildAttrs8AttrTypeEPKhRj
000000000000c450 S __ZN4llvm18ARMAttributeParser15DisplayRoutinesE
0000000000005580 T __ZN4llvm18ARMAttributeParser15FP_HP_extensionENS_13ARMBuildAttrs8AttrTypeEPKhRj
00000000000057e0 T __ZN4llvm18ARMAttributeParser15MPextension_useENS_13ARMBuildAttrs8AttrTypeEPKhRj
0000000000007650 T __ZN4llvm18ARMAttributeParser15ParseSubsectionEPKhj
0000000000000040 T __ZN4llvm18ARMAttributeParser15StringAttributeENS_13ARMBuildAttrs8AttrTypeEPKhRj
0000000000001d60 T __ZN4llvm18ARMAttributeParser16ABI_align_neededENS_13ARMBuildAttrs8AttrTypeEPKhRj
0000000000000530 T __ZN4llvm18ARMAttributeParser16CPU_arch_profileENS_13ARMBuildAttrs8AttrTypeEPKhRj
0000000000006140 T __ZN4llvm18ARMAttributeParser16IntegerAttributeENS_13ARMBuildAttrs8AttrTypeEPKhRj
00000000000019d0 T __ZN4llvm18ARMAttributeParser17ABI_FP_exceptionsENS_13ARMBuildAttrs8AttrTypeEPKhRj
0000000000000f20 T __ZN4llvm18ARMAttributeParser18Advanced_SIMD_archENS_13ARMBuildAttrs8AttrTypeEPKhRj
00000000000073e0 T __ZN4llvm18ARMAttributeParser18ParseAttributeListEPKhRjj
0000000000005ca0 T __ZN4llvm18ARMAttributeParser18Virtualization_useENS_13ARMBuildAttrs8AttrTypeEPKhRj
00000000000056b0 T __ZN4llvm18ARMAttributeParser19ABI_FP_16bit_formatENS_13ARMBuildAttrs8AttrTypeEPKhRj
0000000000001c30 T __ZN4llvm18ARMAttributeParser19ABI_FP_number_modelENS_13ARMBuildAttrs8AttrTypeEPKhRj
0000000000003160 T __ZN4llvm18ARMAttributeParser19ABI_align_preservedENS_13ARMBuildAttrs8AttrTypeEPKhRj
0000000000005450 T __ZN4llvm18ARMAttributeParser20CPU_unaligned_accessENS_13ARMBuildAttrs8AttrTypeEPKhRj
0000000000001b00 T __ZN4llvm18ARMAttributeParser22ABI_FP_user_exceptionsENS_13ARMBuildAttrs8AttrTypeEPKhRj
0000000000004a20 T __ZN4llvm18ARMAttributeParser22ABI_optimization_goalsENS_13ARMBuildAttrs8AttrTypeEPKhRj
0000000000004b50 T __ZN4llvm18ARMAttributeParser25ABI_FP_optimization_goalsENS_13ARMBuildAttrs8AttrTypeEPKhRj
0000000000008b00 T __ZN4llvm18ARMAttributeParser5ParseENS_8ArrayRefIhEEb
0000000000005910 T __ZN4llvm18ARMAttributeParser7DIV_useENS_13ARMBuildAttrs8AttrTypeEPKhRj
0000000000000cc0 T __ZN4llvm18ARMAttributeParser7FP_archENS_13ARMBuildAttrs8AttrTypeEPKhRj
0000000000000400 T __ZN4llvm18ARMAttributeParser8CPU_archENS_13ARMBuildAttrs8AttrTypeEPKhRj
0000000000005b70 T __ZN4llvm18ARMAttributeParser8T2EE_useENS_13ARMBuildAttrs8AttrTypeEPKhRj
0000000000000df0 T __ZN4llvm18ARMAttributeParser9WMMX_archENS_13ARMBuildAttrs8AttrTypeEPKhRj
0000000000009380 T __ZN4llvm23SmallVectorTemplateBaseIhLb1EE13destroy_rangeEPhS2_
000000000000b880 T __ZN4llvm23SmallVectorTemplateBaseIhLb1EE4growEm
0000000000007360 T __ZN4llvm23SmallVectorTemplateBaseIhLb1EE9push_backERKh
000000000000bab0 T __ZN4llvm23SmallVectorTemplateBaseIhLb1EEC2Em
000000000000b8c0 T __ZN4llvm25SmallVectorTemplateCommonIhvE6setEndEPh
000000000000b8e0 T __ZN4llvm25SmallVectorTemplateCommonIhvE8grow_podEmm
000000000000bae0 T __ZN4llvm25SmallVectorTemplateCommonIhvEC2Em
0000000000009500 T __ZN4llvm3sys13swapByteOrderIjEEvRT_
0000000000009530 T __ZN4llvm3sys15getSwappedBytesEj
0000000000009550 T __ZN4llvm3sys16SwapByteOrder_32Ej
                 U __ZN4llvm4errsEv
00000000000094f0 T __ZN4llvm7support6endian17system_endiannessEv
0000000000009420 T __ZN4llvm7support6endian4readIjLNS0_10endiannessE0EEET_PKv
0000000000009460 T __ZN4llvm7support6endian4readIjLNS0_10endiannessE0ELm1EEET_PKv
00000000000093e0 T __ZN4llvm7support6endian4readIjLNS0_10endiannessE1EEET_PKv
000000000000b920 T __ZN4llvm7support6endian4readIjLNS0_10endiannessE1ELm1EEET_PKv
0000000000009480 T __ZN4llvm7support6endian4readIjLm1EEET_PKvNS0_10endiannessE
0000000000009400 T __ZN4llvm7support6endian6read32ILNS0_10endiannessE0EEEjPKv
00000000000093c0 T __ZN4llvm7support6endian6read32ILNS0_10endiannessE1EEEjPKv
0000000000008cd0 T __ZN4llvm7support6endian8read32beEPKv
0000000000008c90 T __ZN4llvm7support6endian8read32leEPKv
00000000000094b0 T __ZN4llvm7support6endian9byte_swapIjEET_S3_NS0_10endiannessE
000000000000b940 T __ZN4llvm8ArrayRefINS_9EnumEntryIjEEEC1ILm3EEERAT__KS2_
000000000000b970 T __ZN4llvm8ArrayRefINS_9EnumEntryIjEEEC2ILm3EEERAT__KS2_
0000000000000000 T __ZN4llvm9EnumEntryIjEC1ENS_9StringRefEj
0000000000009560 T __ZN4llvm9EnumEntryIjEC2ENS_9StringRefEj
000000000000ba10 T __ZN4llvm9HexNumberC1Eh
000000000000ba40 T __ZN4llvm9HexNumberC2Eh
0000000000006e70 T __ZN4llvm9StringRefC1Ev
0000000000008e10 T __ZN4llvm9StringRefC2Ev
0000000000006ef0 t __ZN4llvmL6utostrEyb
0000000000009290 t __ZN4llvmL8hexdigitEjb
00000000000087f0 t __ZN4llvmL9utohexstrEyb
                 U __ZN4llvmlsERNS_11raw_ostreamERKNS_9HexNumberE
00000000000089a0 T __ZNK4llvm15SmallVectorBase5emptyEv
0000000000009390 T __ZNK4llvm25SmallVectorTemplateCommonIhvE7isSmallEv
0000000000009440 T __ZNK4llvm7support6detail31packed_endian_specific_integralIjLNS0_10endiannessE0ELm1EEcvjEv
0000000000008370 T __ZNK4llvm7support6detail31packed_endian_specific_integralIjLNS0_10endiannessE1ELm1EEcvjEv
000000000000b9c0 T __ZNK4llvm8ArrayRefINS_9EnumEntryIjEEE3endEv
000000000000b9a0 T __ZNK4llvm8ArrayRefINS_9EnumEntryIjEEE5beginEv
0000000000008cb0 T __ZNK4llvm8ArrayRefIhE4dataEv
0000000000008c70 T __ZNK4llvm8ArrayRefIhE4sizeEv
                 U __ZNK4llvm9StringRef5lowerEv
                 U __ZNKSt3__112basic_stringIcNS_11char_traitsIcEENS_9allocatorIcEEE7compareEmmPKcm
                 U __ZNKSt3__121__basic_string_commonILb1EE20__throw_length_errorEv
000000000000a420 T __ZNKSt3__16__treeINS_12__value_typeIjjEENS_19__map_value_compareIjS2_NS_4lessIjEELb1EEENS_9allocatorIS2_EEE10__root_ptrEv
00000000000091f0 T __ZNSt3__111char_traitsIcE6assignERcRKc
000000000000b860 T __ZNSt3__111char_traitsIcE6lengthEPKc
                 U __ZNSt3__112basic_stringIcNS_11char_traitsIcEENS_9allocatorIcEEE6__initEPKcm
0000000000008e30 T __ZNSt3__112basic_stringIcNS_11char_traitsIcEENS_9allocatorIcEEE6__initIPcEENS_9enable_ifIXsr21__is_forward_iteratorIT_EE5valueEvE4typeES9_S9_
                 U __ZNSt3__112basic_stringIcNS_11char_traitsIcEENS_9allocatorIcEEE6appendEPKcm
                 U __ZNSt3__112basic_stringIcNS_11char_traitsIcEENS_9allocatorIcEEE6assignEPKc
                 U __ZNSt3__112basic_stringIcNS_11char_traitsIcEENS_9allocatorIcEEE7reserveEm
                 U __ZNSt3__112basic_stringIcNS_11char_traitsIcEENS_9allocatorIcEEED1Ev
000000000000a7f0 T __ZNSt3__118__tree_left_rotateIPNS_16__tree_node_baseIPvEEEEvT_
000000000000a8d0 T __ZNSt3__119__tree_right_rotateIPNS_16__tree_node_baseIPvEEEEvT_
000000000000a470 T __ZNSt3__127__tree_balance_after_insertIPNS_16__tree_node_baseIPvEEEEvT_S5_
0000000000009ff0 T __ZNSt3__16__treeINS_12__value_typeIjjEENS_19__map_value_compareIjS2_NS_4lessIjEELb1EEENS_9allocatorIS2_EEE12__find_equalIS2_EERPNS_16__tree_node_baseIPvEERPNS_15__tree_end_nodeISE_EERKT_
000000000000aed0 T __ZNSt3__16__treeINS_12__value_typeIjjEENS_19__map_value_compareIjS2_NS_4lessIjEELb1EEENS_9allocatorIS2_EEE12__find_equalIjEERPNS_16__tree_node_baseIPvEERPNS_15__tree_end_nodeISE_EERKT_
0000000000009990 T __ZNSt3__16__treeINS_12__value_typeIjjEENS_19__map_value_compareIjS2_NS_4lessIjEELb1EEENS_9allocatorIS2_EEE16__construct_nodeIJNS_4pairIN4llvm13ARMBuildAttrs8AttrTypeEyEEEEENS_10unique_ptrINS_11__tree_nodeIS2_PvEENS_22__tree_node_destructorINS7_ISJ_EEEEEEDpOT_
000000000000b200 T __ZNSt3__16__treeINS_12__value_typeIjjEENS_19__map_value_compareIjS2_NS_4lessIjEELb1EEENS_9allocatorIS2_EEE16__construct_nodeIJNS_4pairIjjEEEEENS_10unique_ptrINS_11__tree_nodeIS2_PvEENS_22__tree_node_destructorINS7_ISG_EEEEEEDpOT_
000000000000a320 T __ZNSt3__16__treeINS_12__value_typeIjjEENS_19__map_value_compareIjS2_NS_4lessIjEELb1EEENS_9allocatorIS2_EEE16__insert_node_atEPNS_15__tree_end_nodeIPNS_16__tree_node_baseIPvEEEERSE_SE_
00000000000095a0 T __ZNSt3__16__treeINS_12__value_typeIjjEENS_19__map_value_compareIjS2_NS_4lessIjEELb1EEENS_9allocatorIS2_EEE21__emplace_unique_implIJNS_4pairIN4llvm13ARMBuildAttrs8AttrTypeEyEEEEENSB_INS_15__tree_iteratorIS2_PNS_11__tree_nodeIS2_PvEElEEbEEDpOT_
000000000000aaf0 T __ZNSt3__16__treeINS_12__value_typeIjjEENS_19__map_value_compareIjS2_NS_4lessIjEELb1EEENS_9allocatorIS2_EEE25__emplace_unique_key_argsIjJNS_4pairIjjEEEEENSB_INS_15__tree_iteratorIS2_PNS_11__tree_nodeIS2_PvEElEEbEERKT_DpOT0_
000000000000c930 s __ZZN4llvm18ARMAttributeParser10PCS_configENS_13ARMBuildAttrs8AttrTypeEPKhRjE7Strings
000000000000c860 s __ZZN4llvm18ARMAttributeParser11ARM_ISA_useENS_13ARMBuildAttrs8AttrTypeEPKhRjE7Strings
000000000000cb10 s __ZZN4llvm18ARMAttributeParser12ABI_VFP_argsENS_13ARMBuildAttrs8AttrTypeEPKhRjE7Strings
000000000000cb30 s __ZZN4llvm18ARMAttributeParser13ABI_WMMX_argsENS_13ARMBuildAttrs8AttrTypeEPKhRjE7Strings
000000000000cad0 s __ZZN4llvm18ARMAttributeParser13ABI_enum_sizeENS_13ARMBuildAttrs8AttrTypeEPKhRjE7Strings
000000000000cc40 s __ZZN4llvm18ARMAttributeParser13DSP_extensionENS_13ARMBuildAttrs8AttrTypeEPKhRjE7Strings
000000000000c870 s __ZZN4llvm18ARMAttributeParser13THUMB_ISA_useENS_13ARMBuildAttrs8AttrTypeEPKhRjE7Strings
000000000000caf0 s __ZZN4llvm18ARMAttributeParser14ABI_HardFP_useENS_13ARMBuildAttrs8AttrTypeEPKhRjE7Strings
000000000000c970 s __ZZN4llvm18ARMAttributeParser14ABI_PCS_R9_useENS_13ARMBuildAttrs8AttrTypeEPKhRjE7Strings
000000000000ca30 s __ZZN4llvm18ARMAttributeParser15ABI_FP_denormalENS_13ARMBuildAttrs8AttrTypeEPKhRjE7Strings
000000000000ca20 s __ZZN4llvm18ARMAttributeParser15ABI_FP_roundingENS_13ARMBuildAttrs8AttrTypeEPKhRjE7Strings
000000000000c9d0 s __ZZN4llvm18ARMAttributeParser15ABI_PCS_GOT_useENS_13ARMBuildAttrs8AttrTypeEPKhRjE7Strings
000000000000c9b0 s __ZZN4llvm18ARMAttributeParser15ABI_PCS_RO_dataENS_13ARMBuildAttrs8AttrTypeEPKhRjE7Strings
000000000000c990 s __ZZN4llvm18ARMAttributeParser15ABI_PCS_RW_dataENS_13ARMBuildAttrs8AttrTypeEPKhRjE7Strings
000000000000c9f0 s __ZZN4llvm18ARMAttributeParser15ABI_PCS_wchar_tENS_13ARMBuildAttrs8AttrTypeEPKhRjE7Strings
000000000000cbe0 s __ZZN4llvm18ARMAttributeParser15FP_HP_extensionENS_13ARMBuildAttrs8AttrTypeEPKhRjE7Strings
000000000000cc10 s __ZZN4llvm18ARMAttributeParser15MPextension_useENS_13ARMBuildAttrs8AttrTypeEPKhRjE7Strings
000000000000ca90 s __ZZN4llvm18ARMAttributeParser16ABI_align_neededENS_13ARMBuildAttrs8AttrTypeEPKhRjE7Strings
000000000000ca50 s __ZZN4llvm18ARMAttributeParser17ABI_FP_exceptionsENS_13ARMBuildAttrs8AttrTypeEPKhRjE7Strings
000000000000c900 s __ZZN4llvm18ARMAttributeParser18Advanced_SIMD_archENS_13ARMBuildAttrs8AttrTypeEPKhRjE7Strings
000000000000cc60 s __ZZN4llvm18ARMAttributeParser18Virtualization_useENS_13ARMBuildAttrs8AttrTypeEPKhRjE7Strings
000000000000cbf0 s __ZZN4llvm18ARMAttributeParser19ABI_FP_16bit_formatENS_13ARMBuildAttrs8AttrTypeEPKhRjE7Strings
000000000000ca70 s __ZZN4llvm18ARMAttributeParser19ABI_FP_number_modelENS_13ARMBuildAttrs8AttrTypeEPKhRjE7Strings
000000000000cab0 s __ZZN4llvm18ARMAttributeParser19ABI_align_preservedENS_13ARMBuildAttrs8AttrTypeEPKhRjE7Strings
000000000000cbd0 s __ZZN4llvm18ARMAttributeParser20CPU_unaligned_accessENS_13ARMBuildAttrs8AttrTypeEPKhRjE7Strings
000000000000ca60 s __ZZN4llvm18ARMAttributeParser22ABI_FP_user_exceptionsENS_13ARMBuildAttrs8AttrTypeEPKhRjE7Strings
000000000000cb50 s __ZZN4llvm18ARMAttributeParser22ABI_optimization_goalsENS_13ARMBuildAttrs8AttrTypeEPKhRjE7Strings
000000000000cb90 s __ZZN4llvm18ARMAttributeParser25ABI_FP_optimization_goalsENS_13ARMBuildAttrs8AttrTypeEPKhRjE7Strings
000000000000cc20 s __ZZN4llvm18ARMAttributeParser7DIV_useENS_13ARMBuildAttrs8AttrTypeEPKhRjE7Strings
000000000000c890 s __ZZN4llvm18ARMAttributeParser7FP_archENS_13ARMBuildAttrs8AttrTypeEPKhRjE7Strings
000000000000c7e0 s __ZZN4llvm18ARMAttributeParser8CPU_archENS_13ARMBuildAttrs8AttrTypeEPKhRjE7Strings
000000000000cc50 s __ZZN4llvm18ARMAttributeParser8T2EE_useENS_13ARMBuildAttrs8AttrTypeEPKhRjE7Strings
000000000000c8e0 s __ZZN4llvm18ARMAttributeParser9WMMX_archENS_13ARMBuildAttrs8AttrTypeEPKhRjE7Strings
                 U __ZdlPv
                 U __Znwm
000000000000bbc0 s ___cxx_global_var_init
                 U ___stack_chk_fail
                 U ___stack_chk_guard
                 U _abort
                 U _free
                 U _memcpy
                 U _memset
                 U _strlen

libLLVMSupport.a(ARMBuildAttrs.o):
00000000000029a0 s __GLOBAL__sub_I_ARMBuildAttrs.cpp
0000000000016150 b __ZN12_GLOBAL__N_1L16ARMAttributeTagsE
0000000000000040 T __ZN4llvm13ARMBuildAttrs16AttrTypeAsStringENS0_8AttrTypeEb
0000000000000000 T __ZN4llvm13ARMBuildAttrs16AttrTypeAsStringEjb
0000000000000450 T __ZN4llvm13ARMBuildAttrs18AttrTypeFromStringENS_9StringRefE
                 U ___assert_rtn
0000000000000a70 s ___cxx_global_var_init
                 U _memcmp
                 U _strlen

libLLVMSupport.a(ARMWinEH.o):
0000000000000580 T __ZN4llvm3ARM5WinEH15PrologueFoldingERKNS1_15RuntimeFunctionE
0000000000000000 T __ZN4llvm3ARM5WinEH17SavedRegisterMaskERKNS1_15RuntimeFunctionE
0000000000000770 T __ZN4llvm3sys13swapByteOrderIjEEvRT_
00000000000007a0 T __ZN4llvm3sys15getSwappedBytesEj
00000000000007c0 T __ZN4llvm3sys16SwapByteOrder_32Ej
0000000000000760 T __ZN4llvm7support6endian17system_endiannessEv
00000000000006d0 T __ZN4llvm7support6endian4readIjLNS0_10endiannessE1ELm1EEET_PKv
00000000000006f0 T __ZN4llvm7support6endian4readIjLm1EEET_PKvNS0_10endiannessE
0000000000000720 T __ZN4llvm7support6endian9byte_swapIjEET_S3_NS0_10endiannessE
00000000000005e0 T __ZNK4llvm3ARM5WinEH15RuntimeFunction11StackAdjustEv
00000000000003c0 T __ZNK4llvm3ARM5WinEH15RuntimeFunction1CEv
0000000000000310 T __ZNK4llvm3ARM5WinEH15RuntimeFunction1LEv
0000000000000260 T __ZNK4llvm3ARM5WinEH15RuntimeFunction1REv
00000000000001c0 T __ZNK4llvm3ARM5WinEH15RuntimeFunction3RegEv
0000000000000680 T __ZNK4llvm3ARM5WinEH15RuntimeFunction4FlagEv
00000000000006b0 T __ZNK4llvm7support6detail31packed_endian_specific_integralIjLNS0_10endiannessE1ELm1EEcvjEv
                 U ___assert_rtn

libLLVMSupport.a(Allocator.o):
                 U __ZN4llvm11raw_ostream5writeEPKcm
                 U __ZN4llvm11raw_ostream5writeEh
00000000000002b0 T __ZN4llvm11raw_ostreamlsENS_9StringRefE
00000000000000d0 T __ZN4llvm11raw_ostreamlsEPKc
00000000000001a0 T __ZN4llvm11raw_ostreamlsEc
0000000000000170 T __ZN4llvm11raw_ostreamlsEj
                 U __ZN4llvm11raw_ostreamlsEm
0000000000000210 T __ZN4llvm18PrintRecyclerStatsEmmm
                 U __ZN4llvm4errsEv
0000000000000000 T __ZN4llvm6detail26printBumpPtrAllocatorStatsEjmm
                 U _memcpy
                 U _strlen

libLLVMSupport.a(Atomic.o):
0000000000000000 T __ZN4llvm3sys11MemoryFenceEv
0000000000000010 T __ZN4llvm3sys14CompareAndSwapEPVjjj

libLLVMSupport.a(BinaryStreamError.o):
                 U __ZN4llvm11raw_ostream14flush_nonemptyEv
0000000000000fd0 T __ZN4llvm11raw_ostream5flushEv
                 U __ZN4llvm11raw_ostream5writeEPKcm
0000000000000f80 T __ZN4llvm11raw_ostreamC2Eb
0000000000000dc0 T __ZN4llvm11raw_ostreamlsENS_9StringRefE
0000000000000820 T __ZN4llvm11raw_ostreamlsEPKc
0000000000000630 T __ZN4llvm11raw_ostreamlsERKNSt3__112basic_stringIcNS1_11char_traitsIcEENS1_9allocatorIcEEEE
                 U __ZN4llvm13ErrorInfoBase2IDE
                 U __ZN4llvm13ErrorInfoBase6anchorEv
0000000000001060 T __ZN4llvm13ErrorInfoBase7classIDEv
0000000000000d20 T __ZN4llvm13ErrorInfoBaseC2Ev
0000000000000db0 T __ZN4llvm13ErrorInfoBaseD2Ev
0000000000017a55 S __ZN4llvm17BinaryStreamError2IDE
0000000000000400 T __ZN4llvm17BinaryStreamErrorC1ENS_17stream_error_codeE
00000000000004b0 T __ZN4llvm17BinaryStreamErrorC1ENS_17stream_error_codeENS_9StringRefE
0000000000000530 T __ZN4llvm17BinaryStreamErrorC1ENS_9StringRefE
0000000000000000 T __ZN4llvm17BinaryStreamErrorC2ENS_17stream_error_codeE
00000000000000b0 T __ZN4llvm17BinaryStreamErrorC2ENS_17stream_error_codeENS_9StringRefE
00000000000004f0 T __ZN4llvm17BinaryStreamErrorC2ENS_9StringRefE
0000000000000b40 T __ZN4llvm17BinaryStreamErrorD0Ev
0000000000000b20 T __ZN4llvm17BinaryStreamErrorD1Ev
0000000000000e80 T __ZN4llvm17BinaryStreamErrorD2Ev
0000000000000f00 T __ZN4llvm18raw_string_ostream3strEv
0000000000000ed0 T __ZN4llvm18raw_string_ostreamC1ERNSt3__112basic_stringIcNS1_11char_traitsIcEENS1_9allocatorIcEEEE
0000000000000f30 T __ZN4llvm18raw_string_ostreamC2ERNSt3__112basic_stringIcNS1_11char_traitsIcEENS1_9allocatorIcEEEE
                 U __ZN4llvm18raw_string_ostreamD1Ev
                 U __ZN4llvm22inconvertibleErrorCodeEv
                 U __ZN4llvm24DisableABIBreakingChecksE
0000000000001070 D __ZN4llvm30VerifyDisableABIBreakingChecksE
0000000000001010 T __ZN4llvm9ErrorInfoINS_17BinaryStreamErrorENS_13ErrorInfoBaseEE7classIDEv
0000000000000570 T __ZN4llvm9ErrorInfoINS_17BinaryStreamErrorENS_13ErrorInfoBaseEEC2Ev
0000000000000d60 T __ZN4llvm9ErrorInfoINS_17BinaryStreamErrorENS_13ErrorInfoBaseEED0Ev
0000000000000d40 T __ZN4llvm9ErrorInfoINS_17BinaryStreamErrorENS_13ErrorInfoBaseEED1Ev
0000000000000d90 T __ZN4llvm9ErrorInfoINS_17BinaryStreamErrorENS_13ErrorInfoBaseEED2Ev
00000000000005b0 T __ZN4llvmpLERNSt3__112basic_stringIcNS0_11char_traitsIcEENS0_9allocatorIcEEEENS_9StringRefE
0000000000001020 T __ZNK4llvm13ErrorInfoBase3isAEPKv
0000000000000b70 T __ZNK4llvm13ErrorInfoBase7messageEv
00000000000008c0 T __ZNK4llvm17BinaryStreamError15getErrorMessageEv
0000000000000af0 T __ZNK4llvm17BinaryStreamError18convertToErrorCodeEv
00000000000005f0 T __ZNK4llvm17BinaryStreamError3logERNS_11raw_ostreamE
0000000000000ca0 T __ZNK4llvm9ErrorInfoINS_17BinaryStreamErrorENS_13ErrorInfoBaseEE14dynamicClassIDEv
0000000000000cc0 T __ZNK4llvm9ErrorInfoINS_17BinaryStreamErrorENS_13ErrorInfoBaseEE3isAEPKv
                 U __ZNSt3__112basic_stringIcNS_11char_traitsIcEENS_9allocatorIcEEE6appendEPKc
                 U __ZNSt3__112basic_stringIcNS_11char_traitsIcEENS_9allocatorIcEEE6appendEPKcm
                 U __ZNSt3__112basic_stringIcNS_11char_traitsIcEENS_9allocatorIcEEE6assignEPKc
                 U __ZNSt3__112basic_stringIcNS_11char_traitsIcEENS_9allocatorIcEEEC1ERKS5_
                 U __ZNSt3__112basic_stringIcNS_11char_traitsIcEENS_9allocatorIcEEED1Ev
                 U __ZTVN4llvm11raw_ostreamE
                 U __ZTVN4llvm13ErrorInfoBaseE
00000000000011e0 S __ZTVN4llvm17BinaryStreamErrorE
                 U __ZTVN4llvm18raw_string_ostreamE
0000000000001078 D __ZTVN4llvm9ErrorInfoINS_17BinaryStreamErrorENS_13ErrorInfoBaseEEE
                 U __ZdlPv
                 U ___cxa_pure_virtual
                 U _memcpy
                 U _memset
                 U _strlen

libLLVMSupport.a(BinaryStreamReader.o):
0000000000001250 T __ZN4llvm10make_errorINS_17BinaryStreamErrorEJNS_17stream_error_codeEEEENS_5ErrorEDpOT0_
0000000000009850 T __ZN4llvm11make_uniqueINS_17BinaryStreamErrorEJNS_17stream_error_codeEEEENSt3__19enable_ifIXntsr3std8is_arrayIT_EE5valueENS3_10unique_ptrIS5_NS3_14default_deleteIS5_EEEEE4typeEDpOT0_
                 U __ZN4llvm11raw_ostream14flush_nonemptyEv
0000000000009340 T __ZN4llvm11raw_ostream5flushEv
00000000000092f0 T __ZN4llvm11raw_ostreamC2Eb
0000000000002150 T __ZN4llvm12ErrorSuccessC1Ev
0000000000002170 T __ZN4llvm12ErrorSuccessC2Ev
00000000000004a0 T __ZN4llvm12ErrorSuccessD1Ev
00000000000022b0 T __ZN4llvm12ErrorSuccessD2Ev
0000000000001a90 T __ZN4llvm12consumeErrorENS_5ErrorE
00000000000025d0 T __ZN4llvm12handleErrorsIJZNS_12consumeErrorENS_5ErrorEEUlRKNS_13ErrorInfoBaseEE_EEES1_S1_DpOT_
                 U __ZN4llvm13ErrorInfoBase2IDE
                 U __ZN4llvm13ErrorInfoBase6anchorEv
00000000000093c0 T __ZN4llvm13ErrorInfoBase7classIDEv
0000000000008ff0 T __ZN4llvm13ErrorInfoBaseC2Ev
0000000000009230 T __ZN4llvm13ErrorInfoBaseD2Ev
0000000000009ae0 T __ZN4llvm13isPowerOf2_64Ey
                 U __ZN4llvm15BinaryStreamRefC1ENS_8ArrayRefIhEENS_7support10endiannessE
                 U __ZN4llvm15BinaryStreamRefC1ENS_9StringRefENS_7support10endiannessE
0000000000009b70 T __ZN4llvm15BinaryStreamRefC1EOS0_
0000000000000050 T __ZN4llvm15BinaryStreamRefC1ERKS0_
                 U __ZN4llvm15BinaryStreamRefC1ERNS_12BinaryStreamE
0000000000009b50 T __ZN4llvm15BinaryStreamRefC1Ev
0000000000009c10 T __ZN4llvm15BinaryStreamRefC2EOS0_
0000000000001fd0 T __ZN4llvm15BinaryStreamRefC2ERKS0_
0000000000009ba0 T __ZN4llvm15BinaryStreamRefC2Ev
0000000000001770 T __ZN4llvm15BinaryStreamRefD1Ev
00000000000024e0 T __ZN4llvm15BinaryStreamRefD2Ev
0000000000001730 T __ZN4llvm15BinaryStreamRefaSEOS0_
0000000000002520 T __ZN4llvm15handleAllErrorsIJZNS_12consumeErrorENS_5ErrorEEUlRKNS_13ErrorInfoBaseEE_EEEvS1_DpOT_
0000000000009550 T __ZN4llvm15handleErrorImplENSt3__110unique_ptrINS_13ErrorInfoBaseENS0_14default_deleteIS2_EEEE
0000000000004810 T __ZN4llvm15handleErrorImplIZNS_12consumeErrorENS_5ErrorEEUlRKNS_13ErrorInfoBaseEE_JEEES1_NSt3__110unique_ptrIS2_NS6_14default_deleteIS2_EEEEOT_DpOT0_
                 U __ZN4llvm17BinaryStreamErrorC1ENS_17stream_error_codeE
0000000000000dd0 T __ZN4llvm18BinaryStreamReader10readObjectItEENS_5ErrorERPKT_
00000000000005b0 T __ZN4llvm18BinaryStreamReader11readCStringERNS_9StringRefE
00000000000010f0 T __ZN4llvm18BinaryStreamReader13readStreamRefERNS_15BinaryStreamRefE
0000000000001140 T __ZN4llvm18BinaryStreamReader13readStreamRefERNS_15BinaryStreamRefEj
0000000000001790 T __ZN4llvm18BinaryStreamReader13readSubstreamERNS_18BinarySubstreamRefEj
0000000000001880 T __ZN4llvm18BinaryStreamReader14padToAlignmentEj
0000000000000c20 T __ZN4llvm18BinaryStreamReader14readWideStringERNS_8ArrayRefItEE
0000000000000ab0 T __ZN4llvm18BinaryStreamReader15readFixedStringERNS_9StringRefEj
00000000000002b0 T __ZN4llvm18BinaryStreamReader26readLongestContiguousChunkERNS_8ArrayRefIhEE
00000000000017f0 T __ZN4llvm18BinaryStreamReader4skipEj
0000000000000ec0 T __ZN4llvm18BinaryStreamReader9readArrayItEENS_5ErrorERNS_8ArrayRefIT_EEj
00000000000004c0 T __ZN4llvm18BinaryStreamReader9readBytesERNS_8ArrayRefIhEEj
0000000000000a90 T __ZN4llvm18BinaryStreamReader9setOffsetEj
0000000000000080 T __ZN4llvm18BinaryStreamReaderC1ENS_15BinaryStreamRefE
00000000000001b0 T __ZN4llvm18BinaryStreamReaderC1ENS_8ArrayRefIhEENS_7support10endiannessE
0000000000000270 T __ZN4llvm18BinaryStreamReaderC1ENS_9StringRefENS_7support10endiannessE
0000000000009de0 T __ZN4llvm18BinaryStreamReaderC1ERKS0_
0000000000000100 T __ZN4llvm18BinaryStreamReaderC1ERNS_12BinaryStreamE
0000000000000000 T __ZN4llvm18BinaryStreamReaderC2ENS_15BinaryStreamRefE
0000000000000130 T __ZN4llvm18BinaryStreamReaderC2ENS_8ArrayRefIhEENS_7support10endiannessE
00000000000001f0 T __ZN4llvm18BinaryStreamReaderC2ENS_9StringRefENS_7support10endiannessE
0000000000009e10 T __ZN4llvm18BinaryStreamReaderC2ERKS0_
00000000000000a0 T __ZN4llvm18BinaryStreamReaderC2ERNS_12BinaryStreamE
0000000000001fa0 T __ZN4llvm18BinaryStreamReaderD0Ev
0000000000001f80 T __ZN4llvm18BinaryStreamReaderD1Ev
0000000000009820 T __ZN4llvm18BinaryStreamReaderD2Ev
0000000000009460 T __ZN4llvm18ErrorHandlerTraitsIRFvRNS_13ErrorInfoBaseEEE5applyIZNS_12consumeErrorENS_5ErrorEEUlRKS1_E_EES7_OT_NSt3__110unique_ptrIS1_NSD_14default_deleteIS1_EEEE
0000000000009440 T __ZN4llvm18ErrorHandlerTraitsIRFvRNS_13ErrorInfoBaseEEE9appliesToERKS1_
0000000000009270 T __ZN4llvm18raw_string_ostream3strEv
0000000000009240 T __ZN4llvm18raw_string_ostreamC1ERNSt3__112basic_stringIcNS1_11char_traitsIcEENS1_9allocatorIcEEEE
00000000000092a0 T __ZN4llvm18raw_string_ostreamC2ERNSt3__112basic_stringIcNS1_11char_traitsIcEENS1_9allocatorIcEEEE
                 U __ZN4llvm18raw_string_ostreamD1Ev
0000000000009c40 T __ZN4llvm19BinaryStreamRefBaseINS_15BinaryStreamRefENS_12BinaryStreamEEC2EOS3_
0000000000002000 T __ZN4llvm19BinaryStreamRefBaseINS_15BinaryStreamRefENS_12BinaryStreamEEC2ERKS3_
0000000000009bc0 T __ZN4llvm19BinaryStreamRefBaseINS_15BinaryStreamRefENS_12BinaryStreamEEC2Ev
0000000000002500 T __ZN4llvm19BinaryStreamRefBaseINS_15BinaryStreamRefENS_12BinaryStreamEED2Ev
00000000000022f0 T __ZN4llvm19BinaryStreamRefBaseINS_15BinaryStreamRefENS_12BinaryStreamEEaSEOS3_
0000000000009970 T __ZN4llvm19alignmentAdjustmentEPKvm
                 U __ZN4llvm24DisableABIBreakingChecksE
                 U __ZN4llvm25llvm_unreachable_internalEPKcS1_j
0000000000009e70 D __ZN4llvm30VerifyDisableABIBreakingChecksE
0000000000002090 T __ZN4llvm5Error10setCheckedEb
0000000000002fa0 T __ZN4llvm5Error11takePayloadEv
0000000000002140 T __ZN4llvm5Error15assertIsCheckedEv
00000000000021d0 T __ZN4llvm5Error6setPtrEPNS_13ErrorInfoBaseE
0000000000000430 T __ZN4llvm5Error7successEv
0000000000005720 T __ZN4llvm5ErrorC1ENSt3__110unique_ptrINS_13ErrorInfoBaseENS1_14default_deleteIS3_EEEE
0000000000000470 T __ZN4llvm5ErrorC1EOS0_
00000000000031e0 T __ZN4llvm5ErrorC1Ev
00000000000093d0 T __ZN4llvm5ErrorC2ENSt3__110unique_ptrINS_13ErrorInfoBaseENS1_14default_deleteIS3_EEEE
00000000000021f0 T __ZN4llvm5ErrorC2EOS0_
0000000000002190 T __ZN4llvm5ErrorC2Ev
00000000000003f0 T __ZN4llvm5ErrorD1Ev
00000000000020f0 T __ZN4llvm5ErrorD2Ev
0000000000002240 T __ZN4llvm5ErroraSEOS0_
00000000000003a0 T __ZN4llvm5ErrorcvbEv
00000000000018f0 T __ZN4llvm7alignToEyyy
00000000000008c0 T __ZN4llvm8ArrayRefIhEC1Ev
00000000000022d0 T __ZN4llvm8ArrayRefIhEC2Ev
00000000000099a0 T __ZN4llvm8ArrayRefItEC1EPKtm
0000000000009950 T __ZN4llvm8ArrayRefItEC1Ev
0000000000009b20 T __ZN4llvm8ArrayRefItEC2EPKtm
00000000000099d0 T __ZN4llvm8ArrayRefItEC2Ev
0000000000002580 T __ZN4llvm8cantFailENS_5ErrorEPKc
0000000000004d90 T __ZN4llvm9ErrorInfoINS_9ErrorListENS_13ErrorInfoBaseEE7classIDEv
0000000000008fb0 T __ZN4llvm9ErrorInfoINS_9ErrorListENS_13ErrorInfoBaseEEC2Ev
0000000000009030 T __ZN4llvm9ErrorInfoINS_9ErrorListENS_13ErrorInfoBaseEED0Ev
0000000000009010 T __ZN4llvm9ErrorInfoINS_9ErrorListENS_13ErrorInfoBaseEED1Ev
0000000000009210 T __ZN4llvm9ErrorInfoINS_9ErrorListENS_13ErrorInfoBaseEED2Ev
                 U __ZN4llvm9ErrorList2IDE
0000000000003200 T __ZN4llvm9ErrorList4joinENS_5ErrorES1_
0000000000005700 T __ZN4llvm9ErrorListC1ENSt3__110unique_ptrINS_13ErrorInfoBaseENS1_14default_deleteIS3_EEEES6_
0000000000008730 T __ZN4llvm9ErrorListC2ENSt3__110unique_ptrINS_13ErrorInfoBaseENS1_14default_deleteIS3_EEEES6_
00000000000099f0 T __ZN4llvm9alignAddrEPKvm
0000000000009380 T __ZNK4llvm13ErrorInfoBase3isAEPKv
00000000000031a0 T __ZNK4llvm13ErrorInfoBase3isAINS_9ErrorListEEEbv
00000000000097b0 T __ZNK4llvm13ErrorInfoBase3isAIS0_EEbv
0000000000009060 T __ZNK4llvm13ErrorInfoBase7messageEv
                 U __ZNK4llvm15BinaryStreamRef26readLongestContiguousChunkEjRNS_8ArrayRefIhEE
                 U __ZNK4llvm15BinaryStreamRef9readBytesEjjRNS_8ArrayRefIhEE
0000000000001210 T __ZNK4llvm18BinaryStreamReader14bytesRemainingEv
00000000000019a0 T __ZNK4llvm18BinaryStreamReader4peekEv
0000000000001b60 T __ZNK4llvm18BinaryStreamReader5splitEj
0000000000001d90 T __ZNK4llvm18BinaryStreamReader9getLengthEv
00000000000008a0 T __ZNK4llvm18BinaryStreamReader9getOffsetEv
0000000000001db0 T __ZNK4llvm19BinaryStreamRefBaseINS_15BinaryStreamRefENS_12BinaryStreamEE10drop_frontEj
0000000000001ee0 T __ZNK4llvm19BinaryStreamRefBaseINS_15BinaryStreamRefENS_12BinaryStreamEE10keep_frontEj
00000000000016d0 T __ZNK4llvm19BinaryStreamRefBaseINS_15BinaryStreamRefENS_12BinaryStreamEE5sliceEjj
0000000000009cc0 T __ZNK4llvm19BinaryStreamRefBaseINS_15BinaryStreamRefENS_12BinaryStreamEE9drop_backEj
0000000000009800 T __ZNK4llvm19BinaryStreamRefBaseINS_15BinaryStreamRefENS_12BinaryStreamEE9getLengthEv
0000000000004da0 T __ZNK4llvm5Error3isAINS_9ErrorListEEEbv
00000000000020d0 T __ZNK4llvm5Error6getPtrEv
0000000000009930 T __ZNK4llvm8ArrayRefIhE4dataEv
0000000000000410 T __ZNK4llvm8ArrayRefIhE4sizeEv
00000000000008e0 T __ZNK4llvm8ArrayRefIhE5beginEv
0000000000001ad0 T __ZNK4llvm8ArrayRefIhEixEm
0000000000009190 T __ZNK4llvm9ErrorInfoINS_9ErrorListENS_13ErrorInfoBaseEE14dynamicClassIDEv
00000000000091b0 T __ZNK4llvm9ErrorInfoINS_9ErrorListENS_13ErrorInfoBaseEE3isAEPKv
0000000000000900 T __ZNK4llvm9StringRef13find_first_ofEcm
                 U __ZNKSt3__120__vector_base_commonILb1EE20__throw_length_errorEv
0000000000006410 T __ZNKSt3__16vectorINS_10unique_ptrIN4llvm13ErrorInfoBaseENS_14default_deleteIS3_EEEENS_9allocatorIS6_EEE8max_sizeEv
0000000000002480 T __ZNSt3__110shared_ptrIN4llvm12BinaryStreamEED1Ev
00000000000024a0 T __ZNSt3__110shared_ptrIN4llvm12BinaryStreamEED2Ev
                 U __ZNSt3__112basic_stringIcNS_11char_traitsIcEENS_9allocatorIcEEEC1ERKS5_
                 U __ZNSt3__112basic_stringIcNS_11char_traitsIcEENS_9allocatorIcEEED1Ev
0000000000008450 T __ZNSt3__114__split_bufferINS_10unique_ptrIN4llvm13ErrorInfoBaseENS_14default_deleteIS3_EEEERNS_9allocatorIS6_EEE18__construct_at_endINS_13move_iteratorIPS6_EEEENS_9enable_ifIXsr21__is_forward_iteratorIT_EE5valueEvE4typeESG_SG_
0000000000006f40 T __ZNSt3__114__split_bufferINS_10unique_ptrIN4llvm13ErrorInfoBaseENS_14default_deleteIS3_EEEERNS_9allocatorIS6_EEE9push_backEOS6_
0000000000005bc0 T __ZNSt3__114__split_bufferINS_10unique_ptrIN4llvm13ErrorInfoBaseENS_14default_deleteIS3_EEEERNS_9allocatorIS6_EEEC1EmmS9_
0000000000006500 T __ZNSt3__114__split_bufferINS_10unique_ptrIN4llvm13ErrorInfoBaseENS_14default_deleteIS3_EEEERNS_9allocatorIS6_EEEC2EmmS9_
00000000000063f0 T __ZNSt3__114__split_bufferINS_10unique_ptrIN4llvm13ErrorInfoBaseENS_14default_deleteIS3_EEEERNS_9allocatorIS6_EEED1Ev
0000000000006720 T __ZNSt3__114__split_bufferINS_10unique_ptrIN4llvm13ErrorInfoBaseENS_14default_deleteIS3_EEEERNS_9allocatorIS6_EEED2Ev
                 U __ZNSt3__119__shared_weak_count12__add_sharedEv
                 U __ZNSt3__119__shared_weak_count16__release_sharedEv
00000000000069e0 T __ZNSt3__16vectorINS_10unique_ptrIN4llvm13ErrorInfoBaseENS_14default_deleteIS3_EEEENS_9allocatorIS6_EEE12__move_rangeEPS6_SA_SA_
0000000000005740 T __ZNSt3__16vectorINS_10unique_ptrIN4llvm13ErrorInfoBaseENS_14default_deleteIS3_EEEENS_9allocatorIS6_EEE21__push_back_slow_pathIS6_EEvOT_
0000000000005c00 T __ZNSt3__16vectorINS_10unique_ptrIN4llvm13ErrorInfoBaseENS_14default_deleteIS3_EEEENS_9allocatorIS6_EEE26__swap_out_circular_bufferERNS_14__split_bufferIS6_RS8_EE
0000000000007950 T __ZNSt3__16vectorINS_10unique_ptrIN4llvm13ErrorInfoBaseENS_14default_deleteIS3_EEEENS_9allocatorIS6_EEE26__swap_out_circular_bufferERNS_14__split_bufferIS6_RS8_EEPS6_
0000000000004e10 T __ZNSt3__16vectorINS_10unique_ptrIN4llvm13ErrorInfoBaseENS_14default_deleteIS3_EEEENS_9allocatorIS6_EEE6insertENS_11__wrap_iterIPKS6_EEOS6_
                 U __ZTVN4llvm11raw_ostreamE
                 U __ZTVN4llvm13ErrorInfoBaseE
0000000000009e78 D __ZTVN4llvm18BinaryStreamReaderE
                 U __ZTVN4llvm18raw_string_ostreamE
0000000000009e98 D __ZTVN4llvm9ErrorInfoINS_9ErrorListENS_13ErrorInfoBaseEEE
                 U __ZTVN4llvm9ErrorListE
00000000000097f0 T __ZZN4llvm12consumeErrorENS_5ErrorEENKUlRKNS_13ErrorInfoBaseEE_clES3_
                 U __ZdlPv
                 U __Znwm
                 U ___assert_rtn
                 U ___cxa_pure_virtual
                 U _abort
                 U _memchr
                 U _memset

libLLVMSupport.a(BinaryStreamRef.o):
0000000000002230 t __ZN12_GLOBAL__N_112ArrayRefImpl26readLongestContiguousChunkEjRN4llvm8ArrayRefIhEE
0000000000002280 t __ZN12_GLOBAL__N_112ArrayRefImpl9getLengthEv
00000000000021f0 t __ZN12_GLOBAL__N_112ArrayRefImpl9readBytesEjjRN4llvm8ArrayRefIhEE
0000000000002060 t __ZN12_GLOBAL__N_112ArrayRefImplC1EN4llvm8ArrayRefIhEENS1_7support10endiannessE
00000000000020a0 t __ZN12_GLOBAL__N_112ArrayRefImplC2EN4llvm8ArrayRefIhEENS1_7support10endiannessE
00000000000021a0 t __ZN12_GLOBAL__N_112ArrayRefImplD0Ev
0000000000002180 t __ZN12_GLOBAL__N_112ArrayRefImplD1Ev
0000000000002d60 t __ZN12_GLOBAL__N_112ArrayRefImplD2Ev
0000000000003d30 t __ZN12_GLOBAL__N_119MutableArrayRefImpl10writeBytesEjN4llvm8ArrayRefIhEE
0000000000003cc0 t __ZN12_GLOBAL__N_119MutableArrayRefImpl26readLongestContiguousChunkEjRN4llvm8ArrayRefIhEE
0000000000003d90 t __ZN12_GLOBAL__N_119MutableArrayRefImpl6commitEv
0000000000003d10 t __ZN12_GLOBAL__N_119MutableArrayRefImpl9getLengthEv
0000000000003c80 t __ZN12_GLOBAL__N_119MutableArrayRefImpl9readBytesEjjRN4llvm8ArrayRefIhEE
0000000000003ad0 t __ZN12_GLOBAL__N_119MutableArrayRefImplC1EN4llvm15MutableArrayRefIhEENS1_7support10endiannessE
0000000000003b10 t __ZN12_GLOBAL__N_119MutableArrayRefImplC2EN4llvm15MutableArrayRefIhEENS1_7support10endiannessE
0000000000003c30 t __ZN12_GLOBAL__N_119MutableArrayRefImplD0Ev
0000000000003c10 t __ZN12_GLOBAL__N_119MutableArrayRefImplD1Ev
0000000000004260 t __ZN12_GLOBAL__N_119MutableArrayRefImplD2Ev
0000000000002710 T __ZN4llvm10make_errorINS_17BinaryStreamErrorEJNS_17stream_error_codeEEEENS_5ErrorEDpOT0_
0000000000002b90 T __ZN4llvm11make_uniqueINS_17BinaryStreamErrorEJNS_17stream_error_codeEEEENSt3__19enable_ifIXntsr3std8is_arrayIT_EE5valueENS3_10unique_ptrIS5_NS3_14default_deleteIS5_EEEEE4typeEDpOT0_
0000000000002640 T __ZN4llvm12BinaryStream11checkOffsetEjj
0000000000002120 T __ZN4llvm12BinaryStreamC2Ev
00000000000022c0 T __ZN4llvm12BinaryStreamD0Ev
00000000000022a0 T __ZN4llvm12BinaryStreamD1Ev
00000000000022f0 T __ZN4llvm12BinaryStreamD2Ev
0000000000001210 T __ZN4llvm12ErrorSuccessC1Ev
0000000000001230 T __ZN4llvm12ErrorSuccessC2Ev
0000000000000a90 T __ZN4llvm12ErrorSuccessD1Ev
0000000000001370 T __ZN4llvm12ErrorSuccessD2Ev
0000000000000470 T __ZN4llvm12makeArrayRefIhEENS_8ArrayRefIT_EEPKS2_S5_
00000000000003c0 T __ZN4llvm15BinaryStreamRefC1ENS_8ArrayRefIhEENS_7support10endiannessE
00000000000004e0 T __ZN4llvm15BinaryStreamRefC1ENS_9StringRefENS_7support10endiannessE
0000000000000090 T __ZN4llvm15BinaryStreamRefC1ERNS_12BinaryStreamE
00000000000000e0 T __ZN4llvm15BinaryStreamRefC1ERNS_12BinaryStreamEjj
0000000000000160 T __ZN4llvm15BinaryStreamRefC2ENS_8ArrayRefIhEENS_7support10endiannessE
0000000000000400 T __ZN4llvm15BinaryStreamRefC2ENS_9StringRefENS_7support10endiannessE
0000000000000000 T __ZN4llvm15BinaryStreamRefC2ERNS_12BinaryStreamE
0000000000000050 T __ZN4llvm15BinaryStreamRefC2ERNS_12BinaryStreamEjj
00000000000024e0 T __ZN4llvm16BinaryByteStream26readLongestContiguousChunkEjRNS_8ArrayRefIhEE
00000000000025f0 T __ZN4llvm16BinaryByteStream9getLengthEv
00000000000023d0 T __ZN4llvm16BinaryByteStream9readBytesEjjRNS_8ArrayRefIhEE
0000000000002140 T __ZN4llvm16BinaryByteStreamC1ENS_8ArrayRefIhEENS_7support10endiannessE
0000000000002300 T __ZN4llvm16BinaryByteStreamC2ENS_8ArrayRefIhEENS_7support10endiannessE
0000000000002380 T __ZN4llvm16BinaryByteStreamD0Ev
0000000000002360 T __ZN4llvm16BinaryByteStreamD1Ev
0000000000002620 T __ZN4llvm16BinaryByteStreamD2Ev
                 U __ZN4llvm17BinaryStreamErrorC1ENS_17stream_error_codeE
00000000000002e0 T __ZN4llvm19BinaryStreamRefBaseINS_15BinaryStreamRefENS_12BinaryStreamEEC2ENSt3__110shared_ptrIS2_EEjj
0000000000000110 T __ZN4llvm19BinaryStreamRefBaseINS_15BinaryStreamRefENS_12BinaryStreamEEC2ERS2_jj
0000000000000d80 T __ZN4llvm19BinaryStreamRefBaseINS_23WritableBinaryStreamRefENS_20WritableBinaryStreamEEC2ENSt3__110shared_ptrIS2_EEjj
0000000000000bc0 T __ZN4llvm19BinaryStreamRefBaseINS_23WritableBinaryStreamRefENS_20WritableBinaryStreamEEC2ERS2_jj
0000000000003b90 T __ZN4llvm20WritableBinaryStreamC2Ev
0000000000003de0 T __ZN4llvm20WritableBinaryStreamD0Ev
0000000000003dc0 T __ZN4llvm20WritableBinaryStreamD1Ev
0000000000003e10 T __ZN4llvm20WritableBinaryStreamD2Ev
0000000000003fe0 T __ZN4llvm23MutableBinaryByteStream10writeBytesEjNS_8ArrayRefIhEE
0000000000003f70 T __ZN4llvm23MutableBinaryByteStream26readLongestContiguousChunkEjRNS_8ArrayRefIhEE
0000000000004190 T __ZN4llvm23MutableBinaryByteStream6commitEv
0000000000003fc0 T __ZN4llvm23MutableBinaryByteStream9getLengthEv
0000000000003f30 T __ZN4llvm23MutableBinaryByteStream9readBytesEjjRNS_8ArrayRefIhEE
0000000000003bd0 T __ZN4llvm23MutableBinaryByteStreamC1ENS_15MutableArrayRefIhEENS_7support10endiannessE
0000000000003e30 T __ZN4llvm23MutableBinaryByteStreamC2ENS_15MutableArrayRefIhEENS_7support10endiannessE
0000000000003ee0 T __ZN4llvm23MutableBinaryByteStreamD0Ev
0000000000003ec0 T __ZN4llvm23MutableBinaryByteStreamD1Ev
00000000000041e0 T __ZN4llvm23MutableBinaryByteStreamD2Ev
00000000000010e0 T __ZN4llvm23WritableBinaryStreamRef6commitEv
0000000000000e60 T __ZN4llvm23WritableBinaryStreamRefC1ENS_15MutableArrayRefIhEENS_7support10endiannessE
0000000000000b40 T __ZN4llvm23WritableBinaryStreamRefC1ERNS_20WritableBinaryStreamE
0000000000000b90 T __ZN4llvm23WritableBinaryStreamRefC1ERNS_20WritableBinaryStreamEjj
0000000000000c10 T __ZN4llvm23WritableBinaryStreamRefC2ENS_15MutableArrayRefIhEENS_7support10endiannessE
0000000000000ab0 T __ZN4llvm23WritableBinaryStreamRefC2ERNS_20WritableBinaryStreamE
0000000000000b00 T __ZN4llvm23WritableBinaryStreamRefC2ERNS_20WritableBinaryStreamEjj
                 U __ZN4llvm24DisableABIBreakingChecksE
0000000000004398 D __ZN4llvm30VerifyDisableABIBreakingChecksE
0000000000001150 T __ZN4llvm5Error10setCheckedEb
0000000000001200 T __ZN4llvm5Error15assertIsCheckedEv
0000000000001290 T __ZN4llvm5Error6setPtrEPNS_13ErrorInfoBaseE
0000000000000a20 T __ZN4llvm5Error7successEv
0000000000002c70 T __ZN4llvm5ErrorC1ENSt3__110unique_ptrINS_13ErrorInfoBaseENS1_14default_deleteIS3_EEEE
0000000000000a60 T __ZN4llvm5ErrorC1EOS0_
0000000000002c90 T __ZN4llvm5ErrorC2ENSt3__110unique_ptrINS_13ErrorInfoBaseENS1_14default_deleteIS3_EEEE
00000000000012b0 T __ZN4llvm5ErrorC2EOS0_
0000000000001250 T __ZN4llvm5ErrorC2Ev
0000000000000750 T __ZN4llvm5ErrorD1Ev
00000000000011b0 T __ZN4llvm5ErrorD2Ev
0000000000001300 T __ZN4llvm5ErroraSEOS0_
0000000000000700 T __ZN4llvm5ErrorcvbEv
0000000000002e80 T __ZN4llvm8ArrayRefIhEC1EPKhS3_
0000000000001430 T __ZN4llvm8ArrayRefIhEC1EPKhm
0000000000002eb0 T __ZN4llvm8ArrayRefIhEC2EPKhS3_
0000000000001460 T __ZN4llvm8ArrayRefIhEC2EPKhm
00000000000021d0 t __ZNK12_GLOBAL__N_112ArrayRefImpl9getEndianEv
0000000000003c60 t __ZNK12_GLOBAL__N_119MutableArrayRefImpl9getEndianEv
0000000000000770 T __ZNK4llvm15BinaryStreamRef26readLongestContiguousChunkEjRNS_8ArrayRefIhEE
0000000000000550 T __ZNK4llvm15BinaryStreamRef9readBytesEjjRNS_8ArrayRefIhEE
0000000000004240 T __ZNK4llvm15MutableArrayRefIhE4dataEv
00000000000023b0 T __ZNK4llvm16BinaryByteStream9getEndianEv
0000000000000640 T __ZNK4llvm19BinaryStreamRefBaseINS_15BinaryStreamRefENS_12BinaryStreamEE11checkOffsetEjj
0000000000002ee0 T __ZNK4llvm19BinaryStreamRefBaseINS_15BinaryStreamRefENS_12BinaryStreamEE9getLengthEv
0000000000000fe0 T __ZNK4llvm19BinaryStreamRefBaseINS_23WritableBinaryStreamRefENS_20WritableBinaryStreamEE11checkOffsetEjj
0000000000004380 T __ZNK4llvm19BinaryStreamRefBaseINS_23WritableBinaryStreamRefENS_20WritableBinaryStreamEE9getLengthEv
0000000000003f10 T __ZNK4llvm23MutableBinaryByteStream9getEndianEv
0000000000000ea0 T __ZNK4llvm23WritableBinaryStreamRef10writeBytesEjNS_8ArrayRefIhEE
00000000000010a0 T __ZNK4llvm23WritableBinaryStreamRefcvNS_15BinaryStreamRefEEv
0000000000001190 T __ZNK4llvm5Error6getPtrEv
0000000000001410 T __ZNK4llvm8ArrayRefIhE4dataEv
00000000000002c0 T __ZNK4llvm8ArrayRefIhE4sizeEv
0000000000004220 T __ZNK4llvm8ArrayRefIhE5emptyEv
0000000000002d00 T __ZNK4llvm8ArrayRefIhE5sliceEm
0000000000000960 T __ZNK4llvm8ArrayRefIhE5sliceEmm
00000000000004a0 T __ZNK4llvm9StringRef11bytes_beginEv
0000000000001130 T __ZNK4llvm9StringRef3endEv
0000000000001110 T __ZNK4llvm9StringRef5beginEv
00000000000004c0 T __ZNK4llvm9StringRef9bytes_endEv
                 U __ZNKSt3__119__shared_weak_count13__get_deleterERKSt9type_info
0000000000001490 t __ZNSt3__110shared_ptrIN12_GLOBAL__N_112ArrayRefImplEE11make_sharedIJRN4llvm8ArrayRefIhEERNS5_7support10endiannessEEEES3_DpOT_
00000000000003a0 t __ZNSt3__110shared_ptrIN12_GLOBAL__N_112ArrayRefImplEED1Ev
0000000000002e40 t __ZNSt3__110shared_ptrIN12_GLOBAL__N_112ArrayRefImplEED2Ev
0000000000002f00 t __ZNSt3__110shared_ptrIN12_GLOBAL__N_119MutableArrayRefImplEE11make_sharedIJRN4llvm15MutableArrayRefIhEERNS5_7support10endiannessEEEES3_DpOT_
0000000000000e40 t __ZNSt3__110shared_ptrIN12_GLOBAL__N_119MutableArrayRefImplEED1Ev
0000000000004340 t __ZNSt3__110shared_ptrIN12_GLOBAL__N_119MutableArrayRefImplEED2Ev
0000000000000380 T __ZNSt3__110shared_ptrIN4llvm12BinaryStreamEED1Ev
0000000000001390 T __ZNSt3__110shared_ptrIN4llvm12BinaryStreamEED2Ev
0000000000000e20 T __ZNSt3__110shared_ptrIN4llvm20WritableBinaryStreamEED1Ev
00000000000013d0 T __ZNSt3__110shared_ptrIN4llvm20WritableBinaryStreamEED2Ev
0000000000002de0 t __ZNSt3__117__compressed_pairINS_9allocatorIN12_GLOBAL__N_112ArrayRefImplEEES3_ED1Ev
0000000000002e00 t __ZNSt3__117__compressed_pairINS_9allocatorIN12_GLOBAL__N_112ArrayRefImplEEES3_ED2Ev
00000000000042e0 t __ZNSt3__117__compressed_pairINS_9allocatorIN12_GLOBAL__N_119MutableArrayRefImplEEES3_ED1Ev
0000000000004300 t __ZNSt3__117__compressed_pairINS_9allocatorIN12_GLOBAL__N_119MutableArrayRefImplEEES3_ED2Ev
                 U __ZNSt3__119__shared_weak_count12__add_sharedEv
                 U __ZNSt3__119__shared_weak_count16__release_sharedEv
                 U __ZNSt3__119__shared_weak_countD2Ev
0000000000001f90 t __ZNSt3__120__shared_ptr_emplaceIN12_GLOBAL__N_112ArrayRefImplENS_9allocatorIS2_EEE16__on_zero_sharedEv
0000000000001fc0 t __ZNSt3__120__shared_ptr_emplaceIN12_GLOBAL__N_112ArrayRefImplENS_9allocatorIS2_EEE21__on_zero_shared_weakEv
0000000000001f60 t __ZNSt3__120__shared_ptr_emplaceIN12_GLOBAL__N_112ArrayRefImplENS_9allocatorIS2_EEED0Ev
0000000000001f40 t __ZNSt3__120__shared_ptr_emplaceIN12_GLOBAL__N_112ArrayRefImplENS_9allocatorIS2_EEED1Ev
0000000000002da0 t __ZNSt3__120__shared_ptr_emplaceIN12_GLOBAL__N_112ArrayRefImplENS_9allocatorIS2_EEED2Ev
0000000000003a00 t __ZNSt3__120__shared_ptr_emplaceIN12_GLOBAL__N_119MutableArrayRefImplENS_9allocatorIS2_EEE16__on_zero_sharedEv
0000000000003a30 t __ZNSt3__120__shared_ptr_emplaceIN12_GLOBAL__N_119MutableArrayRefImplENS_9allocatorIS2_EEE21__on_zero_shared_weakEv
00000000000039d0 t __ZNSt3__120__shared_ptr_emplaceIN12_GLOBAL__N_119MutableArrayRefImplENS_9allocatorIS2_EEED0Ev
00000000000039b0 t __ZNSt3__120__shared_ptr_emplaceIN12_GLOBAL__N_119MutableArrayRefImplENS_9allocatorIS2_EEED1Ev
00000000000042a0 t __ZNSt3__120__shared_ptr_emplaceIN12_GLOBAL__N_119MutableArrayRefImplENS_9allocatorIS2_EEED2Ev
0000000000002e20 t __ZNSt3__128__libcpp_compressed_pair_impINS_9allocatorIN12_GLOBAL__N_112ArrayRefImplEEES3_Lj1EED2Ev
0000000000004320 t __ZNSt3__128__libcpp_compressed_pair_impINS_9allocatorIN12_GLOBAL__N_119MutableArrayRefImplEEES3_Lj1EED2Ev
0000000000004678 s __ZNSt3__1L19piecewise_constructE
00000000000045b0 s __ZTVN12_GLOBAL__N_112ArrayRefImplE
0000000000004628 s __ZTVN12_GLOBAL__N_119MutableArrayRefImplE
00000000000043a0 D __ZTVN4llvm12BinaryStreamE
00000000000043e0 D __ZTVN4llvm16BinaryByteStreamE
0000000000004420 D __ZTVN4llvm20WritableBinaryStreamE
0000000000004470 D __ZTVN4llvm23MutableBinaryByteStreamE
                 U __ZTVNSt3__114__shared_countE
                 U __ZTVNSt3__119__shared_weak_countE
0000000000004578 s __ZTVNSt3__120__shared_ptr_emplaceIN12_GLOBAL__N_112ArrayRefImplENS_9allocatorIS2_EEEE
00000000000045f0 s __ZTVNSt3__120__shared_ptr_emplaceIN12_GLOBAL__N_119MutableArrayRefImplENS_9allocatorIS2_EEEE
                 U __ZdlPv
                 U __Znwm
                 U ___assert_rtn
                 U ___cxa_pure_virtual
                 U _abort
                 U _memcpy
                 U _memset

libLLVMSupport.a(BinaryStreamWriter.o):
0000000000001140 T __ZN4llvm10make_errorINS_17BinaryStreamErrorEJNS_17stream_error_codeEEEENS_5ErrorEDpOT0_
0000000000001e50 T __ZN4llvm11make_uniqueINS_17BinaryStreamErrorEJNS_17stream_error_codeEEEENSt3__19enable_ifIXntsr3std8is_arrayIT_EE5valueENS3_10unique_ptrIS5_NS3_14default_deleteIS5_EEEEE4typeEDpOT0_
00000000000017f0 T __ZN4llvm12ErrorSuccessC1Ev
0000000000001810 T __ZN4llvm12ErrorSuccessC2Ev
0000000000000410 T __ZN4llvm12ErrorSuccessD1Ev
0000000000001950 T __ZN4llvm12ErrorSuccessD2Ev
00000000000021b0 T __ZN4llvm15BinaryStreamRefC1EOS0_
0000000000000950 T __ZN4llvm15BinaryStreamRefC1ERKS0_
0000000000002190 T __ZN4llvm15BinaryStreamRefC1Ev
0000000000002250 T __ZN4llvm15BinaryStreamRefC2EOS0_
00000000000019b0 T __ZN4llvm15BinaryStreamRefC2ERKS0_
00000000000021e0 T __ZN4llvm15BinaryStreamRefC2Ev
00000000000009a0 T __ZN4llvm15BinaryStreamRefD1Ev
0000000000001a70 T __ZN4llvm15BinaryStreamRefD2Ev
                 U __ZN4llvm17BinaryStreamErrorC1ENS_17stream_error_codeE
                 U __ZN4llvm18BinaryStreamReader26readLongestContiguousChunkERNS_8ArrayRefIhEE
                 U __ZN4llvm18BinaryStreamReaderC1ENS_15BinaryStreamRefE
0000000000001ba0 T __ZN4llvm18BinaryStreamReaderD0Ev
0000000000000a80 T __ZN4llvm18BinaryStreamReaderD1Ev
0000000000001b70 T __ZN4llvm18BinaryStreamReaderD2Ev
00000000000001f0 T __ZN4llvm18BinaryStreamWriter10writeBytesENS_8ArrayRefIhEE
0000000000000620 T __ZN4llvm18BinaryStreamWriter11writeObjectIcEENS_5ErrorERKT_
0000000000000430 T __ZN4llvm18BinaryStreamWriter12writeCStringENS_9StringRefE
00000000000015c0 T __ZN4llvm18BinaryStreamWriter12writeIntegerIcEENS_5ErrorET_
0000000000000f40 T __ZN4llvm18BinaryStreamWriter14padToAlignmentEj
0000000000000700 T __ZN4llvm18BinaryStreamWriter14writeStreamRefENS_15BinaryStreamRefE
0000000000000770 T __ZN4llvm18BinaryStreamWriter14writeStreamRefENS_15BinaryStreamRefEj
00000000000005b0 T __ZN4llvm18BinaryStreamWriter16writeFixedStringENS_9StringRefE
00000000000001b0 T __ZN4llvm18BinaryStreamWriterC1ENS_15MutableArrayRefIhEENS_7support10endiannessE
0000000000000080 T __ZN4llvm18BinaryStreamWriterC1ENS_23WritableBinaryStreamRefE
0000000000002740 T __ZN4llvm18BinaryStreamWriterC1ERKS0_
0000000000000100 T __ZN4llvm18BinaryStreamWriterC1ERNS_20WritableBinaryStreamE
0000000000000130 T __ZN4llvm18BinaryStreamWriterC2ENS_15MutableArrayRefIhEENS_7support10endiannessE
0000000000000000 T __ZN4llvm18BinaryStreamWriterC2ENS_23WritableBinaryStreamRefE
0000000000002770 T __ZN4llvm18BinaryStreamWriterC2ERKS0_
00000000000000a0 T __ZN4llvm18BinaryStreamWriterC2ERNS_20WritableBinaryStreamE
0000000000001640 T __ZN4llvm18BinaryStreamWriterD0Ev
0000000000000f20 T __ZN4llvm18BinaryStreamWriterD1Ev
0000000000001e20 T __ZN4llvm18BinaryStreamWriterD2Ev
0000000000002280 T __ZN4llvm19BinaryStreamRefBaseINS_15BinaryStreamRefENS_12BinaryStreamEEC2EOS3_
00000000000019e0 T __ZN4llvm19BinaryStreamRefBaseINS_15BinaryStreamRefENS_12BinaryStreamEEC2ERKS3_
0000000000002200 T __ZN4llvm19BinaryStreamRefBaseINS_15BinaryStreamRefENS_12BinaryStreamEEC2Ev
0000000000001a90 T __ZN4llvm19BinaryStreamRefBaseINS_15BinaryStreamRefENS_12BinaryStreamEED2Ev
00000000000025a0 T __ZN4llvm19BinaryStreamRefBaseINS_23WritableBinaryStreamRefENS_20WritableBinaryStreamEEC2EOS3_
00000000000016a0 T __ZN4llvm19BinaryStreamRefBaseINS_23WritableBinaryStreamRefENS_20WritableBinaryStreamEEC2ERKS3_
0000000000002520 T __ZN4llvm19BinaryStreamRefBaseINS_23WritableBinaryStreamRefENS_20WritableBinaryStreamEEC2Ev
0000000000001e00 T __ZN4llvm19BinaryStreamRefBaseINS_23WritableBinaryStreamRefENS_20WritableBinaryStreamEED2Ev
0000000000001bf0 T __ZN4llvm19BinaryStreamRefBaseINS_23WritableBinaryStreamRefENS_20WritableBinaryStreamEEaSEOS3_
                 U __ZN4llvm23WritableBinaryStreamRefC1ENS_15MutableArrayRefIhEENS_7support10endiannessE
00000000000024d0 T __ZN4llvm23WritableBinaryStreamRefC1EOS0_
0000000000000050 T __ZN4llvm23WritableBinaryStreamRefC1ERKS0_
                 U __ZN4llvm23WritableBinaryStreamRefC1ERNS_20WritableBinaryStreamE
00000000000024b0 T __ZN4llvm23WritableBinaryStreamRefC1Ev
0000000000002570 T __ZN4llvm23WritableBinaryStreamRefC2EOS0_
0000000000001670 T __ZN4llvm23WritableBinaryStreamRefC2ERKS0_
0000000000002500 T __ZN4llvm23WritableBinaryStreamRefC2Ev
0000000000000f00 T __ZN4llvm23WritableBinaryStreamRefD1Ev
0000000000001de0 T __ZN4llvm23WritableBinaryStreamRefD2Ev
0000000000000ec0 T __ZN4llvm23WritableBinaryStreamRefaSEOS0_
                 U __ZN4llvm24DisableABIBreakingChecksE
0000000000002938 D __ZN4llvm30VerifyDisableABIBreakingChecksE
00000000000028d0 T __ZN4llvm3sys13swapByteOrderIcEEvRT_
0000000000002900 T __ZN4llvm3sys15getSwappedBytesEc
0000000000001730 T __ZN4llvm5Error10setCheckedEb
00000000000017e0 T __ZN4llvm5Error15assertIsCheckedEv
0000000000001870 T __ZN4llvm5Error6setPtrEPNS_13ErrorInfoBaseE
00000000000003a0 T __ZN4llvm5Error7successEv
0000000000001f30 T __ZN4llvm5ErrorC1ENSt3__110unique_ptrINS_13ErrorInfoBaseENS1_14default_deleteIS3_EEEE
00000000000003e0 T __ZN4llvm5ErrorC1EOS0_
0000000000001f50 T __ZN4llvm5ErrorC2ENSt3__110unique_ptrINS_13ErrorInfoBaseENS1_14default_deleteIS3_EEEE
0000000000001890 T __ZN4llvm5ErrorC2EOS0_
0000000000001830 T __ZN4llvm5ErrorC2Ev
0000000000000360 T __ZN4llvm5ErrorD1Ev
0000000000001790 T __ZN4llvm5ErrorD2Ev
00000000000018e0 T __ZN4llvm5ErroraSEOS0_
0000000000000310 T __ZN4llvm5ErrorcvbEv
0000000000001090 T __ZN4llvm7alignToEyyy
00000000000028c0 T __ZN4llvm7support6endian17system_endiannessEv
00000000000027d0 T __ZN4llvm7support6endian5writeIcLm1EEEvPvT_NS0_10endiannessE
0000000000002870 T __ZN4llvm7support6endian9byte_swapIcEET_S3_NS0_10endiannessE
00000000000006d0 T __ZN4llvm8ArrayRefIhEC1EPKhS3_
0000000000002420 T __ZN4llvm8ArrayRefIhEC1EPKhm
0000000000000a60 T __ZN4llvm8ArrayRefIhEC1Ev
0000000000002840 T __ZN4llvm8ArrayRefIhEC1ILm1EEERAT__Kh
0000000000002480 T __ZN4llvm8ArrayRefIhEC2EPKhS3_
0000000000002450 T __ZN4llvm8ArrayRefIhEC2EPKhm
0000000000001b50 T __ZN4llvm8ArrayRefIhEC2Ev
0000000000002910 T __ZN4llvm8ArrayRefIhEC2ILm1EEERAT__Kh
0000000000000a20 T __ZNK4llvm18BinaryStreamReader14bytesRemainingEv
0000000000001b10 T __ZNK4llvm18BinaryStreamReader9getLengthEv
0000000000001b30 T __ZNK4llvm18BinaryStreamReader9getOffsetEv
0000000000000aa0 T __ZNK4llvm18BinaryStreamWriter5splitEj
0000000000000cd0 T __ZNK4llvm18BinaryStreamWriter9getLengthEv
0000000000001fc0 T __ZNK4llvm19BinaryStreamRefBaseINS_15BinaryStreamRefENS_12BinaryStreamEE10drop_frontEj
00000000000020f0 T __ZNK4llvm19BinaryStreamRefBaseINS_15BinaryStreamRefENS_12BinaryStreamEE10keep_frontEj
00000000000009c0 T __ZNK4llvm19BinaryStreamRefBaseINS_15BinaryStreamRefENS_12BinaryStreamEE5sliceEjj
0000000000002300 T __ZNK4llvm19BinaryStreamRefBaseINS_15BinaryStreamRefENS_12BinaryStreamEE9drop_backEj
0000000000000980 T __ZNK4llvm19BinaryStreamRefBaseINS_15BinaryStreamRefENS_12BinaryStreamEE9getLengthEv
0000000000000cf0 T __ZNK4llvm19BinaryStreamRefBaseINS_23WritableBinaryStreamRefENS_20WritableBinaryStreamEE10drop_frontEj
0000000000000e20 T __ZNK4llvm19BinaryStreamRefBaseINS_23WritableBinaryStreamRefENS_20WritableBinaryStreamEE10keep_frontEj
0000000000002620 T __ZNK4llvm19BinaryStreamRefBaseINS_23WritableBinaryStreamRefENS_20WritableBinaryStreamEE9drop_backEj
0000000000002810 T __ZNK4llvm19BinaryStreamRefBaseINS_23WritableBinaryStreamRefENS_20WritableBinaryStreamEE9getEndianEv
0000000000001bd0 T __ZNK4llvm19BinaryStreamRefBaseINS_23WritableBinaryStreamRefENS_20WritableBinaryStreamEE9getLengthEv
                 U __ZNK4llvm23WritableBinaryStreamRef10writeBytesEjNS_8ArrayRefIhEE
0000000000001770 T __ZNK4llvm5Error6getPtrEv
0000000000000380 T __ZNK4llvm8ArrayRefIhE4sizeEv
0000000000000690 T __ZNK4llvm9StringRef11bytes_beginEv
0000000000001990 T __ZNK4llvm9StringRef3endEv
0000000000001970 T __ZNK4llvm9StringRef5beginEv
00000000000006b0 T __ZNK4llvm9StringRef9bytes_endEv
0000000000001ab0 T __ZNSt3__110shared_ptrIN4llvm12BinaryStreamEED1Ev
0000000000001ad0 T __ZNSt3__110shared_ptrIN4llvm12BinaryStreamEED2Ev
0000000000001d80 T __ZNSt3__110shared_ptrIN4llvm20WritableBinaryStreamEED1Ev
0000000000001da0 T __ZNSt3__110shared_ptrIN4llvm20WritableBinaryStreamEED2Ev
                 U __ZNSt3__119__shared_weak_count12__add_sharedEv
                 U __ZNSt3__119__shared_weak_count16__release_sharedEv
0000000000002960 D __ZTVN4llvm18BinaryStreamReaderE
0000000000002940 D __ZTVN4llvm18BinaryStreamWriterE
                 U __ZdlPv
                 U __Znwm
                 U ___assert_rtn
                 U _memset

libLLVMSupport.a(BlockFrequency.o):
0000000000000090 T __ZN4llvm14BlockFrequencyC1Ey
0000000000000320 T __ZN4llvm14BlockFrequencyC2Ey
00000000000000c0 T __ZN4llvm14BlockFrequencydVENS_17BranchProbabilityE
00000000000001f0 T __ZN4llvm14BlockFrequencymIES0_
0000000000000000 T __ZN4llvm14BlockFrequencymLENS_17BranchProbabilityE
0000000000000150 T __ZN4llvm14BlockFrequencypLES0_
0000000000000290 T __ZN4llvm14BlockFrequencyrSEj
0000000000000100 T __ZNK4llvm14BlockFrequencydvENS_17BranchProbabilityE
0000000000000240 T __ZNK4llvm14BlockFrequencymiES0_
0000000000000040 T __ZNK4llvm14BlockFrequencymlENS_17BranchProbabilityE
00000000000001a0 T __ZNK4llvm14BlockFrequencyplES0_
                 U __ZNK4llvm17BranchProbability14scaleByInverseEy
                 U __ZNK4llvm17BranchProbability5scaleEy
                 U ___assert_rtn

libLLVMSupport.a(BranchProbability.o):
0000000000000710 t __ZL5scaleILj0EEyyjj
00000000000004d0 t __ZL5scaleILj2147483648EEyyjj
                 U __ZN4llvm11raw_ostream5writeEPKcm
                 U __ZN4llvm11raw_ostream5writeEh
0000000000000910 T __ZN4llvm11raw_ostreamlsENS_9StringRefE
00000000000000f0 T __ZN4llvm11raw_ostreamlsEPKc
                 U __ZN4llvm11raw_ostreamlsERKNS_18format_object_baseE
0000000000000210 T __ZN4llvm11raw_ostreamlsEc
00000000000009d0 T __ZN4llvm13format_objectIJjjdEEC1EPKcRKjS5_RKd
0000000000000a10 T __ZN4llvm13format_objectIJjjdEEC2EPKcRKjS5_RKd
0000000000000d98 S __ZN4llvm17BranchProbability1DE
00000000000003d0 T __ZN4llvm17BranchProbability20getBranchProbabilityEyy
00000000000003a0 T __ZN4llvm17BranchProbabilityC1Ejj
0000000000000280 T __ZN4llvm17BranchProbabilityC2Ejj
                 U __ZN4llvm18format_object_base4homeEv
0000000000000bf0 T __ZN4llvm18format_object_baseC2EPKc
0000000000000cd0 T __ZN4llvm26validate_format_parametersIJdEEC1Ev
0000000000000cf0 T __ZN4llvm26validate_format_parametersIJdEEC2Ev
0000000000000c90 T __ZN4llvm26validate_format_parametersIJjdEEC1Ev
0000000000000cb0 T __ZN4llvm26validate_format_parametersIJjdEEC2Ev
0000000000000c20 T __ZN4llvm26validate_format_parametersIJjjdEEC1Ev
0000000000000c70 T __ZN4llvm26validate_format_parametersIJjjdEEC2Ev
                 U __ZN4llvm4dbgsEv
0000000000000190 T __ZN4llvm6formatIJjjdEEENS_13format_objectIJDpT_EEEPKcDpRKS2_
0000000000000d00 T __ZNK4llvm13format_objectIJjjdEE13snprint_tupleIJLm0ELm1ELm2EEEEiPcjNS_14index_sequenceIJXspT_EEEE
0000000000000c40 T __ZNK4llvm13format_objectIJjjdEE7snprintEPcj
00000000000006e0 T __ZNK4llvm17BranchProbability14scaleByInverseEy
00000000000001d0 T __ZNK4llvm17BranchProbability4dumpEv
0000000000000000 T __ZNK4llvm17BranchProbability5printERNS_11raw_ostreamE
00000000000004a0 T __ZNK4llvm17BranchProbability5scaleEy
00000000000000d0 T __ZNK4llvm17BranchProbability9isUnknownEv
0000000000000ef0 D __ZTVN4llvm13format_objectIJjjdEEE
                 U __ZTVN4llvm18format_object_baseE
                 U ___assert_rtn
                 U _memcpy
                 U _snprintf
                 U _strlen

libLLVMSupport.a(COM.o):
0000000000000020 T __ZN4llvm3sys17InitializeCOMRAIIC1ENS0_16COMThreadingModeEb
0000000000000000 T __ZN4llvm3sys17InitializeCOMRAIIC2ENS0_16COMThreadingModeEb
0000000000000060 T __ZN4llvm3sys17InitializeCOMRAIID1Ev
0000000000000050 T __ZN4llvm3sys17InitializeCOMRAIID2Ev

libLLVMSupport.a(CachePruning.o):
0000000000003980 T __Z7toloweri
0000000000002900 t __ZL13parseDurationN4llvm9StringRefE
0000000000006920 t __ZL18writeTimestampFileN4llvm9StringRefE
00000000000033c0 T __ZN4llvm10make_errorINS_11StringErrorEJNS_5TwineENSt3__110error_codeEEEENS_5ErrorEDpOT0_
00000000000075e0 T __ZN4llvm10make_errorINS_11StringErrorEJRA27_KcNSt3__110error_codeEEEENS_5ErrorEDpOT0_
00000000000039d0 T __ZN4llvm10pruneCacheENS_9StringRefENS_18CachePruningPolicyE
00000000000068a0 T __ZN4llvm11SmallStringILj128EEC1ENS_9StringRefE
0000000000006c10 T __ZN4llvm11SmallStringILj128EEC1Ev
000000000000d980 T __ZN4llvm11SmallStringILj128EEC2ENS_9StringRefE
0000000000008fb0 T __ZN4llvm11SmallStringILj128EEC2Ev
0000000000007390 T __ZN4llvm11SmallStringILj128EED1Ev
000000000000d080 T __ZN4llvm11SmallStringILj128EED2Ev
0000000000008fd0 T __ZN4llvm11SmallVectorIcLj128EEC2Ev
000000000000da10 T __ZN4llvm11SmallVectorIcLj128EEC2IPKcvEET_S5_
000000000000d0a0 T __ZN4llvm11SmallVectorIcLj128EED2Ev
                 U __ZN4llvm11StringErrorC1ERKNS_5TwineENSt3__110error_codeE
000000000000d470 T __ZN4llvm11make_uniqueINS_11StringErrorEJNS_5TwineENSt3__110error_codeEEEENS3_9enable_ifIXntsr3std8is_arrayIT_EE5valueENS3_10unique_ptrIS6_NS3_14default_deleteIS6_EEEEE4typeEDpOT0_
0000000000007b40 T __ZN4llvm11make_uniqueINS_11StringErrorEJRA27_KcNSt3__110error_codeEEEENS5_9enable_ifIXntsr3std8is_arrayIT_EE5valueENS5_10unique_ptrIS8_NS5_14default_deleteIS8_EEEEE4typeEDpOT0_
                 U __ZN4llvm11raw_ostream5writeEPKcm
0000000000008c60 T __ZN4llvm11raw_ostreamlsENS_9StringRefE
0000000000006800 T __ZN4llvm11raw_ostreamlsEPKc
0000000000006d20 T __ZN4llvm11raw_ostreamlsERKNSt3__112basic_stringIcNS1_11char_traitsIcEENS1_9allocatorIcEEEE
0000000000007340 T __ZN4llvm11raw_ostreamlsEj
                 U __ZN4llvm11raw_ostreamlsEm
                 U __ZN4llvm11raw_ostreamlsEx
                 U __ZN4llvm11raw_ostreamlsEy
000000000000d620 T __ZN4llvm12ErrorSuccessC1Ev
000000000000d640 T __ZN4llvm12ErrorSuccessC2Ev
000000000000d600 T __ZN4llvm12ErrorSuccessD1Ev
000000000000d760 T __ZN4llvm12ErrorSuccessD2Ev
                 U __ZN4llvm14raw_fd_ostreamC1ENS_9StringRefERNSt3__110error_codeENS_3sys2fs9OpenFlagsE
                 U __ZN4llvm14raw_fd_ostreamD1Ev
                 U __ZN4llvm15SmallVectorBase8grow_podEPvmm
0000000000009080 T __ZN4llvm15SmallVectorBaseC2EPvm
000000000000da60 T __ZN4llvm15SmallVectorImplIcE6appendIPKcvEEvT_S5_
0000000000008ff0 T __ZN4llvm15SmallVectorImplIcEC2Ej
000000000000d0c0 T __ZN4llvm15SmallVectorImplIcED2Ev
000000000000dc80 T __ZN4llvm15make_error_codeENS_4errcE
0000000000001f80 T __ZN4llvm18CachePruningPolicyC1Ev
00000000000073d0 T __ZN4llvm18CachePruningPolicyC2Ev
                 U __ZN4llvm18isCurrentDebugTypeEPKc
                 U __ZN4llvm18report_fatal_errorEPKcb
                 U __ZN4llvm20getAsUnsignedIntegerENS_9StringRefEjRy
                 U __ZN4llvm22inconvertibleErrorCodeEv
000000000000d130 T __ZN4llvm23SmallVectorTemplateBaseIcLb1EE13destroy_rangeEPcS2_
000000000000dbd0 T __ZN4llvm23SmallVectorTemplateBaseIcLb1EE18uninitialized_copyIKccEEvPT_S5_PT0_PNSt3__19enable_ifIXsr3std7is_sameINS8_12remove_constIS4_E4typeES6_EE5valueEvE4typeE
000000000000db90 T __ZN4llvm23SmallVectorTemplateBaseIcLb1EE4growEm
0000000000009020 T __ZN4llvm23SmallVectorTemplateBaseIcLb1EEC2Em
0000000000000000 T __ZN4llvm23parseCachePruningPolicyENS_9StringRefE
                 U __ZN4llvm24DisableABIBreakingChecksE
000000000000db70 T __ZN4llvm25SmallVectorTemplateCommonIcvE12capacity_ptrEv
000000000000a570 T __ZN4llvm25SmallVectorTemplateCommonIcvE4dataEv
000000000000dc20 T __ZN4llvm25SmallVectorTemplateCommonIcvE6setEndEPc
000000000000dc40 T __ZN4llvm25SmallVectorTemplateCommonIcvE8grow_podEmm
0000000000009050 T __ZN4llvm25SmallVectorTemplateCommonIcvEC2Em
                 U __ZN4llvm25llvm_unreachable_internalEPKcS1_j
000000000000df78 D __ZN4llvm30VerifyDisableABIBreakingChecksE
                 U __ZN4llvm3sys2fs10disk_spaceERKNS_5TwineE
00000000000068d0 T __ZN4llvm3sys2fs11file_statusC1Ev
0000000000008d20 T __ZN4llvm3sys2fs11file_statusC2Ev
                 U __ZN4llvm3sys2fs12is_directoryERKNS_5TwineERb
0000000000009dc0 T __ZN4llvm3sys2fs15directory_entryC1Ev
0000000000009de0 T __ZN4llvm3sys2fs15directory_entryC2Ev
0000000000009fb0 T __ZN4llvm3sys2fs15directory_entryD1Ev
0000000000009fd0 T __ZN4llvm3sys2fs15directory_entryD2Ev
0000000000007290 T __ZN4llvm3sys2fs18directory_iterator9incrementERNSt3__110error_codeE
0000000000006c30 T __ZN4llvm3sys2fs18directory_iteratorC1ERKNS_5TwineERNSt3__110error_codeEb
0000000000006c70 T __ZN4llvm3sys2fs18directory_iteratorC1Ev
00000000000090c0 T __ZN4llvm3sys2fs18directory_iteratorC2ERKNS_5TwineERNSt3__110error_codeEb
000000000000a5b0 T __ZN4llvm3sys2fs18directory_iteratorC2Ev
00000000000072e0 T __ZN4llvm3sys2fs18directory_iteratorD1Ev
000000000000d060 T __ZN4llvm3sys2fs18directory_iteratorD2Ev
0000000000009d70 T __ZN4llvm3sys2fs6detail12DirIterStateC1Ev
0000000000009d90 T __ZN4llvm3sys2fs6detail12DirIterStateC2Ev
0000000000009f50 T __ZN4llvm3sys2fs6detail12DirIterStateD1Ev
0000000000009f70 T __ZN4llvm3sys2fs6detail12DirIterStateD2Ev
                 U __ZN4llvm3sys2fs6detail27directory_iterator_destructERNS2_12DirIterStateE
                 U __ZN4llvm3sys2fs6detail28directory_iterator_constructERNS2_12DirIterStateENS_9StringRefEb
                 U __ZN4llvm3sys2fs6detail28directory_iterator_incrementERNS2_12DirIterStateE
                 U __ZN4llvm3sys2fs6removeERKNS_5TwineEb
                 U __ZN4llvm3sys2fs6statusERKNS_5TwineERNS1_11file_statusEb
                 U __ZN4llvm3sys4path6appendERNS_15SmallVectorImplIcEERKNS_5TwineES7_S7_S7_
                 U __ZN4llvm3sys4path6nativeERKNS_5TwineERNS_15SmallVectorImplIcEENS1_5StyleE
                 U __ZN4llvm3sys4path8filenameENS_9StringRefENS1_5StyleE
                 U __ZN4llvm4dbgsEv
0000000000007d20 T __ZN4llvm5Error10setCheckedEb
0000000000007ed0 T __ZN4llvm5Error11takePayloadEv
0000000000008470 T __ZN4llvm5Error15assertIsCheckedEv
0000000000007d00 T __ZN4llvm5Error6setPtrEPNS_13ErrorInfoBaseE
000000000000d590 T __ZN4llvm5Error7successEv
0000000000007c70 T __ZN4llvm5ErrorC1ENSt3__110unique_ptrINS_13ErrorInfoBaseENS1_14default_deleteIS3_EEEE
000000000000d5d0 T __ZN4llvm5ErrorC1EOS0_
0000000000007c90 T __ZN4llvm5ErrorC2ENSt3__110unique_ptrINS_13ErrorInfoBaseENS1_14default_deleteIS3_EEEE
000000000000d6a0 T __ZN4llvm5ErrorC2EOS0_
000000000000d660 T __ZN4llvm5ErrorC2Ev
00000000000032d0 T __ZN4llvm5ErrorD1Ev
0000000000008420 T __ZN4llvm5ErrorD2Ev
000000000000d6f0 T __ZN4llvm5ErroraSEOS0_
0000000000007e00 T __ZN4llvm5ErrorcvbEv
0000000000008710 T __ZN4llvm5TwineC1ENS0_5ChildENS0_8NodeKindES1_S2_
0000000000008640 T __ZN4llvm5TwineC1ENS0_8NodeKindE
00000000000038d0 T __ZN4llvm5TwineC1EPKc
0000000000008a50 T __ZN4llvm5TwineC1EPKcRKNS_9StringRefE
00000000000068f0 T __ZN4llvm5TwineC1ERKNS_15SmallVectorImplIcEE
00000000000067d0 T __ZN4llvm5TwineC1ERKNS_9StringRefE
0000000000006cf0 T __ZN4llvm5TwineC1ERKNSt3__112basic_stringIcNS1_11char_traitsIcEENS1_9allocatorIcEEEE
0000000000008840 T __ZN4llvm5TwineC2ENS0_5ChildENS0_8NodeKindES1_S2_
0000000000008760 T __ZN4llvm5TwineC2ENS0_8NodeKindE
0000000000008b20 T __ZN4llvm5TwineC2EPKc
0000000000008a80 T __ZN4llvm5TwineC2EPKcRKNS_9StringRefE
0000000000008d80 T __ZN4llvm5TwineC2ERKNS_15SmallVectorImplIcEE
0000000000008bd0 T __ZN4llvm5TwineC2ERKNS_9StringRefE
000000000000ad10 T __ZN4llvm5TwineC2ERKNSt3__112basic_stringIcNS1_11char_traitsIcEENS1_9allocatorIcEEEE
000000000000df00 T __ZN4llvm7ErrorOrINS_3sys2fs10space_infoEE10getStorageEv
0000000000007320 T __ZN4llvm7ErrorOrINS_3sys2fs10space_infoEE3getEv
0000000000007370 T __ZN4llvm7ErrorOrINS_3sys2fs10space_infoEED1Ev
000000000000dec0 T __ZN4llvm7ErrorOrINS_3sys2fs10space_infoEED2Ev
000000000000d900 T __ZN4llvm8ExpectedINS_18CachePruningPolicyEE10getStorageEv
000000000000d820 T __ZN4llvm8ExpectedINS_18CachePruningPolicyEE15getErrorStorageEv
00000000000032b0 T __ZN4llvm8ExpectedINS_18CachePruningPolicyEEC1ENS_5ErrorE
00000000000039a0 T __ZN4llvm8ExpectedINS_18CachePruningPolicyEEC1IS1_EEOT_PNSt3__19enable_ifIXsr3std14is_convertibleIS4_S1_EE5valueEvE4typeE
000000000000d780 T __ZN4llvm8ExpectedINS_18CachePruningPolicyEEC2ENS_5ErrorE
000000000000d8a0 T __ZN4llvm8ExpectedINS_18CachePruningPolicyEEC2IS1_EEOT_PNSt3__19enable_ifIXsr3std14is_convertibleIS4_S1_EE5valueEvE4typeE
0000000000008130 T __ZN4llvm8ExpectedINSt3__16chrono8durationIxNS1_5ratioILl1ELl1EEEEEE10getStorageEv
000000000000d460 T __ZN4llvm8ExpectedINSt3__16chrono8durationIxNS1_5ratioILl1ELl1EEEEEE15assertIsCheckedEv
0000000000007e50 T __ZN4llvm8ExpectedINSt3__16chrono8durationIxNS1_5ratioILl1ELl1EEEEEE15getErrorStorageEv
0000000000002f80 T __ZN4llvm8ExpectedINSt3__16chrono8durationIxNS1_5ratioILl1ELl1EEEEEE9takeErrorEv
0000000000007a90 T __ZN4llvm8ExpectedINSt3__16chrono8durationIxNS1_5ratioILl1ELl1EEEEEEC1ENS_5ErrorE
0000000000007b10 T __ZN4llvm8ExpectedINSt3__16chrono8durationIxNS1_5ratioILl1ELl1EEEEEEC1INS3_IlNS4_ILl3600ELl1EEEEEEEOT_PNS1_9enable_ifIXsr14is_convertibleISB_S6_EE5valueEvE4typeE
0000000000007ae0 T __ZN4llvm8ExpectedINSt3__16chrono8durationIxNS1_5ratioILl1ELl1EEEEEEC1INS3_IlNS4_ILl60ELl1EEEEEEEOT_PNS1_9enable_ifIXsr14is_convertibleISB_S6_EE5valueEvE4typeE
0000000000007ab0 T __ZN4llvm8ExpectedINSt3__16chrono8durationIxNS1_5ratioILl1ELl1EEEEEEC1IS6_EEOT_PNS1_9enable_ifIXsr14is_convertibleIS9_S6_EE5valueEvE4typeE
0000000000007d60 T __ZN4llvm8ExpectedINSt3__16chrono8durationIxNS1_5ratioILl1ELl1EEEEEEC2ENS_5ErrorE
00000000000082e0 T __ZN4llvm8ExpectedINSt3__16chrono8durationIxNS1_5ratioILl1ELl1EEEEEEC2INS3_IlNS4_ILl3600ELl1EEEEEEEOT_PNS1_9enable_ifIXsr14is_convertibleISB_S6_EE5valueEvE4typeE
00000000000081b0 T __ZN4llvm8ExpectedINSt3__16chrono8durationIxNS1_5ratioILl1ELl1EEEEEEC2INS3_IlNS4_ILl60ELl1EEEEEEEOT_PNS1_9enable_ifIXsr14is_convertibleISB_S6_EE5valueEvE4typeE
00000000000080f0 T __ZN4llvm8ExpectedINSt3__16chrono8durationIxNS1_5ratioILl1ELl1EEEEEEC2IS6_EEOT_PNS1_9enable_ifIXsr14is_convertibleIS9_S6_EE5valueEvE4typeE
0000000000003320 T __ZN4llvm8ExpectedINSt3__16chrono8durationIxNS1_5ratioILl1ELl1EEEEEED1Ev
000000000000d350 T __ZN4llvm8ExpectedINSt3__16chrono8durationIxNS1_5ratioILl1ELl1EEEEEED2Ev
0000000000002f60 T __ZN4llvm8ExpectedINSt3__16chrono8durationIxNS1_5ratioILl1ELl1EEEEEEcvbEv
00000000000032f0 T __ZN4llvm8ExpectedINSt3__16chrono8durationIxNS1_5ratioILl1ELl1EEEEEEdeEv
                 U __ZN4llvm9DebugFlagE
00000000000028e0 T __ZN4llvm9StringRefC1Ev
00000000000075c0 T __ZN4llvm9StringRefC2Ev
00000000000038a0 T __ZN4llvmplEPKcRKNS_9StringRefE
0000000000003870 T __ZN4llvmplERKNS_5TwineES2_
000000000000dce0 T __ZNK4llvm11SmallStringILj128EE3strEv
0000000000006be0 T __ZNK4llvm11SmallStringILj128EEcvNS_9StringRefEEv
000000000000a590 T __ZNK4llvm25SmallVectorTemplateCommonIcvE4dataEv
000000000000d140 T __ZNK4llvm25SmallVectorTemplateCommonIcvE7isSmallEv
                 U __ZNK4llvm3sys2fs11file_status19getLastAccessedTimeEv
                 U __ZNK4llvm3sys2fs11file_status23getLastModificationTimeEv
000000000000ada0 T __ZNK4llvm3sys2fs11file_status7getSizeEv
0000000000006ce0 T __ZNK4llvm3sys2fs15directory_entry4pathEv
000000000000a7c0 T __ZNK4llvm3sys2fs15directory_entryeqERKS2_
000000000000a5f0 T __ZNK4llvm3sys2fs18directory_iteratoreqERKS2_
0000000000006c90 T __ZNK4llvm3sys2fs18directory_iteratorneERKS2_
0000000000006cc0 T __ZNK4llvm3sys2fs18directory_iteratorptEv
00000000000080d0 T __ZNK4llvm5Error6getPtrEv
00000000000086f0 T __ZNK4llvm5Twine10getLHSKindEv
0000000000008820 T __ZNK4llvm5Twine10getRHSKindEv
0000000000009380 T __ZNK4llvm5Twine11toStringRefERNS_15SmallVectorImplIcEE
000000000000a030 T __ZNK4llvm5Twine17isSingleStringRefEv
000000000000a0b0 T __ZNK4llvm5Twine18getSingleStringRefEv
0000000000008480 T __ZNK4llvm5Twine6concatERKS0_
0000000000008610 T __ZNK4llvm5Twine6isNullEv
0000000000008670 T __ZNK4llvm5Twine7isEmptyEv
00000000000086a0 T __ZNK4llvm5Twine7isUnaryEv
00000000000088f0 T __ZNK4llvm5Twine7isValidEv
0000000000008a00 T __ZNK4llvm5Twine8isBinaryEv
                 U __ZNK4llvm5Twine8toVectorERNS_15SmallVectorImplIcEE
00000000000087e0 T __ZNK4llvm5Twine9isNullaryEv
0000000000007300 T __ZNK4llvm7ErrorOrINS_3sys2fs10space_infoEEcvbEv
0000000000003900 T __ZNK4llvm9StringRef12getAsIntegerIyEENSt3__19enable_ifIXntsr3std14numeric_limitsIT_EE9is_signedEbE4typeEjRS4_
000000000000d9f0 T __ZNK4llvm9StringRef3endEv
0000000000008e10 T __ZNK4llvm9StringRef3strEv
0000000000003340 T __ZNK4llvm9StringRef4backEv
000000000000d9d0 T __ZNK4llvm9StringRef5beginEv
0000000000001fa0 T __ZNK4llvm9StringRef5splitEc
000000000000adc0 T __ZNK4llvm9StringRefcvNSt3__112basic_stringIcNS1_11char_traitsIcEENS1_9allocatorIcEEEEEv
                 U __ZNKSt3__119__shared_weak_count13__get_deleterERKSt9type_info
000000000000c9c0 T __ZNKSt3__16__treeINS_4pairIyNS_12basic_stringIcNS_11char_traitsIcEENS_9allocatorIcEEEEEENS_4lessIS8_EENS5_IS8_EEE10__root_ptrEv
0000000000009450 T __ZNSt3__110shared_ptrIN4llvm3sys2fs6detail12DirIterStateEE11make_sharedIJEEES6_DpOT_
0000000000009360 T __ZNSt3__110shared_ptrIN4llvm3sys2fs6detail12DirIterStateEED1Ev
0000000000009ff0 T __ZNSt3__110shared_ptrIN4llvm3sys2fs6detail12DirIterStateEED2Ev
000000000000acc0 T __ZNSt3__111char_traitsIcE7compareEPKcS3_m
                 U __ZNSt3__112basic_stringIcNS_11char_traitsIcEENS_9allocatorIcEEE6__initEPKcm
                 U __ZNSt3__112basic_stringIcNS_11char_traitsIcEENS_9allocatorIcEEED1Ev
                 U __ZNSt3__115system_categoryEv
                 U __ZNSt3__116generic_categoryEv
0000000000009ef0 T __ZNSt3__117__compressed_pairINS_9allocatorIN4llvm3sys2fs6detail12DirIterStateEEES6_ED1Ev
0000000000009f10 T __ZNSt3__117__compressed_pairINS_9allocatorIN4llvm3sys2fs6detail12DirIterStateEEES6_ED2Ev
000000000000ce80 T __ZNSt3__118__tree_left_rotateIPNS_16__tree_node_baseIPvEEEEvT_
                 U __ZNSt3__119__shared_weak_count16__release_sharedEv
                 U __ZNSt3__119__shared_weak_countD2Ev
000000000000cf60 T __ZNSt3__119__tree_right_rotateIPNS_16__tree_node_baseIPvEEEEvT_
0000000000009ca0 T __ZNSt3__120__shared_ptr_emplaceIN4llvm3sys2fs6detail12DirIterStateENS_9allocatorIS5_EEE16__on_zero_sharedEv
0000000000009cd0 T __ZNSt3__120__shared_ptr_emplaceIN4llvm3sys2fs6detail12DirIterStateENS_9allocatorIS5_EEE21__on_zero_shared_weakEv
0000000000009c70 T __ZNSt3__120__shared_ptr_emplaceIN4llvm3sys2fs6detail12DirIterStateENS_9allocatorIS5_EEED0Ev
0000000000009c50 T __ZNSt3__120__shared_ptr_emplaceIN4llvm3sys2fs6detail12DirIterStateENS_9allocatorIS5_EEED1Ev
0000000000009ea0 T __ZNSt3__120__shared_ptr_emplaceIN4llvm3sys2fs6detail12DirIterStateENS_9allocatorIS5_EEED2Ev
000000000000cb00 T __ZNSt3__127__tree_balance_after_insertIPNS_16__tree_node_baseIPvEEEEvT_S5_
0000000000009f30 T __ZNSt3__128__libcpp_compressed_pair_impINS_9allocatorIN4llvm3sys2fs6detail12DirIterStateEEES6_Lj1EED2Ev
00000000000073b0 T __ZNSt3__13setINS_4pairIyNS_12basic_stringIcNS_11char_traitsIcEENS_9allocatorIcEEEEEENS_4lessIS8_EENS5_IS8_EEED1Ev
000000000000d170 T __ZNSt3__13setINS_4pairIyNS_12basic_stringIcNS_11char_traitsIcEENS_9allocatorIcEEEEEENS_4lessIS8_EENS5_IS8_EEED2Ev
000000000000ca10 T __ZNSt3__14pairIyNS_12basic_stringIcNS_11char_traitsIcEENS_9allocatorIcEEEEEC1EOS7_
000000000000ca40 T __ZNSt3__14pairIyNS_12basic_stringIcNS_11char_traitsIcEENS_9allocatorIcEEEEEC2EOS7_
000000000000adf0 T __ZNSt3__14pairIyNS_12basic_stringIcNS_11char_traitsIcEENS_9allocatorIcEEEEED1Ev
000000000000d040 T __ZNSt3__14pairIyNS_12basic_stringIcNS_11char_traitsIcEENS_9allocatorIcEEEEED2Ev
000000000000b1f0 T __ZNSt3__16__treeINS_4pairIyNS_12basic_stringIcNS_11char_traitsIcEENS_9allocatorIcEEEEEENS_4lessIS8_EENS5_IS8_EEE12__find_equalIS8_EERPNS_16__tree_node_baseIPvEERPNS_15__tree_end_nodeISH_EERKT_
000000000000c2b0 T __ZNSt3__16__treeINS_4pairIyNS_12basic_stringIcNS_11char_traitsIcEENS_9allocatorIcEEEEEENS_4lessIS8_EENS5_IS8_EEE16__construct_nodeIJS8_EEENS_10unique_ptrINS_11__tree_nodeIS8_PvEENS_22__tree_node_destructorINS5_ISH_EEEEEEDpOT_
000000000000c8c0 T __ZNSt3__16__treeINS_4pairIyNS_12basic_stringIcNS_11char_traitsIcEENS_9allocatorIcEEEEEENS_4lessIS8_EENS5_IS8_EEE16__insert_node_atEPNS_15__tree_end_nodeIPNS_16__tree_node_baseIPvEEEERSH_SH_
000000000000ae10 T __ZNSt3__16__treeINS_4pairIyNS_12basic_stringIcNS_11char_traitsIcEENS_9allocatorIcEEEEEENS_4lessIS8_EENS5_IS8_EEE25__emplace_unique_key_argsIS8_JS8_EEENS1_INS_15__tree_iteratorIS8_PNS_11__tree_nodeIS8_PvEElEEbEERKT_DpOT0_
000000000000d210 T __ZNSt3__16__treeINS_4pairIyNS_12basic_stringIcNS_11char_traitsIcEENS_9allocatorIcEEEEEENS_4lessIS8_EENS5_IS8_EEE7destroyEPNS_11__tree_nodeIS8_PvEE
000000000000dd60 T __ZNSt3__16__treeINS_4pairIyNS_12basic_stringIcNS_11char_traitsIcEENS_9allocatorIcEEEEEENS_4lessIS8_EENS5_IS8_EEEC1ERKSA_
000000000000dd90 T __ZNSt3__16__treeINS_4pairIyNS_12basic_stringIcNS_11char_traitsIcEENS_9allocatorIcEEEEEENS_4lessIS8_EENS5_IS8_EEEC2ERKSA_
000000000000d190 T __ZNSt3__16__treeINS_4pairIyNS_12basic_stringIcNS_11char_traitsIcEENS_9allocatorIcEEEEEENS_4lessIS8_EENS5_IS8_EEED1Ev
000000000000d1b0 T __ZNSt3__16__treeINS_4pairIyNS_12basic_stringIcNS_11char_traitsIcEENS_9allocatorIcEEEEEENS_4lessIS8_EENS5_IS8_EEED2Ev
                 U __ZNSt3__16chrono12system_clock3nowEv
                 U __ZTVNSt3__114__shared_countE
                 U __ZTVNSt3__119__shared_weak_countE
000000000000df80 D __ZTVNSt3__120__shared_ptr_emplaceIN4llvm3sys2fs6detail12DirIterStateENS_9allocatorIS5_EEEE
0000000000006f10 t __ZZN4llvm10pruneCacheENS_9StringRefENS_18CachePruningPolicyEENK3$_0clES0_
                 U __ZdlPv
                 U __Znwm
                 U ___assert_rtn
                 U ___stack_chk_fail
                 U ___stack_chk_guard
                 U ___tolower
                 U _abort
                 U _free
                 U _memchr
                 U _memcmp
                 U _memcpy
                 U _memset
                 U _strlen

libLLVMSupport.a(Chrono.o):
                 U __ZN4llvm11raw_ostream5writeEPKcm
                 U __ZN4llvm11raw_ostream5writeEh
0000000000000790 T __ZN4llvm11raw_ostreamlsENS_9StringRefE
0000000000000650 T __ZN4llvm11raw_ostreamlsEPKc
                 U __ZN4llvm11raw_ostreamlsERKNS_18format_object_baseE
00000000000006f0 T __ZN4llvm11raw_ostreamlsEc
0000000000000850 T __ZN4llvm13format_objectIJlEEC1EPKcRKl
0000000000000880 T __ZN4llvm13format_objectIJlEEC2EPKcRKl
                 U __ZN4llvm18format_object_base4homeEv
0000000000000960 T __ZN4llvm18format_object_baseC2EPKc
0000000000000990 T __ZN4llvm26validate_format_parametersIJlEEC1Ev
00000000000009e0 T __ZN4llvm26validate_format_parametersIJlEEC2Ev
0000000000000a47 S __ZN4llvm6detail4unitINSt3__15ratioILl1ELl1000000000EEEE5valueE
0000000000000a44 S __ZN4llvm6detail4unitINSt3__15ratioILl1ELl1000000EEEE5valueE
0000000000000a41 S __ZN4llvm6detail4unitINSt3__15ratioILl1ELl1000EEEE5valueE
0000000000000a3f S __ZN4llvm6detail4unitINSt3__15ratioILl1ELl1EEEE5valueE
0000000000000a3b S __ZN4llvm6detail4unitINSt3__15ratioILl3600ELl1EEEE5valueE
0000000000000a3d S __ZN4llvm6detail4unitINSt3__15ratioILl60ELl1EEEE5valueE
0000000000000760 T __ZN4llvm6formatIJlEEENS_13format_objectIJDpT_EEEPKcDpRKS2_
0000000000000430 t __ZN4llvmL11getStructTMENSt3__16chrono10time_pointINS1_12system_clockENS1_8durationIxNS0_5ratioILl1ELl1000000000EEEEEEE
0000000000000000 T __ZN4llvmlsERNS_11raw_ostreamENSt3__16chrono10time_pointINS3_12system_clockENS3_8durationIxNS2_5ratioILl1ELl1000000000EEEEEEE
00000000000009f0 T __ZNK4llvm13format_objectIJlEE13snprint_tupleIJLm0EEEEiPcjNS_14index_sequenceIJXspT_EEEE
00000000000009b0 T __ZNK4llvm13format_objectIJlEE7snprintEPcj
                 U __ZNSt3__16chrono12system_clock9to_time_tERKNS0_10time_pointIS1_NS0_8durationIxNS_5ratioILl1ELl1000000EEEEEEE
0000000000000aa8 D __ZTVN4llvm13format_objectIJlEEE
                 U __ZTVN4llvm18format_object_baseE
                 U ___assert_rtn
                 U ___stack_chk_fail
                 U ___stack_chk_guard
                 U _localtime_r
                 U _memcpy
                 U _snprintf
                 U _strftime
                 U _strlen

libLLVMSupport.a(CommandLine.o):
0000000000015210 T _LLVMParseCommandLineOptions
000000000002f960 s __GLOBAL__sub_I_CommandLine.cpp
000000000001e5d0 t __ZL10isGroupingPKN4llvm2cl6OptionE
000000000000d580 t __ZL11getValueStrRKN4llvm2cl6OptionENS_9StringRefE
000000000000ec80 t __ZL11parseDoubleRN4llvm2cl6OptionENS_9StringRefERd
000000000011fda0 b __ZL12GlobalParser
00000000001200f8 b __ZL12PrintOptions
00000000000052f0 t __ZL12isWhitespacec
000000000001d300 t __ZL13ProvideOptionPN4llvm2cl6OptionENS_9StringRefES3_iPKPKcRi
000000000001ada0 t __ZL13RequiresValuePKN4llvm2cl6OptionE
000000000001e000 t __ZL13getOptionPredN4llvm9StringRefERmPFbPKNS_2cl6OptionEERKNS_9StringMapIPS3_NS_15MallocAllocatorEEE
0000000000025dc0 t __ZL14OptNameComparePKNSt3__14pairIPKcPN4llvm2cl6OptionEEES9_
0000000000026820 t __ZL14SubNameComparePKNSt3__14pairIPKcPN4llvm2cl10SubCommandEEES9_
0000000000005a90 t __ZL14parseBackslashN4llvm9StringRefEmRNS_11SmallStringILj128EEE
000000000011fe18 b __ZL15GenericCategory
00000000001201b0 b __ZL15PrintAllOptions
0000000000026280 t __ZL15sortSubCommandsRKN4llvm15SmallPtrSetImplIPNS_2cl10SubCommandEEERNS_15SmallVectorImplINSt3__14pairIPKcS3_EEEE
0000000000006080 t __ZL18ExpandResponseFileN4llvm9StringRefERNS_11StringSaverEPFvS0_S2_RNS_15SmallVectorImplIPKcEEbES7_bb
000000000001c7d0 t __ZL19LookupNearestOptionN4llvm9StringRefERKNS_9StringMapIPNS_2cl6OptionENS_15MallocAllocatorEEERNSt3__112basic_stringIcNS9_11char_traitsIcEENS9_9allocatorIcEEEE
0000000000120358 b __ZL20ExtraVersionPrinters
000000000011fe08 b __ZL20WrappedHiddenPrinter
000000000011fdf8 b __ZL20WrappedNormalPrinter
0000000000019d20 t __ZL20hasUTF8ByteOrderMarkN4llvm8ArrayRefIcEE
000000000001e430 t __ZL20isPrefixedOrGroupingPKN4llvm2cl6OptionE
0000000000120270 b __ZL22OverrideVersionPrinter
0000000000120350 b __ZL22VersionPrinterInstance
000000000001ae60 t __ZL23ProvidePositionalOptionPN4llvm2cl6OptionENS_9StringRefEi
000000000011fde8 b __ZL24CategorizedHiddenPrinter
000000000011fdd8 b __ZL24CategorizedNormalPrinter
000000000011fdc8 b __ZL26UncategorizedHiddenPrinter
000000000011fdb8 b __ZL26UncategorizedNormalPrinter
000000000001adf0 t __ZL27EatsUnboundedNumberOfValuesPKN4llvm2cl6OptionE
000000000001e900 t __ZL29CommaSeparateAndAddOccurrencePN4llvm2cl6OptionEjNS_9StringRefES3_b
000000000001ba80 t __ZL29HandlePrefixedOrGroupedOptionRN4llvm9StringRefES1_RbRKNS_9StringMapIPNS_2cl6OptionENS_15MallocAllocatorEEE
000000000011ff98 b __ZL3HOp
0000000000120048 b __ZL4HHOp
000000000011fe38 b __ZL4HLOp
000000000011fee8 b __ZL5HLHOp
00000000001202a0 b __ZL6VersOp
0000000000005440 t __ZL7isQuotec
00000000000257f0 t __ZL8sortOptsRN4llvm9StringMapIPNS_2cl6OptionENS_15MallocAllocatorEEERNS_15SmallVectorImplINSt3__14pairIPKcS3_EEEEb
000000000001fb50 t __ZN12_GLOBAL__N_111HelpPrinter12printOptionsERN4llvm11SmallVectorINSt3__14pairIPKcPNS1_2cl6OptionEEELj128EEEm
00000000000264f0 t __ZN12_GLOBAL__N_111HelpPrinter16printSubCommandsERN4llvm11SmallVectorINSt3__14pairIPKcPNS1_2cl10SubCommandEEELj128EEEm
0000000000012f10 t __ZN12_GLOBAL__N_111HelpPrinter9printHelpEv
00000000000122d0 t __ZN12_GLOBAL__N_111HelpPrinterC1Eb
000000000001fb20 t __ZN12_GLOBAL__N_111HelpPrinterC2Eb
000000000001fc70 t __ZN12_GLOBAL__N_111HelpPrinterD0Ev
0000000000012300 t __ZN12_GLOBAL__N_111HelpPrinterD1Ev
000000000001fca0 t __ZN12_GLOBAL__N_111HelpPrinterD2Ev
000000000002adb0 t __ZN12_GLOBAL__N_111HelpPrinteraSEb
0000000000013f50 t __ZN12_GLOBAL__N_114VersionPrinter5printEv
000000000002d340 t __ZN12_GLOBAL__N_114VersionPrinteraSEb
000000000001af80 t __ZN12_GLOBAL__N_117CommandLineParser12LookupOptionERN4llvm2cl10SubCommandERNS1_9StringRefES6_
0000000000004340 t __ZN12_GLOBAL__N_117CommandLineParser12removeOptionEPN4llvm2cl6OptionE
0000000000017500 t __ZN12_GLOBAL__N_117CommandLineParser12removeOptionEPN4llvm2cl6OptionEPNS2_10SubCommandE
00000000000045d0 t __ZN12_GLOBAL__N_117CommandLineParser12updateArgStrEPN4llvm2cl6OptionENS1_9StringRefE
00000000000181b0 t __ZN12_GLOBAL__N_117CommandLineParser12updateArgStrEPN4llvm2cl6OptionENS1_9StringRefEPNS2_10SubCommandE
000000000001aaf0 t __ZN12_GLOBAL__N_117CommandLineParser16LookupSubCommandEN4llvm9StringRefE
0000000000003ed0 t __ZN12_GLOBAL__N_117CommandLineParser16addLiteralOptionERN4llvm2cl6OptionENS1_9StringRefE
0000000000015eb0 t __ZN12_GLOBAL__N_117CommandLineParser16addLiteralOptionERN4llvm2cl6OptionEPNS2_10SubCommandENS1_9StringRefE
0000000000004810 t __ZN12_GLOBAL__N_117CommandLineParser16registerCategoryEPN4llvm2cl14OptionCategoryE
0000000000012910 t __ZN12_GLOBAL__N_117CommandLineParser17printOptionValuesEv
0000000000004900 t __ZN12_GLOBAL__N_117CommandLineParser18registerSubCommandEPN4llvm2cl10SubCommandE
0000000000004d60 t __ZN12_GLOBAL__N_117CommandLineParser19getActiveSubCommandEv
0000000000004b40 t __ZN12_GLOBAL__N_117CommandLineParser20unregisterSubCommandEPN4llvm2cl10SubCommandE
0000000000008280 t __ZN12_GLOBAL__N_117CommandLineParser23ParseCommandLineOptionsEiPKPKcN4llvm9StringRefEPNS5_11raw_ostreamE
00000000000147f0 t __ZN12_GLOBAL__N_117CommandLineParser24getRegisteredSubcommandsEv
0000000000015110 t __ZN12_GLOBAL__N_117CommandLineParser25ResetAllOptionOccurrencesEv
0000000000014c20 t __ZN12_GLOBAL__N_117CommandLineParser5resetEv
0000000000004210 t __ZN12_GLOBAL__N_117CommandLineParser9addOptionEPN4llvm2cl6OptionE
0000000000016fe0 t __ZN12_GLOBAL__N_117CommandLineParser9addOptionEPN4llvm2cl6OptionEPNS2_10SubCommandE
0000000000028070 t __ZN12_GLOBAL__N_117CommandLineParserC1Ev
0000000000028090 t __ZN12_GLOBAL__N_117CommandLineParserC2Ev
00000000000283e0 t __ZN12_GLOBAL__N_117CommandLineParserD1Ev
0000000000028400 t __ZN12_GLOBAL__N_117CommandLineParserD2Ev
0000000000012370 t __ZN12_GLOBAL__N_118HelpPrinterWrapperC1ERNS_11HelpPrinterERNS_22CategorizedHelpPrinterE
00000000000255e0 t __ZN12_GLOBAL__N_118HelpPrinterWrapperC2ERNS_11HelpPrinterERNS_22CategorizedHelpPrinterE
000000000002bc20 t __ZN12_GLOBAL__N_118HelpPrinterWrapperaSEb
000000000001fd00 t __ZN12_GLOBAL__N_122CategorizedHelpPrinter12printOptionsERN4llvm11SmallVectorINSt3__14pairIPKcPNS1_2cl6OptionEEELj128EEEm
0000000000021160 t __ZN12_GLOBAL__N_122CategorizedHelpPrinter21OptionCategoryCompareEPKPN4llvm2cl14OptionCategoryES6_
0000000000012320 t __ZN12_GLOBAL__N_122CategorizedHelpPrinterC1Eb
000000000001fcb0 t __ZN12_GLOBAL__N_122CategorizedHelpPrinterC2Eb
0000000000021090 t __ZN12_GLOBAL__N_122CategorizedHelpPrinterD0Ev
0000000000012350 t __ZN12_GLOBAL__N_122CategorizedHelpPrinterD1Ev
00000000000255c0 t __ZN12_GLOBAL__N_122CategorizedHelpPrinterD2Ev
00000000000269e0 T __ZN4llvm10make_rangeINS_19SmallPtrSetIteratorIPNS_2cl10SubCommandEEEEENS_14iterator_rangeIT_EES7_S7_
00000000000282c0 T __ZN4llvm11SmallPtrSetIPNS_2cl10SubCommandELj4EEC1Ev
0000000000028360 T __ZN4llvm11SmallPtrSetIPNS_2cl10SubCommandELj4EEC2Ev
00000000000256d0 T __ZN4llvm11SmallPtrSetIPNS_2cl10SubCommandELj4EED1Ev
00000000000256f0 T __ZN4llvm11SmallPtrSetIPNS_2cl10SubCommandELj4EED2Ev
00000000000282a0 T __ZN4llvm11SmallPtrSetIPNS_2cl14OptionCategoryELj16EEC1Ev
00000000000282e0 T __ZN4llvm11SmallPtrSetIPNS_2cl14OptionCategoryELj16EEC2Ev
0000000000028460 T __ZN4llvm11SmallPtrSetIPNS_2cl14OptionCategoryELj16EED1Ev
00000000000284a0 T __ZN4llvm11SmallPtrSetIPNS_2cl14OptionCategoryELj16EED2Ev
0000000000025b00 T __ZN4llvm11SmallPtrSetIPNS_2cl6OptionELj32EEC1Ev
0000000000025e10 T __ZN4llvm11SmallPtrSetIPNS_2cl6OptionELj32EEC2Ev
0000000000025df0 T __ZN4llvm11SmallPtrSetIPNS_2cl6OptionELj32EED1Ev
0000000000026130 T __ZN4llvm11SmallPtrSetIPNS_2cl6OptionELj32EED2Ev
0000000000019f40 T __ZN4llvm11SmallStringILj128EE5c_strEv
0000000000019e70 T __ZN4llvm11SmallStringILj128EE6appendENS_9StringRefE
00000000000199f0 T __ZN4llvm11SmallStringILj128EE6appendEmc
00000000000052b0 T __ZN4llvm11SmallStringILj128EEC1Ev
0000000000019830 T __ZN4llvm11SmallStringILj128EEC2Ev
0000000000005500 T __ZN4llvm11SmallStringILj128EED1Ev
0000000000019900 T __ZN4llvm11SmallStringILj128EED2Ev
000000000001f9c0 T __ZN4llvm11SmallStringILj32EEC1Ev
000000000001fa00 T __ZN4llvm11SmallStringILj32EEC2Ev
000000000001f9e0 T __ZN4llvm11SmallStringILj32EED1Ev
000000000001fa40 T __ZN4llvm11SmallStringILj32EED2Ev
00000000000178a0 T __ZN4llvm11SmallVectorINS_9StringRefELj16EEC1Ev
0000000000017be0 T __ZN4llvm11SmallVectorINS_9StringRefELj16EEC2Ev
0000000000017bc0 T __ZN4llvm11SmallVectorINS_9StringRefELj16EED1Ev
0000000000017f90 T __ZN4llvm11SmallVectorINS_9StringRefELj16EED2Ev
000000000001ae40 T __ZN4llvm11SmallVectorINSt3__14pairINS_9StringRefEjEELj4EEC1Ev
000000000001de90 T __ZN4llvm11SmallVectorINSt3__14pairINS_9StringRefEjEELj4EEC2Ev
000000000001dab0 T __ZN4llvm11SmallVectorINSt3__14pairINS_9StringRefEjEELj4EED1Ev
000000000001f2d0 T __ZN4llvm11SmallVectorINSt3__14pairINS_9StringRefEjEELj4EED2Ev
0000000000026260 T __ZN4llvm11SmallVectorINSt3__14pairIPKcPNS_2cl10SubCommandEEELj128EEC1Ev
0000000000026690 T __ZN4llvm11SmallVectorINSt3__14pairIPKcPNS_2cl10SubCommandEEELj128EEC2Ev
0000000000026670 T __ZN4llvm11SmallVectorINSt3__14pairIPKcPNS_2cl10SubCommandEEELj128EED1Ev
00000000000268f0 T __ZN4llvm11SmallVectorINSt3__14pairIPKcPNS_2cl10SubCommandEEELj128EED2Ev
00000000000257d0 T __ZN4llvm11SmallVectorINSt3__14pairIPKcPNS_2cl6OptionEEELj128EEC1Ev
0000000000025a50 T __ZN4llvm11SmallVectorINSt3__14pairIPKcPNS_2cl6OptionEEELj128EEC2Ev
0000000000025a30 T __ZN4llvm11SmallVectorINSt3__14pairIPKcPNS_2cl6OptionEEELj128EED1Ev
0000000000026170 T __ZN4llvm11SmallVectorINSt3__14pairIPKcPNS_2cl6OptionEEELj128EED2Ev
000000000001a800 T __ZN4llvm11SmallVectorINSt3__14pairIPvmEELj0EEC1Ev
000000000001a8d0 T __ZN4llvm11SmallVectorINSt3__14pairIPvmEELj0EEC2Ev
0000000000029ca0 T __ZN4llvm11SmallVectorINSt3__14pairIPvmEELj0EED1Ev
0000000000029d80 T __ZN4llvm11SmallVectorINSt3__14pairIPvmEELj0EED2Ev
0000000000006060 T __ZN4llvm11SmallVectorIPKcLj0EEC1Ev
00000000000294e0 T __ZN4llvm11SmallVectorIPKcLj0EEC2Ev
00000000000078e0 T __ZN4llvm11SmallVectorIPKcLj0EED1Ev
000000000001a6b0 T __ZN4llvm11SmallVectorIPKcLj0EED2Ev
0000000000008040 T __ZN4llvm11SmallVectorIPKcLj20EEC1Ev
000000000001aa90 T __ZN4llvm11SmallVectorIPKcLj20EEC1IPKS2_vEET_S7_
0000000000029aa0 T __ZN4llvm11SmallVectorIPKcLj20EEC2Ev
000000000001db70 T __ZN4llvm11SmallVectorIPKcLj20EEC2IPKS2_vEET_S7_
0000000000008240 T __ZN4llvm11SmallVectorIPKcLj20EED1Ev
000000000001a9a0 T __ZN4llvm11SmallVectorIPKcLj20EED2Ev
0000000000026e50 T __ZN4llvm11SmallVectorIPNS_2cl6OptionELj4EEC1Ev
0000000000026e90 T __ZN4llvm11SmallVectorIPNS_2cl6OptionELj4EEC2Ev
0000000000027030 T __ZN4llvm11SmallVectorIPNS_2cl6OptionELj4EED1Ev
0000000000027120 T __ZN4llvm11SmallVectorIPNS_2cl6OptionELj4EED2Ev
000000000001a7e0 T __ZN4llvm11SmallVectorIPvLj4EEC1Ev
000000000001a820 T __ZN4llvm11SmallVectorIPvLj4EEC2Ev
0000000000029cc0 T __ZN4llvm11SmallVectorIPvLj4EED1Ev
0000000000029e50 T __ZN4llvm11SmallVectorIPvLj4EED2Ev
0000000000019850 T __ZN4llvm11SmallVectorIcLj128EEC2Ev
0000000000019920 T __ZN4llvm11SmallVectorIcLj128EED2Ev
000000000001fa20 T __ZN4llvm11SmallVectorIcLj32EEC2Ev
000000000001fa60 T __ZN4llvm11SmallVectorIcLj32EED2Ev
                 U __ZN4llvm11StringSaver4saveENS_9StringRefE
00000000000080b0 T __ZN4llvm11StringSaver4saveEPKc
0000000000008080 T __ZN4llvm11StringSaverC1ERNS_20BumpPtrAllocatorImplINS_15MallocAllocatorELm4096ELm4096EEE
000000000001a980 T __ZN4llvm11StringSaverC2ERNS_20BumpPtrAllocatorImplINS_15MallocAllocatorELm4096ELm4096EEE
                 U __ZN4llvm11raw_ostream5writeEPKcm
                 U __ZN4llvm11raw_ostream5writeEh
                 U __ZN4llvm11raw_ostream6indentEj
000000000001fad0 T __ZN4llvm11raw_ostreamC2Eb
000000000000c410 T __ZN4llvm11raw_ostreamlsENS_9StringRefE
000000000000c6c0 T __ZN4llvm11raw_ostreamlsEPKc
000000000000c4d0 T __ZN4llvm11raw_ostreamlsERKNSt3__112basic_stringIcNS1_11char_traitsIcEENS1_9allocatorIcEEEE
000000000000d5e0 T __ZN4llvm11raw_ostreamlsEc
                 U __ZN4llvm11raw_ostreamlsEd
000000000000fe60 T __ZN4llvm11raw_ostreamlsEi
0000000000010ca0 T __ZN4llvm11raw_ostreamlsEj
                 U __ZN4llvm11raw_ostreamlsEl
                 U __ZN4llvm11raw_ostreamlsEm
                 U __ZN4llvm11raw_ostreamlsEy
                 U __ZN4llvm12MemoryBuffer7getFileERKNS_5TwineExbb
0000000000014610 T __ZN4llvm12is_containedIRNS_11SmallPtrSetIPNS_2cl10SubCommandELj4EEES4_EEbOT_RKT0_
0000000000027ea0 t __ZN4llvm13ManagedStaticIN12_GLOBAL__N_117CommandLineParserENS_14object_creatorIS2_EENS_14object_deleterIS2_EEEdeEv
0000000000003eb0 t __ZN4llvm13ManagedStaticIN12_GLOBAL__N_117CommandLineParserENS_14object_creatorIS2_EENS_14object_deleterIS2_EEEptEv
0000000000012430 T __ZN4llvm13ManagedStaticINS_2cl10SubCommandENS_14object_creatorIS2_EENS_14object_deleterIS2_EEEdeEv
0000000000019310 T __ZN4llvm13ManagedStaticINS_2cl10SubCommandENS_14object_creatorIS2_EENS_14object_deleterIS2_EEEptEv
                 U __ZN4llvm13StringMapImpl11RehashTableEj
                 U __ZN4llvm13StringMapImpl15LookupBucketForENS_9StringRefE
0000000000016850 T __ZN4llvm13StringMapImpl15getTombstoneValEv
                 U __ZN4llvm13StringMapImpl9RemoveKeyEPNS_18StringMapEntryBaseE
0000000000026f60 T __ZN4llvm13StringMapImplC2Ej
00000000000168b0 T __ZN4llvm14StringMapEntryIPNS_2cl6OptionEE6CreateINS_15MallocAllocatorEJS3_EEEPS4_NS_9StringRefERT_DpOT0_
0000000000017ec0 T __ZN4llvm14StringMapEntryIPNS_2cl6OptionEE7DestroyINS_15MallocAllocatorEEEvRT_
0000000000016ad0 T __ZN4llvm14StringMapEntryIPNS_2cl6OptionEEC1IJS3_EEEjDpOT_
0000000000016b20 T __ZN4llvm14StringMapEntryIPNS_2cl6OptionEEC2IJS3_EEEjDpOT_
00000000000210c0 T __ZN4llvm14array_pod_sortINSt3__111__wrap_iterIPPNS_2cl14OptionCategoryEEEEEvT_S8_PFiPKNS1_15iterator_traitsIS8_E10value_typeESD_E
00000000000267c0 T __ZN4llvm14array_pod_sortIPNSt3__14pairIPKcPNS_2cl10SubCommandEEEEEvT_SA_PFiPKNS1_15iterator_traitsISA_E10value_typeESF_E
0000000000025d60 T __ZN4llvm14array_pod_sortIPNSt3__14pairIPKcPNS_2cl6OptionEEEEEvT_SA_PFiPKNS1_15iterator_traitsISA_E10value_typeESF_E
0000000000026a60 T __ZN4llvm14iterator_rangeINS_19SmallPtrSetIteratorIPNS_2cl10SubCommandEEEEC1ES5_S5_
0000000000026aa0 T __ZN4llvm14iterator_rangeINS_19SmallPtrSetIteratorIPNS_2cl10SubCommandEEEEC2ES5_S5_
0000000000028000 t __ZN4llvm14object_creatorIN12_GLOBAL__N_117CommandLineParserEE4callEv
0000000000026d40 T __ZN4llvm14object_creatorINS_2cl10SubCommandEE4callEv
0000000000028030 t __ZN4llvm14object_deleterIN12_GLOBAL__N_117CommandLineParserEE4callEPv
0000000000026d80 T __ZN4llvm14object_deleterINS_2cl10SubCommandEE4callEPv
0000000000017f20 T __ZN4llvm15MallocAllocator10DeallocateEPKvm
0000000000016aa0 T __ZN4llvm15MallocAllocator8AllocateEmm
0000000000019610 T __ZN4llvm15SmallPtrSetImplIPNS_2cl10SubCommandEE5eraseES3_
00000000000191f0 T __ZN4llvm15SmallPtrSetImplIPNS_2cl10SubCommandEE6insertES3_
00000000000283a0 T __ZN4llvm15SmallPtrSetImplIPNS_2cl10SubCommandEEC2EPPKvj
0000000000025710 T __ZN4llvm15SmallPtrSetImplIPNS_2cl10SubCommandEED2Ev
0000000000018500 T __ZN4llvm15SmallPtrSetImplIPNS_2cl14OptionCategoryEE6insertES3_
0000000000028320 T __ZN4llvm15SmallPtrSetImplIPNS_2cl14OptionCategoryEEC2EPPKvj
00000000000284c0 T __ZN4llvm15SmallPtrSetImplIPNS_2cl14OptionCategoryEED2Ev
0000000000025b40 T __ZN4llvm15SmallPtrSetImplIPNS_2cl6OptionEE6insertES3_
0000000000025e50 T __ZN4llvm15SmallPtrSetImplIPNS_2cl6OptionEEC2EPPKvj
0000000000026150 T __ZN4llvm15SmallPtrSetImplIPNS_2cl6OptionEED2Ev
                 U __ZN4llvm15SmallVectorBase8grow_podEPvmm
0000000000017c90 T __ZN4llvm15SmallVectorBaseC2EPvm
0000000000017c00 T __ZN4llvm15SmallVectorImplINS_9StringRefEEC2Ej
0000000000017fb0 T __ZN4llvm15SmallVectorImplINS_9StringRefEED2Ev
000000000001deb0 T __ZN4llvm15SmallVectorImplINSt3__14pairINS_9StringRefEjEEEC2Ej
000000000001f2f0 T __ZN4llvm15SmallVectorImplINSt3__14pairINS_9StringRefEjEEED2Ev
00000000000266b0 T __ZN4llvm15SmallVectorImplINSt3__14pairIPKcPNS_2cl10SubCommandEEEEC2Ej
0000000000026910 T __ZN4llvm15SmallVectorImplINSt3__14pairIPKcPNS_2cl10SubCommandEEEED2Ev
0000000000025a70 T __ZN4llvm15SmallVectorImplINSt3__14pairIPKcPNS_2cl6OptionEEEEC2Ej
0000000000026190 T __ZN4llvm15SmallVectorImplINSt3__14pairIPKcPNS_2cl6OptionEEEED2Ev
000000000001a8f0 T __ZN4llvm15SmallVectorImplINSt3__14pairIPvmEEEC2Ej
0000000000029da0 T __ZN4llvm15SmallVectorImplINSt3__14pairIPvmEEED2Ev
0000000000007040 T __ZN4llvm15SmallVectorImplIPKcE5eraseEPKS2_
00000000000296a0 T __ZN4llvm15SmallVectorImplIPKcE6appendINSt3__113move_iteratorIPS2_EEvEEvT_S9_
000000000001dbf0 T __ZN4llvm15SmallVectorImplIPKcE6appendIPKS2_vEEvT_S7_
0000000000029540 T __ZN4llvm15SmallVectorImplIPKcE6appendIPS2_vEEvT_S6_
0000000000007210 T __ZN4llvm15SmallVectorImplIPKcE6insertIPS2_vEES5_S5_T_S6_
0000000000029660 T __ZN4llvm15SmallVectorImplIPKcE7reserveEm
000000000001dbc0 T __ZN4llvm15SmallVectorImplIPKcEC2Ej
000000000001a6d0 T __ZN4llvm15SmallVectorImplIPKcED2Ev
0000000000004be0 T __ZN4llvm15SmallVectorImplIPNS_2cl6OptionEE5clearEv
00000000000179f0 T __ZN4llvm15SmallVectorImplIPNS_2cl6OptionEE5eraseEPKS3_
0000000000026eb0 T __ZN4llvm15SmallVectorImplIPNS_2cl6OptionEEC2Ej
0000000000027140 T __ZN4llvm15SmallVectorImplIPNS_2cl6OptionEED2Ev
000000000001a840 T __ZN4llvm15SmallVectorImplIPvEC2Ej
0000000000029e70 T __ZN4llvm15SmallVectorImplIPvED2Ev
00000000000054b0 T __ZN4llvm15SmallVectorImplIcE5clearEv
0000000000019a30 T __ZN4llvm15SmallVectorImplIcE6appendEmRKc
000000000001a3c0 T __ZN4llvm15SmallVectorImplIcE6appendIPKcvEEvT_S5_
0000000000019870 T __ZN4llvm15SmallVectorImplIcEC2Ej
0000000000019940 T __ZN4llvm15SmallVectorImplIcED2Ev
0000000000016a20 T __ZN4llvm17StringMapIterBaseINS_17StringMapIteratorIPNS_2cl6OptionEEENS_14StringMapEntryIS4_EEE23AdvancePastEmptyBucketsEv
00000000000169e0 T __ZN4llvm17StringMapIterBaseINS_17StringMapIteratorIPNS_2cl6OptionEEENS_14StringMapEntryIS4_EEEC2EPPNS_18StringMapEntryBaseEb
0000000000014a50 T __ZN4llvm17StringMapIterBaseINS_17StringMapIteratorIPNS_2cl6OptionEEENS_14StringMapEntryIS4_EEEppEv
000000000001e7d0 T __ZN4llvm17StringMapIterBaseINS_22StringMapConstIteratorIPNS_2cl6OptionEEEKNS_14StringMapEntryIS4_EEE23AdvancePastEmptyBucketsEv
000000000001e790 T __ZN4llvm17StringMapIterBaseINS_22StringMapConstIteratorIPNS_2cl6OptionEEEKNS_14StringMapEntryIS4_EEEC2EPPNS_18StringMapEntryBaseEb
000000000001e8b0 T __ZN4llvm17StringMapIterBaseINS_22StringMapConstIteratorIPNS_2cl6OptionEEEKNS_14StringMapEntryIS4_EEEppEv
0000000000016870 T __ZN4llvm17StringMapIteratorIPNS_2cl6OptionEEC1EPPNS_18StringMapEntryBaseEb
00000000000169a0 T __ZN4llvm17StringMapIteratorIPNS_2cl6OptionEEC2EPPNS_18StringMapEntryBaseEb
0000000000016b70 T __ZN4llvm18StringMapEntryBaseC2Ej
                 U __ZN4llvm18getAsSignedIntegerENS_9StringRefEjRx
                 U __ZN4llvm18isCurrentDebugTypeEPKc
000000000000fe30 T __ZN4llvm18raw_string_ostreamC1ERNSt3__112basic_stringIcNS1_11char_traitsIcEENS1_9allocatorIcEEEE
000000000001fa80 T __ZN4llvm18raw_string_ostreamC2ERNSt3__112basic_stringIcNS1_11char_traitsIcEENS1_9allocatorIcEEEE
                 U __ZN4llvm18raw_string_ostreamD1Ev
                 U __ZN4llvm18report_fatal_errorEPKcb
0000000000018b00 T __ZN4llvm19SmallPtrSetImplBase10insert_impEPKv
0000000000016f80 T __ZN4llvm19SmallPtrSetImplBase14getEmptyMarkerEv
                 U __ZN4llvm19SmallPtrSetImplBase14insert_imp_bigEPKv
                 U __ZN4llvm19SmallPtrSetImplBase16shrink_and_clearEv
0000000000016f90 T __ZN4llvm19SmallPtrSetImplBase18getTombstoneMarkerEv
0000000000026b00 T __ZN4llvm19SmallPtrSetImplBase5clearEv
0000000000019650 T __ZN4llvm19SmallPtrSetImplBase9erase_impEPKv
0000000000025e90 T __ZN4llvm19SmallPtrSetImplBaseC2EPPKvj
0000000000025730 T __ZN4llvm19SmallPtrSetImplBaseD2Ev
0000000000016cd0 T __ZN4llvm19SmallPtrSetIteratorIPNS_2cl10SubCommandEEC1EPKPKvS8_
0000000000016d00 T __ZN4llvm19SmallPtrSetIteratorIPNS_2cl10SubCommandEEC2EPKPKvS8_
0000000000016380 T __ZN4llvm19SmallPtrSetIteratorIPNS_2cl10SubCommandEEppEv
0000000000018a50 T __ZN4llvm19SmallPtrSetIteratorIPNS_2cl14OptionCategoryEEC1EPKPKvS8_
0000000000018a80 T __ZN4llvm19SmallPtrSetIteratorIPNS_2cl14OptionCategoryEEC2EPKPKvS8_
0000000000018840 T __ZN4llvm19SmallPtrSetIteratorIPNS_2cl14OptionCategoryEEppEv
0000000000026020 T __ZN4llvm19SmallPtrSetIteratorIPNS_2cl6OptionEEC1EPKPKvS8_
0000000000026050 T __ZN4llvm19SmallPtrSetIteratorIPNS_2cl6OptionEEC2EPKPKvS8_
0000000000029b40 T __ZN4llvm20BumpPtrAllocatorImplINS_15MallocAllocatorELm4096ELm4096EE15DeallocateSlabsEPPvS4_
0000000000029ce0 T __ZN4llvm20BumpPtrAllocatorImplINS_15MallocAllocatorELm4096ELm4096EE15computeSlabSizeEj
0000000000029bf0 T __ZN4llvm20BumpPtrAllocatorImplINS_15MallocAllocatorELm4096ELm4096EE26DeallocateCustomSizedSlabsEv
0000000000008060 T __ZN4llvm20BumpPtrAllocatorImplINS_15MallocAllocatorELm4096ELm4096EEC1Ev
000000000001a780 T __ZN4llvm20BumpPtrAllocatorImplINS_15MallocAllocatorELm4096ELm4096EEC2Ev
0000000000008220 T __ZN4llvm20BumpPtrAllocatorImplINS_15MallocAllocatorELm4096ELm4096EED1Ev
0000000000029ac0 T __ZN4llvm20BumpPtrAllocatorImplINS_15MallocAllocatorELm4096ELm4096EED2Ev
                 U __ZN4llvm20getAsUnsignedIntegerENS_9StringRefEjRy
000000000001dfe0 T __ZN4llvm20iterator_facade_baseINS_17StringMapIteratorIPNS_2cl6OptionEEENSt3__120forward_iterator_tagENS_14StringMapEntryIS4_EElPS9_RS9_EptEv
000000000001e5b0 T __ZN4llvm20iterator_facade_baseINS_22StringMapConstIteratorIPNS_2cl6OptionEEENSt3__120forward_iterator_tagEKNS_14StringMapEntryIS4_EElPSA_RSA_EptEv
0000000000016b90 T __ZN4llvm20shouldReverseIterateIPvEEbv
00000000000195f0 T __ZN4llvm21PointerLikeTypeTraitsIPNS_2cl10SubCommandEE16getAsVoidPointerES3_
0000000000016fc0 T __ZN4llvm21PointerLikeTypeTraitsIPNS_2cl10SubCommandEE18getFromVoidPointerEPv
00000000000190b0 T __ZN4llvm21PointerLikeTypeTraitsIPNS_2cl14OptionCategoryEE16getAsVoidPointerES3_
00000000000188f0 T __ZN4llvm21PointerLikeTypeTraitsIPNS_2cl14OptionCategoryEE18getFromVoidPointerEPv
0000000000025f40 T __ZN4llvm21PointerLikeTypeTraitsIPNS_2cl6OptionEE16getAsVoidPointerES3_
                 U __ZN4llvm21hasUTF16ByteOrderMarkENS_8ArrayRefIcEE
000000000001e710 T __ZN4llvm22StringMapConstIteratorIPNS_2cl6OptionEEC1EPPNS_18StringMapEntryBaseEb
000000000001e750 T __ZN4llvm22StringMapConstIteratorIPNS_2cl6OptionEEC2EPPNS_18StringMapEntryBaseEb
                 U __ZN4llvm22report_bad_alloc_errorEPKcb
0000000000016e90 T __ZN4llvm23SmallPtrSetIteratorImpl17AdvanceIfNotValidEv
0000000000016da0 T __ZN4llvm23SmallPtrSetIteratorImpl17RetreatIfNotValidEv
0000000000016d40 T __ZN4llvm23SmallPtrSetIteratorImplC2EPKPKvS4_
0000000000018020 T __ZN4llvm23SmallVectorTemplateBaseINS_9StringRefELb1EE13destroy_rangeEPS1_S3_
0000000000017cd0 T __ZN4llvm23SmallVectorTemplateBaseINS_9StringRefELb1EE4growEm
00000000000178c0 T __ZN4llvm23SmallVectorTemplateBaseINS_9StringRefELb1EE9push_backERKS1_
0000000000017c30 T __ZN4llvm23SmallVectorTemplateBaseINS_9StringRefELb1EEC2Em
000000000001f360 T __ZN4llvm23SmallVectorTemplateBaseINSt3__14pairINS_9StringRefEjEELb1EE13destroy_rangeEPS4_S6_
000000000001df40 T __ZN4llvm23SmallVectorTemplateBaseINSt3__14pairINS_9StringRefEjEELb1EE4growEm
000000000001aef0 T __ZN4llvm23SmallVectorTemplateBaseINSt3__14pairINS_9StringRefEjEELb1EE9push_backERKS4_
000000000001dee0 T __ZN4llvm23SmallVectorTemplateBaseINSt3__14pairINS_9StringRefEjEELb1EEC2Em
0000000000026980 T __ZN4llvm23SmallVectorTemplateBaseINSt3__14pairIPKcPNS_2cl10SubCommandEEELb1EE13destroy_rangeEPS8_SA_
0000000000026850 T __ZN4llvm23SmallVectorTemplateBaseINSt3__14pairIPKcPNS_2cl10SubCommandEEELb1EE4growEm
0000000000026740 T __ZN4llvm23SmallVectorTemplateBaseINSt3__14pairIPKcPNS_2cl10SubCommandEEELb1EE9push_backERKS8_
00000000000266e0 T __ZN4llvm23SmallVectorTemplateBaseINSt3__14pairIPKcPNS_2cl10SubCommandEEELb1EEC2Em
0000000000026200 T __ZN4llvm23SmallVectorTemplateBaseINSt3__14pairIPKcPNS_2cl6OptionEEELb1EE13destroy_rangeEPS8_SA_
0000000000026090 T __ZN4llvm23SmallVectorTemplateBaseINSt3__14pairIPKcPNS_2cl6OptionEEELb1EE4growEm
0000000000025c60 T __ZN4llvm23SmallVectorTemplateBaseINSt3__14pairIPKcPNS_2cl6OptionEEELb1EE9push_backERKS8_
0000000000025aa0 T __ZN4llvm23SmallVectorTemplateBaseINSt3__14pairIPKcPNS_2cl6OptionEEELb1EEC2Em
0000000000029e10 T __ZN4llvm23SmallVectorTemplateBaseINSt3__14pairIPvmEELb1EE13destroy_rangeEPS4_S6_
000000000001a920 T __ZN4llvm23SmallVectorTemplateBaseINSt3__14pairIPvmEELb1EEC2Em
000000000001a740 T __ZN4llvm23SmallVectorTemplateBaseIPKcLb1EE13destroy_rangeEPS2_S4_
000000000001ddd0 T __ZN4llvm23SmallVectorTemplateBaseIPKcLb1EE18uninitialized_copyIKS2_S2_EEvPT_S7_PT0_PNSt3__19enable_ifIXsr3std7is_sameINSA_12remove_constIS6_E4typeES8_EE5valueEvE4typeE
0000000000029960 T __ZN4llvm23SmallVectorTemplateBaseIPKcLb1EE18uninitialized_copyINSt3__113move_iteratorIPS2_EES7_EEvT_S9_T0_
00000000000298a0 T __ZN4llvm23SmallVectorTemplateBaseIPKcLb1EE18uninitialized_copyIS2_S2_EEvPT_S6_PT0_PNSt3__19enable_ifIXsr3std7is_sameINS9_12remove_constIS5_E4typeES7_EE5valueEvE4typeE
0000000000029870 T __ZN4llvm23SmallVectorTemplateBaseIPKcLb1EE18uninitialized_moveIPS2_S5_EEvT_S6_T0_
000000000001dd90 T __ZN4llvm23SmallVectorTemplateBaseIPKcLb1EE4growEm
0000000000029500 T __ZN4llvm23SmallVectorTemplateBaseIPKcLb1EE8pop_backEv
0000000000005340 T __ZN4llvm23SmallVectorTemplateBaseIPKcLb1EE9push_backERKS2_
000000000001dd10 T __ZN4llvm23SmallVectorTemplateBaseIPKcLb1EEC2Em
00000000000271b0 T __ZN4llvm23SmallVectorTemplateBaseIPNS_2cl6OptionELb1EE13destroy_rangeEPS3_S5_
0000000000017460 T __ZN4llvm23SmallVectorTemplateBaseIPNS_2cl6OptionELb1EE4growEm
0000000000017f50 T __ZN4llvm23SmallVectorTemplateBaseIPNS_2cl6OptionELb1EE8pop_backEv
00000000000173c0 T __ZN4llvm23SmallVectorTemplateBaseIPNS_2cl6OptionELb1EE9push_backERKS3_
0000000000026ee0 T __ZN4llvm23SmallVectorTemplateBaseIPNS_2cl6OptionELb1EEC2Em
0000000000029ee0 T __ZN4llvm23SmallVectorTemplateBaseIPvLb1EE13destroy_rangeEPS1_S3_
000000000001a870 T __ZN4llvm23SmallVectorTemplateBaseIPvLb1EEC2Em
00000000000199b0 T __ZN4llvm23SmallVectorTemplateBaseIcLb1EE13destroy_rangeEPcS2_
000000000001a510 T __ZN4llvm23SmallVectorTemplateBaseIcLb1EE18uninitialized_copyIKccEEvPT_S5_PT0_PNSt3__19enable_ifIXsr3std7is_sameINS8_12remove_constIS4_E4typeES6_EE5valueEvE4typeE
0000000000019b20 T __ZN4llvm23SmallVectorTemplateBaseIcLb1EE4growEm
000000000001a560 T __ZN4llvm23SmallVectorTemplateBaseIcLb1EE8pop_backEv
00000000000053c0 T __ZN4llvm23SmallVectorTemplateBaseIcLb1EE9push_backERKc
00000000000198a0 T __ZN4llvm23SmallVectorTemplateBaseIcLb1EEC2Em
                 U __ZN4llvm24DisableABIBreakingChecksE
                 U __ZN4llvm24convertUTF16ToUTF8StringENS_8ArrayRefIcEERNSt3__112basic_stringIcNS2_11char_traitsIcEENS2_9allocatorIcEEEE
0000000000017d10 T __ZN4llvm25SmallVectorTemplateCommonINS_9StringRefEvE6setEndEPS1_
0000000000017d30 T __ZN4llvm25SmallVectorTemplateCommonINS_9StringRefEvE8grow_podEmm
0000000000017c60 T __ZN4llvm25SmallVectorTemplateCommonINS_9StringRefEvEC2Em
000000000001df80 T __ZN4llvm25SmallVectorTemplateCommonINSt3__14pairINS_9StringRefEjEEvE6setEndEPS4_
000000000001dfa0 T __ZN4llvm25SmallVectorTemplateCommonINSt3__14pairINS_9StringRefEjEEvE8grow_podEmm
000000000001df10 T __ZN4llvm25SmallVectorTemplateCommonINSt3__14pairINS_9StringRefEjEEvEC2Em
0000000000026890 T __ZN4llvm25SmallVectorTemplateCommonINSt3__14pairIPKcPNS_2cl10SubCommandEEEvE6setEndEPS8_
00000000000268b0 T __ZN4llvm25SmallVectorTemplateCommonINSt3__14pairIPKcPNS_2cl10SubCommandEEEvE8grow_podEmm
0000000000026710 T __ZN4llvm25SmallVectorTemplateCommonINSt3__14pairIPKcPNS_2cl10SubCommandEEEvEC2Em
00000000000260d0 T __ZN4llvm25SmallVectorTemplateCommonINSt3__14pairIPKcPNS_2cl6OptionEEEvE6setEndEPS8_
00000000000260f0 T __ZN4llvm25SmallVectorTemplateCommonINSt3__14pairIPKcPNS_2cl6OptionEEEvE8grow_podEmm
0000000000025ad0 T __ZN4llvm25SmallVectorTemplateCommonINSt3__14pairIPKcPNS_2cl6OptionEEEvEC2Em
000000000001a950 T __ZN4llvm25SmallVectorTemplateCommonINSt3__14pairIPvmEEvEC2Em
000000000001dd70 T __ZN4llvm25SmallVectorTemplateCommonIPKcvE12capacity_ptrEv
000000000001de30 T __ZN4llvm25SmallVectorTemplateCommonIPKcvE6setEndEPS2_
000000000001de50 T __ZN4llvm25SmallVectorTemplateCommonIPKcvE8grow_podEmm
000000000001dd40 T __ZN4llvm25SmallVectorTemplateCommonIPKcvEC2Em
00000000000174a0 T __ZN4llvm25SmallVectorTemplateCommonIPNS_2cl6OptionEvE6setEndEPS3_
00000000000174c0 T __ZN4llvm25SmallVectorTemplateCommonIPNS_2cl6OptionEvE8grow_podEmm
0000000000026f10 T __ZN4llvm25SmallVectorTemplateCommonIPNS_2cl6OptionEvEC2Em
000000000001a8a0 T __ZN4llvm25SmallVectorTemplateCommonIPvvEC2Em
0000000000019b00 T __ZN4llvm25SmallVectorTemplateCommonIcvE12capacity_ptrEv
000000000001a5a0 T __ZN4llvm25SmallVectorTemplateCommonIcvE4dataEv
0000000000019bc0 T __ZN4llvm25SmallVectorTemplateCommonIcvE6setEndEPc
0000000000019be0 T __ZN4llvm25SmallVectorTemplateCommonIcvE8grow_podEmm
00000000000198d0 T __ZN4llvm25SmallVectorTemplateCommonIcvEC2Em
                 U __ZN4llvm25llvm_unreachable_internalEPKcS1_j
00000000000048c0 T __ZN4llvm2cl10SubCommand18registerSubCommandEv
0000000000004b00 T __ZN4llvm2cl10SubCommand20unregisterSubCommandEv
0000000000004b80 T __ZN4llvm2cl10SubCommand5resetEv
0000000000026dc0 T __ZN4llvm2cl10SubCommandC1Ev
0000000000026de0 T __ZN4llvm2cl10SubCommandC2Ev
0000000000026fa0 T __ZN4llvm2cl10SubCommandD1Ev
0000000000026fc0 T __ZN4llvm2cl10SubCommandD2Ev
000000000002a710 t __ZN4llvm2cl10applicatorIA10_cE3optINS0_3optIN12_GLOBAL__N_111HelpPrinterELb1ENS0_6parserIbEEEEEEvNS_9StringRefERT_
000000000002bfc0 t __ZN4llvm2cl10applicatorIA12_cE3optINS0_3optIN12_GLOBAL__N_118HelpPrinterWrapperELb1ENS0_6parserIbEEEEEEvNS_9StringRefERT_
000000000002c420 T __ZN4llvm2cl10applicatorIA14_cE3optINS0_3optIbLb0ENS0_6parserIbEEEEEEvNS_9StringRefERT_
000000000002b100 t __ZN4llvm2cl10applicatorIA17_cE3optINS0_3optIN12_GLOBAL__N_111HelpPrinterELb1ENS0_6parserIbEEEEEEvNS_9StringRefERT_
000000000002c8a0 T __ZN4llvm2cl10applicatorIA18_cE3optINS0_3optIbLb0ENS0_6parserIbEEEEEEvNS_9StringRefERT_
000000000002b730 t __ZN4llvm2cl10applicatorIA5_cE3optINS0_3optIN12_GLOBAL__N_118HelpPrinterWrapperELb1ENS0_6parserIbEEEEEEvNS_9StringRefERT_
000000000002cf10 t __ZN4llvm2cl10applicatorIA8_cE3optINS0_3optIN12_GLOBAL__N_114VersionPrinterELb1ENS0_6parserIbEEEEEEvNS_9StringRefERT_
000000000002c580 T __ZN4llvm2cl10applicatorINS0_11initializerIbEEE3optINS0_3optIbLb0ENS0_6parserIbEEEEEEvRKS3_RT_
000000000002aa70 T __ZN4llvm2cl10applicatorINS0_12OptionHiddenEE3optES2_RNS0_6OptionE
000000000002a8b0 t __ZN4llvm2cl10applicatorINS0_13LocationClassIN12_GLOBAL__N_111HelpPrinterEEEE3optINS0_3optIS4_Lb1ENS0_6parserIbEEEEEEvRKS5_RT_
000000000002d020 t __ZN4llvm2cl10applicatorINS0_13LocationClassIN12_GLOBAL__N_114VersionPrinterEEEE3optINS0_3optIS4_Lb1ENS0_6parserIbEEEEEEvRKS5_RT_
000000000002b850 t __ZN4llvm2cl10applicatorINS0_13LocationClassIN12_GLOBAL__N_118HelpPrinterWrapperEEEE3optINS0_3optIS4_Lb1ENS0_6parserIbEEEEEEvRKS5_RT_
000000000002aaf0 T __ZN4llvm2cl10applicatorINS0_13ValueExpectedEE3optES2_RNS0_6OptionE
000000000002ab90 t __ZN4llvm2cl10applicatorINS0_3catEE3optINS0_3optIN12_GLOBAL__N_111HelpPrinterELb1ENS0_6parserIbEEEEEEvRKS2_RT_
000000000002d200 t __ZN4llvm2cl10applicatorINS0_3catEE3optINS0_3optIN12_GLOBAL__N_114VersionPrinterELb1ENS0_6parserIbEEEEEEvRKS2_RT_
000000000002ba50 t __ZN4llvm2cl10applicatorINS0_3catEE3optINS0_3optIN12_GLOBAL__N_118HelpPrinterWrapperELb1ENS0_6parserIbEEEEEEvRKS2_RT_
000000000002c620 T __ZN4llvm2cl10applicatorINS0_3catEE3optINS0_3optIbLb0ENS0_6parserIbEEEEEEvRKS2_RT_
000000000002ac40 t __ZN4llvm2cl10applicatorINS0_3subEE3optINS0_3optIN12_GLOBAL__N_111HelpPrinterELb1ENS0_6parserIbEEEEEEvRKS2_RT_
000000000002bae0 t __ZN4llvm2cl10applicatorINS0_3subEE3optINS0_3optIN12_GLOBAL__N_118HelpPrinterWrapperELb1ENS0_6parserIbEEEEEEvRKS2_RT_
000000000002c6b0 T __ZN4llvm2cl10applicatorINS0_3subEE3optINS0_3optIbLb0ENS0_6parserIbEEEEEEvRKS2_RT_
000000000002a7c0 t __ZN4llvm2cl10applicatorINS0_4descEE3optINS0_3optIN12_GLOBAL__N_111HelpPrinterELb1ENS0_6parserIbEEEEEEvRKS2_RT_
000000000002cfb0 t __ZN4llvm2cl10applicatorINS0_4descEE3optINS0_3optIN12_GLOBAL__N_114VersionPrinterELb1ENS0_6parserIbEEEEEEvRKS2_RT_
000000000002b7d0 t __ZN4llvm2cl10applicatorINS0_4descEE3optINS0_3optIN12_GLOBAL__N_118HelpPrinterWrapperELb1ENS0_6parserIbEEEEEEvRKS2_RT_
000000000002c4c0 T __ZN4llvm2cl10applicatorINS0_4descEE3optINS0_3optIbLb0ENS0_6parserIbEEEEEEvRKS2_RT_
000000000002a5f0 t __ZN4llvm2cl11OptionValueIN12_GLOBAL__N_111HelpPrinterEEC1Ev
000000000002a610 t __ZN4llvm2cl11OptionValueIN12_GLOBAL__N_111HelpPrinterEEC2Ev
000000000002aa20 t __ZN4llvm2cl11OptionValueIN12_GLOBAL__N_111HelpPrinterEEaSIS3_EERS4_RKT_
000000000002adf0 t __ZN4llvm2cl11OptionValueIN12_GLOBAL__N_111HelpPrinterEEaSIbEERS4_RKT_
000000000002ce50 t __ZN4llvm2cl11OptionValueIN12_GLOBAL__N_114VersionPrinterEEC1Ev
000000000002ce70 t __ZN4llvm2cl11OptionValueIN12_GLOBAL__N_114VersionPrinterEEC2Ev
000000000002d180 t __ZN4llvm2cl11OptionValueIN12_GLOBAL__N_114VersionPrinterEEaSIS3_EERS4_RKT_
000000000002d610 t __ZN4llvm2cl11OptionValueIN12_GLOBAL__N_114VersionPrinterEEaSIbEERS4_RKT_
000000000002b670 t __ZN4llvm2cl11OptionValueIN12_GLOBAL__N_118HelpPrinterWrapperEEC1Ev
000000000002b690 t __ZN4llvm2cl11OptionValueIN12_GLOBAL__N_118HelpPrinterWrapperEEC2Ev
000000000002b9c0 t __ZN4llvm2cl11OptionValueIN12_GLOBAL__N_118HelpPrinterWrapperEEaSIS3_EERS4_RKT_
000000000002bcb0 t __ZN4llvm2cl11OptionValueIN12_GLOBAL__N_118HelpPrinterWrapperEEaSIbEERS4_RKT_
0000000000003d90 T __ZN4llvm2cl11OptionValueINS0_13boolOrDefaultEE6anchorEv
0000000000003da0 T __ZN4llvm2cl11OptionValueINSt3__112basic_stringIcNS2_11char_traitsIcEENS2_9allocatorIcEEEEE6anchorEv
0000000000026c90 T __ZN4llvm2cl11OptionValueINSt3__112basic_stringIcNS2_11char_traitsIcEENS2_9allocatorIcEEEEED1Ev
0000000000026cb0 T __ZN4llvm2cl11OptionValueINSt3__112basic_stringIcNS2_11char_traitsIcEENS2_9allocatorIcEEEEED2Ev
0000000000027690 T __ZN4llvm2cl11OptionValueINSt3__112basic_stringIcNS2_11char_traitsIcEENS2_9allocatorIcEEEEEaSERKS8_
0000000000027d30 T __ZN4llvm2cl11OptionValueIbEC1ERKS2_
000000000002c320 T __ZN4llvm2cl11OptionValueIbEC1ERKb
0000000000027d60 T __ZN4llvm2cl11OptionValueIbEC2ERKS2_
000000000002c350 T __ZN4llvm2cl11OptionValueIbEC2ERKb
0000000000027c40 T __ZN4llvm2cl11OptionValueIbEaSIbEERS2_RKT_
0000000000027ad0 T __ZN4llvm2cl11OptionValueIcEC1ERKS2_
0000000000027b00 T __ZN4llvm2cl11OptionValueIcEC2ERKS2_
00000000000279f0 T __ZN4llvm2cl11OptionValueIcEaSIcEERS2_RKT_
0000000000027520 T __ZN4llvm2cl11OptionValueIiEC1ERKS2_
0000000000027550 T __ZN4llvm2cl11OptionValueIiEC2ERKS2_
0000000000027450 T __ZN4llvm2cl11OptionValueIiEaSIiEERS2_RKT_
00000000000272c0 T __ZN4llvm2cl11OptionValueIjEC1ERKS2_
00000000000272f0 T __ZN4llvm2cl11OptionValueIjEC2ERKS2_
00000000000271f0 T __ZN4llvm2cl11OptionValueIjEaSIjEERS2_RKT_
000000000002c110 T __ZN4llvm2cl11initializerIbEC1ERKb
000000000002c140 T __ZN4llvm2cl11initializerIbEC2ERKb
000000000002a970 t __ZN4llvm2cl11opt_storageIN12_GLOBAL__N_111HelpPrinterELb1ELb1EE11setLocationERNS0_6OptionERS3_
000000000002acd0 t __ZN4llvm2cl11opt_storageIN12_GLOBAL__N_111HelpPrinterELb1ELb1EE8setValueIbEEvRKT_b
000000000002a1a0 t __ZN4llvm2cl11opt_storageIN12_GLOBAL__N_111HelpPrinterELb1ELb1EEC2Ev
000000000002d0d0 t __ZN4llvm2cl11opt_storageIN12_GLOBAL__N_114VersionPrinterELb1ELb1EE11setLocationERNS0_6OptionERS3_
000000000002d940 t __ZN4llvm2cl11opt_storageIN12_GLOBAL__N_114VersionPrinterELb1ELb1EE8setValueIS3_EEvRKT_b
000000000002d260 t __ZN4llvm2cl11opt_storageIN12_GLOBAL__N_114VersionPrinterELb1ELb1EE8setValueIbEEvRKT_b
000000000002ca50 t __ZN4llvm2cl11opt_storageIN12_GLOBAL__N_114VersionPrinterELb1ELb1EEC2Ev
000000000002b910 t __ZN4llvm2cl11opt_storageIN12_GLOBAL__N_118HelpPrinterWrapperELb1ELb1EE11setLocationERNS0_6OptionERS3_
000000000002bb40 t __ZN4llvm2cl11opt_storageIN12_GLOBAL__N_118HelpPrinterWrapperELb1ELb1EE8setValueIbEEvRKT_b
000000000002b260 t __ZN4llvm2cl11opt_storageIN12_GLOBAL__N_118HelpPrinterWrapperELb1ELb1EEC2Ev
00000000000017d0 T __ZN4llvm2cl11opt_storageINSt3__112basic_stringIcNS2_11char_traitsIcEENS2_9allocatorIcEEEELb0ELb1EE8setValueIS8_EEvRKT_b
0000000000026c50 T __ZN4llvm2cl11opt_storageINSt3__112basic_stringIcNS2_11char_traitsIcEENS2_9allocatorIcEEEELb0ELb1EED2Ev
0000000000003940 T __ZN4llvm2cl11opt_storageIbLb0ELb0EE8setValueIbEEvRKT_b
000000000002c220 T __ZN4llvm2cl11opt_storageIbLb0ELb0EEC2Ev
0000000000002220 T __ZN4llvm2cl11opt_storageIcLb0ELb0EE8setValueIcEEvRKT_b
0000000000000e50 T __ZN4llvm2cl11opt_storageIiLb0ELb0EE8setValueIiEEvRKT_b
00000000000005f0 T __ZN4llvm2cl11opt_storageIjLb0ELb0EE8setValueIjEEvRKT_b
00000000000000d0 T __ZN4llvm2cl12basic_parserINS0_13boolOrDefaultEEC1ERNS0_6OptionE
0000000000000090 T __ZN4llvm2cl12basic_parserINS0_13boolOrDefaultEEC2ERNS0_6OptionE
0000000000000370 T __ZN4llvm2cl12basic_parserINSt3__112basic_stringIcNS2_11char_traitsIcEENS2_9allocatorIcEEEEEC1ERNS0_6OptionE
0000000000000330 T __ZN4llvm2cl12basic_parserINSt3__112basic_stringIcNS2_11char_traitsIcEENS2_9allocatorIcEEEEEC2ERNS0_6OptionE
0000000000000060 T __ZN4llvm2cl12basic_parserIbEC1ERNS0_6OptionE
0000000000000000 T __ZN4llvm2cl12basic_parserIbEC2ERNS0_6OptionE
00000000000003e0 T __ZN4llvm2cl12basic_parserIcEC1ERNS0_6OptionE
00000000000003a0 T __ZN4llvm2cl12basic_parserIcEC2ERNS0_6OptionE
0000000000000290 T __ZN4llvm2cl12basic_parserIdEC1ERNS0_6OptionE
0000000000000250 T __ZN4llvm2cl12basic_parserIdEC2ERNS0_6OptionE
0000000000000300 T __ZN4llvm2cl12basic_parserIfEC1ERNS0_6OptionE
00000000000002c0 T __ZN4llvm2cl12basic_parserIfEC2ERNS0_6OptionE
0000000000000140 T __ZN4llvm2cl12basic_parserIiEC1ERNS0_6OptionE
0000000000000100 T __ZN4llvm2cl12basic_parserIiEC2ERNS0_6OptionE
00000000000001b0 T __ZN4llvm2cl12basic_parserIjEC1ERNS0_6OptionE
0000000000000170 T __ZN4llvm2cl12basic_parserIjEC2ERNS0_6OptionE
0000000000000220 T __ZN4llvm2cl12basic_parserIyEC1ERNS0_6OptionE
00000000000001e0 T __ZN4llvm2cl12basic_parserIyEC2ERNS0_6OptionE
0000000000029f80 t __ZN4llvm2cl13LocationClassIN12_GLOBAL__N_111HelpPrinterEEC1ERS3_
0000000000029fb0 t __ZN4llvm2cl13LocationClassIN12_GLOBAL__N_111HelpPrinterEEC2ERS3_
000000000002c960 t __ZN4llvm2cl13LocationClassIN12_GLOBAL__N_114VersionPrinterEEC1ERS3_
000000000002c990 t __ZN4llvm2cl13LocationClassIN12_GLOBAL__N_114VersionPrinterEEC2ERS3_
000000000002b150 t __ZN4llvm2cl13LocationClassIN12_GLOBAL__N_118HelpPrinterWrapperEEC1ERS3_
000000000002b180 t __ZN4llvm2cl13LocationClassIN12_GLOBAL__N_118HelpPrinterWrapperEEC2ERS3_
0000000000120398 S __ZN4llvm2cl14AllSubCommandsE
00000000000047d0 T __ZN4llvm2cl14OptionCategory16registerCategoryEv
0000000000004790 T __ZN4llvm2cl14OptionCategoryC1ENS_9StringRefES2_
0000000000018390 T __ZN4llvm2cl14OptionCategoryC2ENS_9StringRefES2_
0000000000120360 S __ZN4llvm2cl15GeneralCategoryE
000000000002aa60 t __ZN4llvm2cl15OptionValueBaseIN12_GLOBAL__N_111HelpPrinterELb1EE8setValueIS3_EEvRKT_
000000000002ae30 t __ZN4llvm2cl15OptionValueBaseIN12_GLOBAL__N_111HelpPrinterELb1EE8setValueIbEEvRKT_
000000000002a650 t __ZN4llvm2cl15OptionValueBaseIN12_GLOBAL__N_111HelpPrinterELb1EEC2Ev
000000000002d1c0 t __ZN4llvm2cl15OptionValueBaseIN12_GLOBAL__N_114VersionPrinterELb1EE8setValueIS3_EEvRKT_
000000000002d7a0 t __ZN4llvm2cl15OptionValueBaseIN12_GLOBAL__N_114VersionPrinterELb1EE8setValueIbEEvRKT_
000000000002ceb0 t __ZN4llvm2cl15OptionValueBaseIN12_GLOBAL__N_114VersionPrinterELb1EEC2Ev
000000000002ba00 t __ZN4llvm2cl15OptionValueBaseIN12_GLOBAL__N_118HelpPrinterWrapperELb1EE8setValueIS3_EEvRKT_
000000000002bcf0 t __ZN4llvm2cl15OptionValueBaseIN12_GLOBAL__N_118HelpPrinterWrapperELb1EE8setValueIbEEvRKT_
000000000002b6d0 t __ZN4llvm2cl15OptionValueBaseIN12_GLOBAL__N_118HelpPrinterWrapperELb1EEC2Ev
0000000000027da0 T __ZN4llvm2cl15OptionValueBaseIbLb0EEC2ERKS2_
000000000002c3a0 T __ZN4llvm2cl15OptionValueBaseIbLb0EEC2Ev
0000000000027b40 T __ZN4llvm2cl15OptionValueBaseIcLb0EEC2ERKS2_
0000000000027590 T __ZN4llvm2cl15OptionValueBaseIiLb0EEC2ERKS2_
0000000000027330 T __ZN4llvm2cl15OptionValueBaseIjLb0EEC2ERKS2_
00000000000276d0 T __ZN4llvm2cl15OptionValueCopyINSt3__112basic_stringIcNS2_11char_traitsIcEENS2_9allocatorIcEEEEE8setValueERKS8_
0000000000026cd0 T __ZN4llvm2cl15OptionValueCopyINSt3__112basic_stringIcNS2_11char_traitsIcEENS2_9allocatorIcEEEEED2Ev
0000000000027c80 T __ZN4llvm2cl15OptionValueCopyIbE8setValueERKb
0000000000027e50 T __ZN4llvm2cl15OptionValueCopyIbEC2ERKS2_
000000000002c3e0 T __ZN4llvm2cl15OptionValueCopyIbEC2Ev
0000000000027a30 T __ZN4llvm2cl15OptionValueCopyIcE8setValueERKc
0000000000027bf0 T __ZN4llvm2cl15OptionValueCopyIcEC2ERKS2_
0000000000027490 T __ZN4llvm2cl15OptionValueCopyIiE8setValueERKi
0000000000027640 T __ZN4llvm2cl15OptionValueCopyIiEC2ERKS2_
0000000000027230 T __ZN4llvm2cl15OptionValueCopyIjE8setValueERKj
00000000000273e0 T __ZN4llvm2cl15OptionValueCopyIjEC2ERKS2_
0000000000001f60 T __ZN4llvm2cl15printOptionDiffINS0_6parserINSt3__112basic_stringIcNS3_11char_traitsIcEENS3_9allocatorIcEEEEEES9_EEvRKNS0_6OptionERKNS0_12basic_parserINT_16parser_data_typeEEERKT0_RKNS0_11OptionValueISK_EEm
000000000002aeb0 t __ZN4llvm2cl15printOptionDiffINS0_6parserIbEEN12_GLOBAL__N_111HelpPrinterEEEvRKNS0_6OptionERKNS0_12basic_parserINT_16parser_data_typeEEERKT0_RKNS0_11OptionValueISF_EEm
000000000002d820 t __ZN4llvm2cl15printOptionDiffINS0_6parserIbEEN12_GLOBAL__N_114VersionPrinterEEEvRKNS0_6OptionERKNS0_12basic_parserINT_16parser_data_typeEEERKT0_RKNS0_11OptionValueISF_EEm
000000000002bd70 t __ZN4llvm2cl15printOptionDiffINS0_6parserIbEEN12_GLOBAL__N_118HelpPrinterWrapperEEEvRKNS0_6OptionERKNS0_12basic_parserINT_16parser_data_typeEEERKT0_RKNS0_11OptionValueISF_EEm
0000000000003bf0 T __ZN4llvm2cl15printOptionDiffINS0_6parserIbEEbEEvRKNS0_6OptionERKNS0_12basic_parserINT_16parser_data_typeEEERKT0_RKNS0_11OptionValueISD_EEm
00000000000024b0 T __ZN4llvm2cl15printOptionDiffINS0_6parserIcEEcEEvRKNS0_6OptionERKNS0_12basic_parserINT_16parser_data_typeEEERKT0_RKNS0_11OptionValueISD_EEm
00000000000010d0 T __ZN4llvm2cl15printOptionDiffINS0_6parserIiEEiEEvRKNS0_6OptionERKNS0_12basic_parserINT_16parser_data_typeEEERKT0_RKNS0_11OptionValueISD_EEm
0000000000000aa0 T __ZN4llvm2cl15printOptionDiffINS0_6parserIjEEjEEvRKNS0_6OptionERKNS0_12basic_parserINT_16parser_data_typeEEERKT0_RKNS0_11OptionValueISD_EEm
0000000000003e60 T __ZN4llvm2cl16AddLiteralOptionERNS0_6OptionENS_9StringRefE
0000000000012e60 T __ZN4llvm2cl16PrintHelpMessageEbb
0000000000027760 T __ZN4llvm2cl17OptionDiffPrinterINSt3__112basic_stringIcNS2_11char_traitsIcEENS2_9allocatorIcEEEES8_E5printERKNS0_6OptionERKNS0_6parserIS8_EERKS8_RKNS0_11OptionValueIS8_EEm
000000000002af00 t __ZN4llvm2cl17OptionDiffPrinterIbN12_GLOBAL__N_111HelpPrinterEE5printERKNS0_6OptionERKNS0_6parserIbEERKS3_RKNS0_11OptionValueIS3_EEm
000000000002d870 t __ZN4llvm2cl17OptionDiffPrinterIbN12_GLOBAL__N_114VersionPrinterEE5printERKNS0_6OptionERKNS0_6parserIbEERKS3_RKNS0_11OptionValueIS3_EEm
000000000002bdc0 t __ZN4llvm2cl17OptionDiffPrinterIbN12_GLOBAL__N_118HelpPrinterWrapperEE5printERKNS0_6OptionERKNS0_6parserIbEERKS3_RKNS0_11OptionValueIS3_EEm
0000000000027cb0 T __ZN4llvm2cl17OptionDiffPrinterIbbE5printERKNS0_6OptionERKNS0_6parserIbEERKbRKNS0_11OptionValueIbEEm
0000000000027a50 T __ZN4llvm2cl17OptionDiffPrinterIccE5printERKNS0_6OptionERKNS0_6parserIcEERKcRKNS0_11OptionValueIcEEm
00000000000274b0 T __ZN4llvm2cl17OptionDiffPrinterIiiE5printERKNS0_6OptionERKNS0_6parserIiEERKiRKNS0_11OptionValueIiEEm
0000000000027250 T __ZN4llvm2cl17OptionDiffPrinterIjjE5printERKNS0_6OptionERKNS0_6parserIjEERKjRKNS0_11OptionValueIjEEm
00000000000128f0 T __ZN4llvm2cl17PrintOptionValuesEv
0000000000014240 T __ZN4llvm2cl17SetVersionPrinterENSt3__18functionIFvRNS_11raw_ostreamEEEE
0000000000000c00 T __ZN4llvm2cl17basic_parser_impl10initializeEv
00000000000006e0 T __ZN4llvm2cl17basic_parser_impl19getExtraOptionNamesERNS_15SmallVectorImplINS_9StringRefEEE
0000000000003dc0 T __ZN4llvm2cl17basic_parser_impl6anchorEv
0000000000000040 T __ZN4llvm2cl17basic_parser_implC2ERNS0_6OptionE
0000000000003d80 T __ZN4llvm2cl18GenericOptionValue6anchorEv
0000000000027430 T __ZN4llvm2cl18GenericOptionValueC2ERKS1_
000000000002a6b0 T __ZN4llvm2cl18GenericOptionValueC2Ev
0000000000120380 S __ZN4llvm2cl18TopLevelSubCommandE
0000000000005c00 T __ZN4llvm2cl19ExpandResponseFilesERNS_11StringSaverEPFvNS_9StringRefES2_RNS_15SmallVectorImplIPKcEEbES8_bb
0000000000013f30 T __ZN4llvm2cl19PrintVersionMessageEv
000000000000ee10 T __ZN4llvm2cl19generic_parser_base10findOptionENS_9StringRefE
0000000000015430 T __ZN4llvm2cl19generic_parser_baseD0Ev
0000000000015410 T __ZN4llvm2cl19generic_parser_baseD1Ev
0000000000026bc0 T __ZN4llvm2cl19generic_parser_baseD2Ev
0000000000014a80 T __ZN4llvm2cl20HideUnrelatedOptionsENS_8ArrayRefIPKNS0_14OptionCategoryEEERNS0_10SubCommandE
0000000000014870 T __ZN4llvm2cl20HideUnrelatedOptionsERNS0_14OptionCategoryERNS0_10SubCommandE
0000000000014590 T __ZN4llvm2cl20getRegisteredOptionsERNS0_10SubCommandE
00000000000142f0 T __ZN4llvm2cl22AddExtraVersionPrinterENSt3__18functionIFvRNS_11raw_ostreamEEEE
0000000000014c00 T __ZN4llvm2cl22ResetCommandLineParserEv
0000000000004d80 T __ZN4llvm2cl22TokenizeGNUCommandLineENS_9StringRefERNS_11StringSaverERNS_15SmallVectorImplIPKcEEb
00000000000081c0 T __ZN4llvm2cl23ParseCommandLineOptionsEiPKPKcNS_9StringRefEPNS_11raw_ostreamE
0000000000007900 T __ZN4llvm2cl23ParseEnvironmentOptionsEPKcS2_S2_
00000000000147b0 T __ZN4llvm2cl24getRegisteredSubcommandsEv
00000000000150f0 T __ZN4llvm2cl25ResetAllOptionOccurrencesEv
0000000000005520 T __ZN4llvm2cl26TokenizeWindowsCommandLineENS_9StringRefERNS_11StringSaverERNS_15SmallVectorImplIPKcEEb
0000000000012400 T __ZN4llvm2cl3catC1ERNS0_14OptionCategoryE
0000000000025640 T __ZN4llvm2cl3catC2ERNS0_14OptionCategoryE
000000000002a590 t __ZN4llvm2cl3optIN12_GLOBAL__N_111HelpPrinterELb1ENS0_6parserIbEEE10setDefaultEv
000000000002af40 t __ZN4llvm2cl3optIN12_GLOBAL__N_111HelpPrinterELb1ENS0_6parserIbEEE14setDefaultImplIS3_vEEvz
000000000002a320 t __ZN4llvm2cl3optIN12_GLOBAL__N_111HelpPrinterELb1ENS0_6parserIbEEE16handleOccurrenceEjNS_9StringRefES7_
000000000002a5b0 t __ZN4llvm2cl3optIN12_GLOBAL__N_111HelpPrinterELb1ENS0_6parserIbEEE19getExtraOptionNamesERNS_15SmallVectorImplINS_9StringRefEEE
000000000002a2e0 t __ZN4llvm2cl3optIN12_GLOBAL__N_111HelpPrinterELb1ENS0_6parserIbEEE4doneEv
00000000000125c0 t __ZN4llvm2cl3optIN12_GLOBAL__N_111HelpPrinterELb1ENS0_6parserIbEEEC1IJA10_cNS0_4descENS0_13LocationClassIS3_EENS0_12OptionHiddenENS0_13ValueExpectedENS0_3catENS0_3subEEEEDpRKT_
0000000000012650 t __ZN4llvm2cl3optIN12_GLOBAL__N_111HelpPrinterELb1ENS0_6parserIbEEEC1IJA17_cNS0_4descENS0_13LocationClassIS3_EENS0_12OptionHiddenENS0_13ValueExpectedENS0_3catENS0_3subEEEEDpRKT_
0000000000029fd0 t __ZN4llvm2cl3optIN12_GLOBAL__N_111HelpPrinterELb1ENS0_6parserIbEEEC2IJA10_cNS0_4descENS0_13LocationClassIS3_EENS0_12OptionHiddenENS0_13ValueExpectedENS0_3catENS0_3subEEEEDpRKT_
000000000002af50 t __ZN4llvm2cl3optIN12_GLOBAL__N_111HelpPrinterELb1ENS0_6parserIbEEEC2IJA17_cNS0_4descENS0_13LocationClassIS3_EENS0_12OptionHiddenENS0_13ValueExpectedENS0_3catENS0_3subEEEEDpRKT_
000000000002a430 t __ZN4llvm2cl3optIN12_GLOBAL__N_111HelpPrinterELb1ENS0_6parserIbEEED0Ev
0000000000012630 t __ZN4llvm2cl3optIN12_GLOBAL__N_111HelpPrinterELb1ENS0_6parserIbEEED1Ev
0000000000025680 t __ZN4llvm2cl3optIN12_GLOBAL__N_111HelpPrinterELb1ENS0_6parserIbEEED2Ev
000000000002cdf0 t __ZN4llvm2cl3optIN12_GLOBAL__N_114VersionPrinterELb1ENS0_6parserIbEEE10setDefaultEv
000000000002d8b0 t __ZN4llvm2cl3optIN12_GLOBAL__N_114VersionPrinterELb1ENS0_6parserIbEEE14setDefaultImplIS3_vEEvv
000000000002cb80 t __ZN4llvm2cl3optIN12_GLOBAL__N_114VersionPrinterELb1ENS0_6parserIbEEE16handleOccurrenceEjNS_9StringRefES7_
000000000002ce10 t __ZN4llvm2cl3optIN12_GLOBAL__N_114VersionPrinterELb1ENS0_6parserIbEEE19getExtraOptionNamesERNS_15SmallVectorImplINS_9StringRefEEE
000000000002cb40 t __ZN4llvm2cl3optIN12_GLOBAL__N_114VersionPrinterELb1ENS0_6parserIbEEE4doneEv
0000000000012df0 t __ZN4llvm2cl3optIN12_GLOBAL__N_114VersionPrinterELb1ENS0_6parserIbEEEC1IJA8_cNS0_4descENS0_13LocationClassIS3_EENS0_13ValueExpectedENS0_3catEEEEDpRKT_
000000000002c9b0 t __ZN4llvm2cl3optIN12_GLOBAL__N_114VersionPrinterELb1ENS0_6parserIbEEEC2IJA8_cNS0_4descENS0_13LocationClassIS3_EENS0_13ValueExpectedENS0_3catEEEEDpRKT_
000000000002cc90 t __ZN4llvm2cl3optIN12_GLOBAL__N_114VersionPrinterELb1ENS0_6parserIbEEED0Ev
0000000000012e40 t __ZN4llvm2cl3optIN12_GLOBAL__N_114VersionPrinterELb1ENS0_6parserIbEEED1Ev
0000000000026240 t __ZN4llvm2cl3optIN12_GLOBAL__N_114VersionPrinterELb1ENS0_6parserIbEEED2Ev
000000000002b610 t __ZN4llvm2cl3optIN12_GLOBAL__N_118HelpPrinterWrapperELb1ENS0_6parserIbEEE10setDefaultEv
000000000002be00 t __ZN4llvm2cl3optIN12_GLOBAL__N_118HelpPrinterWrapperELb1ENS0_6parserIbEEE14setDefaultImplIS3_vEEvz
000000000002b3a0 t __ZN4llvm2cl3optIN12_GLOBAL__N_118HelpPrinterWrapperELb1ENS0_6parserIbEEE16handleOccurrenceEjNS_9StringRefES7_
000000000002b630 t __ZN4llvm2cl3optIN12_GLOBAL__N_118HelpPrinterWrapperELb1ENS0_6parserIbEEE19getExtraOptionNamesERNS_15SmallVectorImplINS_9StringRefEEE
000000000002b360 t __ZN4llvm2cl3optIN12_GLOBAL__N_118HelpPrinterWrapperELb1ENS0_6parserIbEEE4doneEv
0000000000012770 t __ZN4llvm2cl3optIN12_GLOBAL__N_118HelpPrinterWrapperELb1ENS0_6parserIbEEEC1IJA12_cNS0_4descENS0_13LocationClassIS3_EENS0_12OptionHiddenENS0_13ValueExpectedENS0_3catENS0_3subEEEEDpRKT_
00000000000126f0 t __ZN4llvm2cl3optIN12_GLOBAL__N_118HelpPrinterWrapperELb1ENS0_6parserIbEEEC1IJA5_cNS0_4descENS0_13LocationClassIS3_EENS0_13ValueExpectedENS0_3catENS0_3subEEEEDpRKT_
000000000002be10 t __ZN4llvm2cl3optIN12_GLOBAL__N_118HelpPrinterWrapperELb1ENS0_6parserIbEEEC2IJA12_cNS0_4descENS0_13LocationClassIS3_EENS0_12OptionHiddenENS0_13ValueExpectedENS0_3catENS0_3subEEEEDpRKT_
000000000002b1a0 t __ZN4llvm2cl3optIN12_GLOBAL__N_118HelpPrinterWrapperELb1ENS0_6parserIbEEEC2IJA5_cNS0_4descENS0_13LocationClassIS3_EENS0_13ValueExpectedENS0_3catENS0_3subEEEEDpRKT_
000000000002b4b0 t __ZN4llvm2cl3optIN12_GLOBAL__N_118HelpPrinterWrapperELb1ENS0_6parserIbEEED0Ev
0000000000012750 t __ZN4llvm2cl3optIN12_GLOBAL__N_118HelpPrinterWrapperELb1ENS0_6parserIbEEED1Ev
0000000000025770 t __ZN4llvm2cl3optIN12_GLOBAL__N_118HelpPrinterWrapperELb1ENS0_6parserIbEEED2Ev
0000000000001fb0 T __ZN4llvm2cl3optINSt3__112basic_stringIcNS2_11char_traitsIcEENS2_9allocatorIcEEEELb0ENS0_6parserIS8_EEE10setDefaultEv
0000000000001fd0 T __ZN4llvm2cl3optINSt3__112basic_stringIcNS2_11char_traitsIcEENS2_9allocatorIcEEEELb0ENS0_6parserIS8_EEE14setDefaultImplIS8_vEEvv
0000000000002080 T __ZN4llvm2cl3optINSt3__112basic_stringIcNS2_11char_traitsIcEENS2_9allocatorIcEEEELb0ENS0_6parserIS8_EEE15setInitialValueERKS8_
0000000000001250 T __ZN4llvm2cl3optINSt3__112basic_stringIcNS2_11char_traitsIcEENS2_9allocatorIcEEEELb0ENS0_6parserIS8_EEE16handleOccurrenceEjNS_9StringRefESC_
0000000000001860 T __ZN4llvm2cl3optINSt3__112basic_stringIcNS2_11char_traitsIcEENS2_9allocatorIcEEEELb0ENS0_6parserIS8_EEE19getExtraOptionNamesERNS_15SmallVectorImplINS_9StringRefEEE
0000000000002040 T __ZN4llvm2cl3optINSt3__112basic_stringIcNS2_11char_traitsIcEENS2_9allocatorIcEEEELb0ENS0_6parserIS8_EEE4doneEv
00000000000020c0 T __ZN4llvm2cl3optINSt3__112basic_stringIcNS2_11char_traitsIcEENS2_9allocatorIcEEEELb0ENS0_6parserIS8_EEE9getParserEv
0000000000015a00 T __ZN4llvm2cl3optINSt3__112basic_stringIcNS2_11char_traitsIcEENS2_9allocatorIcEEEELb0ENS0_6parserIS8_EEED0Ev
00000000000159e0 T __ZN4llvm2cl3optINSt3__112basic_stringIcNS2_11char_traitsIcEENS2_9allocatorIcEEEELb0ENS0_6parserIS8_EEED1Ev
0000000000026c10 T __ZN4llvm2cl3optINSt3__112basic_stringIcNS2_11char_traitsIcEENS2_9allocatorIcEEEELb0ENS0_6parserIS8_EEED2Ev
0000000000003c40 T __ZN4llvm2cl3optIbLb0ENS0_6parserIbEEE10setDefaultEv
0000000000003c60 T __ZN4llvm2cl3optIbLb0ENS0_6parserIbEEE14setDefaultImplIbvEEvv
0000000000003d20 T __ZN4llvm2cl3optIbLb0ENS0_6parserIbEEE15setInitialValueERKb
0000000000002630 T __ZN4llvm2cl3optIbLb0ENS0_6parserIbEEE16handleOccurrenceEjNS_9StringRefES5_
00000000000039e0 T __ZN4llvm2cl3optIbLb0ENS0_6parserIbEEE19getExtraOptionNamesERNS_15SmallVectorImplINS_9StringRefEEE
0000000000003cd0 T __ZN4llvm2cl3optIbLb0ENS0_6parserIbEEE4doneEv
0000000000003d60 T __ZN4llvm2cl3optIbLb0ENS0_6parserIbEEE9getParserEv
0000000000012810 T __ZN4llvm2cl3optIbLb0ENS0_6parserIbEEEC1IJA14_cNS0_4descENS0_12OptionHiddenENS0_11initializerIbEENS0_3catENS0_3subEEEEDpRKT_
0000000000012890 T __ZN4llvm2cl3optIbLb0ENS0_6parserIbEEEC1IJA18_cNS0_4descENS0_12OptionHiddenENS0_11initializerIbEENS0_3catENS0_3subEEEEDpRKT_
000000000002c160 T __ZN4llvm2cl3optIbLb0ENS0_6parserIbEEEC2IJA14_cNS0_4descENS0_12OptionHiddenENS0_11initializerIbEENS0_3catENS0_3subEEEEDpRKT_
000000000002c710 T __ZN4llvm2cl3optIbLb0ENS0_6parserIbEEEC2IJA18_cNS0_4descENS0_12OptionHiddenENS0_11initializerIbEENS0_3catENS0_3subEEEEDpRKT_
0000000000015a80 T __ZN4llvm2cl3optIbLb0ENS0_6parserIbEEED0Ev
0000000000012870 T __ZN4llvm2cl3optIbLb0ENS0_6parserIbEEED1Ev
0000000000025790 T __ZN4llvm2cl3optIbLb0ENS0_6parserIbEEED2Ev
0000000000002500 T __ZN4llvm2cl3optIcLb0ENS0_6parserIcEEE10setDefaultEv
0000000000002520 T __ZN4llvm2cl3optIcLb0ENS0_6parserIcEEE14setDefaultImplIcvEEvv
00000000000025d0 T __ZN4llvm2cl3optIcLb0ENS0_6parserIcEEE15setInitialValueERKc
00000000000020e0 T __ZN4llvm2cl3optIcLb0ENS0_6parserIcEEE16handleOccurrenceEjNS_9StringRefES5_
00000000000022a0 T __ZN4llvm2cl3optIcLb0ENS0_6parserIcEEE19getExtraOptionNamesERNS_15SmallVectorImplINS_9StringRefEEE
0000000000002590 T __ZN4llvm2cl3optIcLb0ENS0_6parserIcEEE4doneEv
0000000000002610 T __ZN4llvm2cl3optIcLb0ENS0_6parserIcEEE9getParserEv
0000000000015a50 T __ZN4llvm2cl3optIcLb0ENS0_6parserIcEEED0Ev
0000000000015a30 T __ZN4llvm2cl3optIcLb0ENS0_6parserIcEEED1Ev
0000000000026d00 T __ZN4llvm2cl3optIcLb0ENS0_6parserIcEEED2Ev
0000000000001120 T __ZN4llvm2cl3optIiLb0ENS0_6parserIiEEE10setDefaultEv
0000000000001140 T __ZN4llvm2cl3optIiLb0ENS0_6parserIiEEE14setDefaultImplIivEEvv
00000000000011f0 T __ZN4llvm2cl3optIiLb0ENS0_6parserIiEEE15setInitialValueERKi
0000000000000c70 T __ZN4llvm2cl3optIiLb0ENS0_6parserIiEEE16handleOccurrenceEjNS_9StringRefES5_
0000000000000ed0 T __ZN4llvm2cl3optIiLb0ENS0_6parserIiEEE19getExtraOptionNamesERNS_15SmallVectorImplINS_9StringRefEEE
00000000000011b0 T __ZN4llvm2cl3optIiLb0ENS0_6parserIiEEE4doneEv
0000000000001230 T __ZN4llvm2cl3optIiLb0ENS0_6parserIiEEE9getParserEv
00000000000159b0 T __ZN4llvm2cl3optIiLb0ENS0_6parserIiEEED0Ev
0000000000015990 T __ZN4llvm2cl3optIiLb0ENS0_6parserIiEEED1Ev
0000000000026bf0 T __ZN4llvm2cl3optIiLb0ENS0_6parserIiEEED2Ev
0000000000000af0 T __ZN4llvm2cl3optIjLb0ENS0_6parserIjEEE10setDefaultEv
0000000000000b10 T __ZN4llvm2cl3optIjLb0ENS0_6parserIjEEE14setDefaultImplIjvEEvv
0000000000000c10 T __ZN4llvm2cl3optIjLb0ENS0_6parserIjEEE15setInitialValueERKj
0000000000000410 T __ZN4llvm2cl3optIjLb0ENS0_6parserIjEEE16handleOccurrenceEjNS_9StringRefES5_
00000000000006a0 T __ZN4llvm2cl3optIjLb0ENS0_6parserIjEEE19getExtraOptionNamesERNS_15SmallVectorImplINS_9StringRefEEE
0000000000000b80 T __ZN4llvm2cl3optIjLb0ENS0_6parserIjEEE4doneEv
0000000000000c50 T __ZN4llvm2cl3optIjLb0ENS0_6parserIjEEE9getParserEv
0000000000015960 T __ZN4llvm2cl3optIjLb0ENS0_6parserIjEEED0Ev
0000000000015940 T __ZN4llvm2cl3optIjLb0ENS0_6parserIjEEED1Ev
0000000000026bd0 T __ZN4llvm2cl3optIjLb0ENS0_6parserIjEEED2Ev
0000000000012590 T __ZN4llvm2cl3subC1ERNS0_10SubCommandE
0000000000025660 T __ZN4llvm2cl3subC2ERNS0_10SubCommandE
00000000000123a0 T __ZN4llvm2cl4descC1ENS_9StringRefE
0000000000025610 T __ZN4llvm2cl4descC2ENS_9StringRefE
00000000000127e0 T __ZN4llvm2cl4initIbEENS0_11initializerIT_EERKS3_
0000000000015be0 T __ZN4llvm2cl5alias10setDefaultEv
0000000000015c10 T __ZN4llvm2cl5alias13addOccurrenceEjNS_9StringRefES2_b
0000000000015ab0 T __ZN4llvm2cl5alias16handleOccurrenceEjNS_9StringRefES2_
0000000000015b90 T __ZN4llvm2cl5aliasD0Ev
0000000000015b70 T __ZN4llvm2cl5aliasD1Ev
0000000000026d20 T __ZN4llvm2cl5aliasD2Ev
000000000002a200 t __ZN4llvm2cl5applyINS0_3optIN12_GLOBAL__N_111HelpPrinterELb1ENS0_6parserIbEEEEA10_cJNS0_4descENS0_13LocationClassIS4_EENS0_12OptionHiddenENS0_13ValueExpectedENS0_3catENS0_3subEEEEvPT_RKT0_DpRKT1_
000000000002b020 t __ZN4llvm2cl5applyINS0_3optIN12_GLOBAL__N_111HelpPrinterELb1ENS0_6parserIbEEEEA17_cJNS0_4descENS0_13LocationClassIS4_EENS0_12OptionHiddenENS0_13ValueExpectedENS0_3catENS0_3subEEEEvPT_RKT0_DpRKT1_
000000000002a8e0 t __ZN4llvm2cl5applyINS0_3optIN12_GLOBAL__N_111HelpPrinterELb1ENS0_6parserIbEEEENS0_12OptionHiddenEJNS0_13ValueExpectedENS0_3catENS0_3subEEEEvPT_RKT0_DpRKT1_
000000000002a7f0 t __ZN4llvm2cl5applyINS0_3optIN12_GLOBAL__N_111HelpPrinterELb1ENS0_6parserIbEEEENS0_13LocationClassIS4_EEJNS0_12OptionHiddenENS0_13ValueExpectedENS0_3catENS0_3subEEEEvPT_RKT0_DpRKT1_
000000000002aaa0 t __ZN4llvm2cl5applyINS0_3optIN12_GLOBAL__N_111HelpPrinterELb1ENS0_6parserIbEEEENS0_13ValueExpectedEJNS0_3catENS0_3subEEEEvPT_RKT0_DpRKT1_
000000000002ab20 t __ZN4llvm2cl5applyINS0_3optIN12_GLOBAL__N_111HelpPrinterELb1ENS0_6parserIbEEEENS0_3catEJNS0_3subEEEEvPT_RKT0_DpRKT1_
000000000002abc0 t __ZN4llvm2cl5applyINS0_3optIN12_GLOBAL__N_111HelpPrinterELb1ENS0_6parserIbEEEENS0_3subEEEvPT_RKT0_
000000000002a760 t __ZN4llvm2cl5applyINS0_3optIN12_GLOBAL__N_111HelpPrinterELb1ENS0_6parserIbEEEENS0_4descEJNS0_13LocationClassIS4_EENS0_12OptionHiddenENS0_13ValueExpectedENS0_3catENS0_3subEEEEvPT_RKT0_DpRKT1_
000000000002ca80 t __ZN4llvm2cl5applyINS0_3optIN12_GLOBAL__N_114VersionPrinterELb1ENS0_6parserIbEEEEA8_cJNS0_4descENS0_13LocationClassIS4_EENS0_13ValueExpectedENS0_3catEEEEvPT_RKT0_DpRKT1_
000000000002cfe0 t __ZN4llvm2cl5applyINS0_3optIN12_GLOBAL__N_114VersionPrinterELb1ENS0_6parserIbEEEENS0_13LocationClassIS4_EEJNS0_13ValueExpectedENS0_3catEEEEvPT_RKT0_DpRKT1_
000000000002d050 t __ZN4llvm2cl5applyINS0_3optIN12_GLOBAL__N_114VersionPrinterELb1ENS0_6parserIbEEEENS0_13ValueExpectedEJNS0_3catEEEEvPT_RKT0_DpRKT1_
000000000002d1d0 t __ZN4llvm2cl5applyINS0_3optIN12_GLOBAL__N_114VersionPrinterELb1ENS0_6parserIbEEEENS0_3catEEEvPT_RKT0_
000000000002cf60 t __ZN4llvm2cl5applyINS0_3optIN12_GLOBAL__N_114VersionPrinterELb1ENS0_6parserIbEEEENS0_4descEJNS0_13LocationClassIS4_EENS0_13ValueExpectedENS0_3catEEEEvPT_RKT0_DpRKT1_
000000000002bee0 t __ZN4llvm2cl5applyINS0_3optIN12_GLOBAL__N_118HelpPrinterWrapperELb1ENS0_6parserIbEEEEA12_cJNS0_4descENS0_13LocationClassIS4_EENS0_12OptionHiddenENS0_13ValueExpectedENS0_3catENS0_3subEEEEvPT_RKT0_DpRKT1_
000000000002b290 t __ZN4llvm2cl5applyINS0_3optIN12_GLOBAL__N_118HelpPrinterWrapperELb1ENS0_6parserIbEEEEA5_cJNS0_4descENS0_13LocationClassIS4_EENS0_13ValueExpectedENS0_3catENS0_3subEEEEvPT_RKT0_DpRKT1_
000000000002c0c0 t __ZN4llvm2cl5applyINS0_3optIN12_GLOBAL__N_118HelpPrinterWrapperELb1ENS0_6parserIbEEEENS0_12OptionHiddenEJNS0_13ValueExpectedENS0_3catENS0_3subEEEEvPT_RKT0_DpRKT1_
000000000002c070 t __ZN4llvm2cl5applyINS0_3optIN12_GLOBAL__N_118HelpPrinterWrapperELb1ENS0_6parserIbEEEENS0_13LocationClassIS4_EEJNS0_12OptionHiddenENS0_13ValueExpectedENS0_3catENS0_3subEEEEvPT_RKT0_DpRKT1_
000000000002b800 t __ZN4llvm2cl5applyINS0_3optIN12_GLOBAL__N_118HelpPrinterWrapperELb1ENS0_6parserIbEEEENS0_13LocationClassIS4_EEJNS0_13ValueExpectedENS0_3catENS0_3subEEEEvPT_RKT0_DpRKT1_
000000000002b880 t __ZN4llvm2cl5applyINS0_3optIN12_GLOBAL__N_118HelpPrinterWrapperELb1ENS0_6parserIbEEEENS0_13ValueExpectedEJNS0_3catENS0_3subEEEEvPT_RKT0_DpRKT1_
000000000002ba10 t __ZN4llvm2cl5applyINS0_3optIN12_GLOBAL__N_118HelpPrinterWrapperELb1ENS0_6parserIbEEEENS0_3catEJNS0_3subEEEEvPT_RKT0_DpRKT1_
000000000002ba80 t __ZN4llvm2cl5applyINS0_3optIN12_GLOBAL__N_118HelpPrinterWrapperELb1ENS0_6parserIbEEEENS0_3subEEEvPT_RKT0_
000000000002c010 t __ZN4llvm2cl5applyINS0_3optIN12_GLOBAL__N_118HelpPrinterWrapperELb1ENS0_6parserIbEEEENS0_4descEJNS0_13LocationClassIS4_EENS0_12OptionHiddenENS0_13ValueExpectedENS0_3catENS0_3subEEEEvPT_RKT0_DpRKT1_
000000000002b780 t __ZN4llvm2cl5applyINS0_3optIN12_GLOBAL__N_118HelpPrinterWrapperELb1ENS0_6parserIbEEEENS0_4descEJNS0_13LocationClassIS4_EENS0_13ValueExpectedENS0_3catENS0_3subEEEEvPT_RKT0_DpRKT1_
000000000002c250 T __ZN4llvm2cl5applyINS0_3optIbLb0ENS0_6parserIbEEEEA14_cJNS0_4descENS0_12OptionHiddenENS0_11initializerIbEENS0_3catENS0_3subEEEEvPT_RKT0_DpRKT1_
000000000002c7d0 T __ZN4llvm2cl5applyINS0_3optIbLb0ENS0_6parserIbEEEEA18_cJNS0_4descENS0_12OptionHiddenENS0_11initializerIbEENS0_3catENS0_3subEEEEvPT_RKT0_DpRKT1_
000000000002c540 T __ZN4llvm2cl5applyINS0_3optIbLb0ENS0_6parserIbEEEENS0_11initializerIbEEJNS0_3catENS0_3subEEEEvPT_RKT0_DpRKT1_
000000000002c4f0 T __ZN4llvm2cl5applyINS0_3optIbLb0ENS0_6parserIbEEEENS0_12OptionHiddenEJNS0_11initializerIbEENS0_3catENS0_3subEEEEvPT_RKT0_DpRKT1_
000000000002c5b0 T __ZN4llvm2cl5applyINS0_3optIbLb0ENS0_6parserIbEEEENS0_3catEJNS0_3subEEEEvPT_RKT0_DpRKT1_
000000000002c650 T __ZN4llvm2cl5applyINS0_3optIbLb0ENS0_6parserIbEEEENS0_3subEEEvPT_RKT0_
000000000002c470 T __ZN4llvm2cl5applyINS0_3optIbLb0ENS0_6parserIbEEEENS0_4descEJNS0_12OptionHiddenENS0_11initializerIbEENS0_3catENS0_3subEEEEvPT_RKT0_DpRKT1_
0000000000000bc0 T __ZN4llvm2cl6Option11addArgumentEv
000000000002ac20 T __ZN4llvm2cl6Option11setCategoryERNS0_14OptionCategoryE
0000000000000640 T __ZN4llvm2cl6Option11setPositionEj
000000000000ca00 T __ZN4llvm2cl6Option12printHelpStrENS_9StringRefEmm
000000000000c790 T __ZN4llvm2cl6Option13addOccurrenceEjNS_9StringRefES2_b
000000000002aca0 T __ZN4llvm2cl6Option13addSubCommandERNS0_10SubCommandE
0000000000014a20 T __ZN4llvm2cl6Option13setHiddenFlagENS0_12OptionHiddenE
0000000000004300 T __ZN4llvm2cl6Option14removeArgumentEv
000000000002a880 T __ZN4llvm2cl6Option14setDescriptionENS_9StringRefE
0000000000015320 T __ZN4llvm2cl6Option19getExtraOptionNamesERNS_15SmallVectorImplINS_9StringRefEEE
000000000002ab60 T __ZN4llvm2cl6Option20setValueExpectedFlagENS0_13ValueExpectedE
000000000000c2e0 T __ZN4llvm2cl6Option5errorERKNS_5TwineENS_9StringRefE
0000000000026ba0 T __ZN4llvm2cl6Option5resetEv
0000000000003db0 T __ZN4llvm2cl6Option6anchorEv
00000000000044e0 T __ZN4llvm2cl6Option9setArgStrENS_9StringRefE
000000000002a0a0 T __ZN4llvm2cl6OptionC2ENS0_18NumOccurrencesFlagENS0_12OptionHiddenE
00000000000152f0 T __ZN4llvm2cl6OptionD0Ev
00000000000152d0 T __ZN4llvm2cl6OptionD1Ev
00000000000256a0 T __ZN4llvm2cl6OptionD2Ev
000000000000d760 T __ZN4llvm2cl6parserINS0_13boolOrDefaultEE5parseERNS0_6OptionENS_9StringRefES6_RS2_
0000000000003de0 T __ZN4llvm2cl6parserINS0_13boolOrDefaultEE6anchorEv
0000000000001440 T __ZN4llvm2cl6parserINSt3__112basic_stringIcNS2_11char_traitsIcEENS2_9allocatorIcEEEEE5parseERNS0_6OptionENS_9StringRefESC_RS8_
0000000000003e40 T __ZN4llvm2cl6parserINSt3__112basic_stringIcNS2_11char_traitsIcEENS2_9allocatorIcEEEEE6anchorEv
0000000000003d10 T __ZN4llvm2cl6parserIbE10initializeEv
0000000000002710 T __ZN4llvm2cl6parserIbE5parseERNS0_6OptionENS_9StringRefES5_Rb
0000000000003dd0 T __ZN4llvm2cl6parserIbE6anchorEv
000000000002a1d0 T __ZN4llvm2cl6parserIbEC1ERNS0_6OptionE
000000000002a6d0 T __ZN4llvm2cl6parserIbEC2ERNS0_6OptionE
00000000000021c0 T __ZN4llvm2cl6parserIcE5parseERNS0_6OptionENS_9StringRefES5_Rc
0000000000003e50 T __ZN4llvm2cl6parserIcE6anchorEv
000000000000ec20 T __ZN4llvm2cl6parserIdE5parseERNS0_6OptionENS_9StringRefES5_Rd
0000000000003e20 T __ZN4llvm2cl6parserIdE6anchorEv
000000000000ed80 T __ZN4llvm2cl6parserIfE5parseERNS0_6OptionENS_9StringRefES5_Rf
0000000000003e30 T __ZN4llvm2cl6parserIfE6anchorEv
0000000000000d50 T __ZN4llvm2cl6parserIiE5parseERNS0_6OptionENS_9StringRefES5_Ri
0000000000003df0 T __ZN4llvm2cl6parserIiE6anchorEv
00000000000004f0 T __ZN4llvm2cl6parserIjE5parseERNS0_6OptionENS_9StringRefES5_Rj
0000000000003e00 T __ZN4llvm2cl6parserIjE6anchorEv
000000000000eaa0 T __ZN4llvm2cl6parserIyE5parseERNS0_6OptionENS_9StringRefES5_Ry
0000000000003e10 T __ZN4llvm2cl6parserIyE6anchorEv
00000000000123d0 t __ZN4llvm2cl8locationIN12_GLOBAL__N_111HelpPrinterEEENS0_13LocationClassIT_EERS5_
0000000000012dc0 t __ZN4llvm2cl8locationIN12_GLOBAL__N_114VersionPrinterEEENS0_13LocationClassIT_EERS5_
00000000000126c0 t __ZN4llvm2cl8locationIN12_GLOBAL__N_118HelpPrinterWrapperEEENS0_13LocationClassIT_EERS5_
00000000000041e0 T __ZN4llvm2cl9extrahelpC1ENS_9StringRefE
0000000000004000 T __ZN4llvm2cl9extrahelpC2ENS_9StringRefE
000000000002f9b8 D __ZN4llvm30VerifyDisableABIBreakingChecksE
                 U __ZN4llvm3sys14getHostCPUNameEv
                 U __ZN4llvm3sys22getDefaultTargetTripleEv
                 U __ZN4llvm3sys2fs12current_pathERNS_15SmallVectorImplIcEE
                 U __ZN4llvm3sys4path11is_relativeERKNS_5TwineENS1_5StyleE
                 U __ZN4llvm3sys4path11parent_pathENS_9StringRefENS1_5StyleE
                 U __ZN4llvm3sys4path6appendERNS_15SmallVectorImplIcEERKNS_5TwineES7_S7_S7_
                 U __ZN4llvm3sys4path8filenameENS_9StringRefENS1_5StyleE
                 U __ZN4llvm3sys7Process6GetEnvENS_9StringRefE
                 U __ZN4llvm4dbgsEv
                 U __ZN4llvm4errsEv
                 U __ZN4llvm4outsEv
000000000001f660 T __ZN4llvm5TwineC1ENS0_5ChildENS0_8NodeKindES1_S2_
000000000001f5e0 T __ZN4llvm5TwineC1ENS0_8NodeKindE
000000000000c9a0 T __ZN4llvm5TwineC1EPKc
000000000001f7e0 T __ZN4llvm5TwineC1EPKcRKNS_9StringRefE
0000000000019c20 T __ZN4llvm5TwineC1ERKNS_9StringRefE
000000000001f730 T __ZN4llvm5TwineC2ENS0_5ChildENS0_8NodeKindES1_S2_
000000000001f6b0 T __ZN4llvm5TwineC2ENS0_8NodeKindE
000000000001f3a0 T __ZN4llvm5TwineC2EPKc
000000000001f810 T __ZN4llvm5TwineC2EPKcRKNS_9StringRefE
0000000000019fb0 T __ZN4llvm5TwineC2ERKNS_9StringRefE
                 U __ZN4llvm5nullsEv
0000000000018060 T __ZN4llvm6any_ofIRKNS_11SmallPtrSetIPNS_2cl10SubCommandELj4EEEZNKS2_6Option18isInAllSubCommandsEvEUlPKS3_E_EEbOT_T0_
000000000001f900 T __ZN4llvm6detail8to_floatIdEEbRKNS_5TwineERT_PFS5_PKcPPcE
000000000001a280 T __ZN4llvm7ErrorOrINSt3__110unique_ptrINS_12MemoryBufferENS1_14default_deleteIS3_EEEEE10getStorageEv
0000000000019c70 T __ZN4llvm7ErrorOrINSt3__110unique_ptrINS_12MemoryBufferENS1_14default_deleteIS3_EEEEE3getEv
0000000000019f90 T __ZN4llvm7ErrorOrINSt3__110unique_ptrINS_12MemoryBufferENS1_14default_deleteIS3_EEEEED1Ev
000000000001a5c0 T __ZN4llvm7ErrorOrINSt3__110unique_ptrINS_12MemoryBufferENS1_14default_deleteIS3_EEEEED2Ev
0000000000019cf0 T __ZN4llvm8ArrayRefIcEC1EPKcS3_
000000000001a300 T __ZN4llvm8ArrayRefIcEC2EPKcS3_
0000000000029f20 T __ZN4llvm8OptionalINSt3__112basic_stringIcNS1_11char_traitsIcEENS1_9allocatorIcEEEEE10getPointerEv
0000000000029a60 T __ZN4llvm8OptionalINSt3__112basic_stringIcNS1_11char_traitsIcEENS1_9allocatorIcEEEEE5resetEv
0000000000008260 T __ZN4llvm8OptionalINSt3__112basic_stringIcNS1_11char_traitsIcEENS1_9allocatorIcEEEEED1Ev
0000000000029a40 T __ZN4llvm8OptionalINSt3__112basic_stringIcNS1_11char_traitsIcEENS1_9allocatorIcEEEEED2Ev
00000000000190d0 t __ZN4llvm8count_ifIRNS_11SmallPtrSetIPNS_2cl10SubCommandELj4EEEZN12_GLOBAL__N_117CommandLineParser18registerSubCommandES4_EUlPKS3_E_EENSt3__115iterator_traitsIDTclsr3stdE5beginfp_EEE15difference_typeEOT_T0_
00000000000183e0 t __ZN4llvm8count_ifIRNS_11SmallPtrSetIPNS_2cl14OptionCategoryELj16EEEZN12_GLOBAL__N_117CommandLineParser16registerCategoryES4_EUlPKS3_E_EENSt3__115iterator_traitsIDTclsr3stdE5beginfp_EEE15difference_typeEOT_T0_
000000000001f8d0 T __ZN4llvm8to_floatERKNS_5TwineERd
                 U __ZN4llvm9DebugFlagE
0000000000016470 T __ZN4llvm9StringMapIPNS_2cl6OptionENS_15MallocAllocatorEE11try_emplaceIJS3_EEENSt3__14pairINS_17StringMapIteratorIS3_EEbEENS_9StringRefEDpOT_
0000000000014980 T __ZN4llvm9StringMapIPNS_2cl6OptionENS_15MallocAllocatorEE3endEv
0000000000017d70 T __ZN4llvm9StringMapIPNS_2cl6OptionENS_15MallocAllocatorEE4findENS_9StringRefE
0000000000014940 T __ZN4llvm9StringMapIPNS_2cl6OptionENS_15MallocAllocatorEE5beginEv
0000000000004c30 T __ZN4llvm9StringMapIPNS_2cl6OptionENS_15MallocAllocatorEE5clearEv
0000000000017e40 T __ZN4llvm9StringMapIPNS_2cl6OptionENS_15MallocAllocatorEE5eraseENS_17StringMapIteratorIS3_EE
0000000000017940 T __ZN4llvm9StringMapIPNS_2cl6OptionENS_15MallocAllocatorEE5eraseENS_9StringRefE
0000000000016420 T __ZN4llvm9StringMapIPNS_2cl6OptionENS_15MallocAllocatorEE6insertENSt3__14pairINS_9StringRefES3_EE
0000000000017e90 T __ZN4llvm9StringMapIPNS_2cl6OptionENS_15MallocAllocatorEE6removeEPNS_14StringMapEntryIS3_EE
0000000000026e70 T __ZN4llvm9StringMapIPNS_2cl6OptionENS_15MallocAllocatorEEC1Ev
0000000000026f40 T __ZN4llvm9StringMapIPNS_2cl6OptionENS_15MallocAllocatorEEC2Ev
0000000000027010 T __ZN4llvm9StringMapIPNS_2cl6OptionENS_15MallocAllocatorEED1Ev
0000000000027050 T __ZN4llvm9StringMapIPNS_2cl6OptionENS_15MallocAllocatorEED2Ev
000000000000d740 T __ZN4llvm9StringRefC1Ev
000000000001f8b0 T __ZN4llvm9StringRefC2Ev
000000000000c760 T __ZN4llvmlsERNS_11raw_ostreamERKNS_5TwineE
000000000000d710 T __ZN4llvmplEPKcRKNS_9StringRefE
000000000000d6e0 T __ZN4llvmplERKNS_5TwineES2_
000000000001dad0 t __ZNK12_GLOBAL__N_117CommandLineParser10hasOptionsERKN4llvm2cl10SubCommandE
000000000001a9c0 t __ZNK12_GLOBAL__N_117CommandLineParser10hasOptionsEv
0000000000019ec0 T __ZNK4llvm11SmallStringILj128EE3strEv
0000000000005480 T __ZNK4llvm11SmallStringILj128EEcvNS_9StringRefEEv
0000000000019cd0 T __ZNK4llvm12MemoryBuffer12getBufferEndEv
0000000000019cb0 T __ZNK4llvm12MemoryBuffer13getBufferSizeEv
0000000000019c90 T __ZNK4llvm12MemoryBuffer14getBufferStartEv
000000000001db50 T __ZNK4llvm13StringMapImpl5emptyEv
                 U __ZNK4llvm13StringMapImpl7FindKeyENS_9StringRefE
0000000000016b00 T __ZNK4llvm14StringMapEntryIPNS_2cl6OptionEE10getKeyDataEv
00000000000193c0 T __ZNK4llvm14StringMapEntryIPNS_2cl6OptionEE5firstEv
0000000000025ce0 T __ZNK4llvm14StringMapEntryIPNS_2cl6OptionEE6getKeyEv
0000000000016ba0 T __ZNK4llvm15SmallPtrSetImplIPNS_2cl10SubCommandEE12makeIteratorEPKPKv
0000000000016220 T __ZNK4llvm15SmallPtrSetImplIPNS_2cl10SubCommandEE3endEv
00000000000161a0 T __ZNK4llvm15SmallPtrSetImplIPNS_2cl10SubCommandEE5beginEv
0000000000018990 T __ZNK4llvm15SmallPtrSetImplIPNS_2cl14OptionCategoryEE12makeIteratorEPKPKv
0000000000018ac0 T __ZNK4llvm15SmallPtrSetImplIPNS_2cl14OptionCategoryEE3endEv
0000000000018910 T __ZNK4llvm15SmallPtrSetImplIPNS_2cl14OptionCategoryEE5beginEv
0000000000025f60 T __ZNK4llvm15SmallPtrSetImplIPNS_2cl6OptionEE12makeIteratorEPKPKv
00000000000052d0 T __ZNK4llvm15SmallVectorBase5emptyEv
                 U __ZNK4llvm17ManagedStaticBase21RegisterManagedStaticEPFPvvEPFvS1_E
0000000000017e10 T __ZNK4llvm17StringMapIterBaseINS_17StringMapIteratorIPNS_2cl6OptionEEENS_14StringMapEntryIS4_EEEeqERKS5_
000000000001e660 T __ZNK4llvm17StringMapIterBaseINS_22StringMapConstIteratorIPNS_2cl6OptionEEEKNS_14StringMapEntryIS4_EEEeqERKS5_
0000000000014a00 T __ZNK4llvm17StringMapIteratorIPNS_2cl6OptionEEdeEv
0000000000017f10 T __ZNK4llvm18StringMapEntryBase12getKeyLengthEv
0000000000016c60 T __ZNK4llvm19SmallPtrSetImplBase10EndPointerEv
                 U __ZNK4llvm19SmallPtrSetImplBase13FindBucketForEPKv
0000000000016400 T __ZNK4llvm19SmallPtrSetImplBase4sizeEv
0000000000015e80 T __ZNK4llvm19SmallPtrSetImplBase5emptyEv
0000000000016fa0 T __ZNK4llvm19SmallPtrSetImplBase7isSmallEv
0000000000019740 T __ZNK4llvm19SmallPtrSetImplBase8find_impEPKv
0000000000016290 T __ZNK4llvm19SmallPtrSetIteratorIPNS_2cl10SubCommandEEdeEv
0000000000018750 T __ZNK4llvm19SmallPtrSetIteratorIPNS_2cl14OptionCategoryEEdeEv
00000000000149c0 T __ZNK4llvm20iterator_facade_baseINS_17StringMapIteratorIPNS_2cl6OptionEEENSt3__120forward_iterator_tagENS_14StringMapEntryIS4_EElPS9_RS9_EneERKS5_
000000000001e6d0 T __ZNK4llvm20iterator_facade_baseINS_22StringMapConstIteratorIPNS_2cl6OptionEEENSt3__120forward_iterator_tagEKNS_14StringMapEntryIS4_EElPSA_RSA_EneERKS5_
000000000001e850 T __ZNK4llvm22StringMapConstIteratorIPNS_2cl6OptionEEdeEv
0000000000016260 T __ZNK4llvm23SmallPtrSetIteratorImplneERKS0_
0000000000018030 T __ZNK4llvm25SmallVectorTemplateCommonINS_9StringRefEvE7isSmallEv
000000000001f370 T __ZNK4llvm25SmallVectorTemplateCommonINSt3__14pairINS_9StringRefEjEEvE7isSmallEv
0000000000026990 T __ZNK4llvm25SmallVectorTemplateCommonINSt3__14pairIPKcPNS_2cl10SubCommandEEEvE7isSmallEv
0000000000026210 T __ZNK4llvm25SmallVectorTemplateCommonINSt3__14pairIPKcPNS_2cl6OptionEEEvE7isSmallEv
0000000000029e20 T __ZNK4llvm25SmallVectorTemplateCommonINSt3__14pairIPvmEEvE7isSmallEv
0000000000029940 T __ZNK4llvm25SmallVectorTemplateCommonIPKcvE12capacity_ptrEv
000000000001a750 T __ZNK4llvm25SmallVectorTemplateCommonIPKcvE7isSmallEv
0000000000029900 T __ZNK4llvm25SmallVectorTemplateCommonIPKcvE8capacityEv
00000000000271c0 T __ZNK4llvm25SmallVectorTemplateCommonIPNS_2cl6OptionEvE7isSmallEv
0000000000029ef0 T __ZNK4llvm25SmallVectorTemplateCommonIPvvE7isSmallEv
00000000000199c0 T __ZNK4llvm25SmallVectorTemplateCommonIcvE7isSmallEv
00000000000264c0 T __ZNK4llvm2cl10SubCommand14getDescriptionEv
00000000000195c0 T __ZNK4llvm2cl10SubCommand7getNameEv
0000000000004d10 T __ZNK4llvm2cl10SubCommandcvbEv
000000000002c5f0 T __ZNK4llvm2cl11initializerIbE5applyINS0_3optIbLb0ENS0_6parserIbEEEEEEvRT_
000000000002ae40 t __ZNK4llvm2cl11opt_storageIN12_GLOBAL__N_111HelpPrinterELb1ELb1EE10getDefaultEv
000000000002ad40 t __ZNK4llvm2cl11opt_storageIN12_GLOBAL__N_111HelpPrinterELb1ELb1EE14check_locationEv
000000000002ae80 t __ZNK4llvm2cl11opt_storageIN12_GLOBAL__N_111HelpPrinterELb1ELb1EE8getValueEv
000000000002d7b0 t __ZNK4llvm2cl11opt_storageIN12_GLOBAL__N_114VersionPrinterELb1ELb1EE10getDefaultEv
000000000002d2d0 t __ZNK4llvm2cl11opt_storageIN12_GLOBAL__N_114VersionPrinterELb1ELb1EE14check_locationEv
000000000002d7f0 t __ZNK4llvm2cl11opt_storageIN12_GLOBAL__N_114VersionPrinterELb1ELb1EE8getValueEv
000000000002bd00 t __ZNK4llvm2cl11opt_storageIN12_GLOBAL__N_118HelpPrinterWrapperELb1ELb1EE10getDefaultEv
000000000002bbb0 t __ZNK4llvm2cl11opt_storageIN12_GLOBAL__N_118HelpPrinterWrapperELb1ELb1EE14check_locationEv
000000000002bd40 t __ZNK4llvm2cl11opt_storageIN12_GLOBAL__N_118HelpPrinterWrapperELb1ELb1EE8getValueEv
00000000000019d0 T __ZNK4llvm2cl11opt_storageINSt3__112basic_stringIcNS2_11char_traitsIcEENS2_9allocatorIcEEEELb0ELb1EE10getDefaultEv
0000000000001f40 T __ZNK4llvm2cl11opt_storageINSt3__112basic_stringIcNS2_11char_traitsIcEENS2_9allocatorIcEEEELb0ELb1EE8getValueEv
0000000000003b60 T __ZNK4llvm2cl11opt_storageIbLb0ELb0EE10getDefaultEv
0000000000003bd0 T __ZNK4llvm2cl11opt_storageIbLb0ELb0EE8getValueEv
00000000000257b0 T __ZNK4llvm2cl11opt_storageIbLb0ELb0EEcvbEv
0000000000002420 T __ZNK4llvm2cl11opt_storageIcLb0ELb0EE10getDefaultEv
0000000000002490 T __ZNK4llvm2cl11opt_storageIcLb0ELb0EE8getValueEv
0000000000001050 T __ZNK4llvm2cl11opt_storageIiLb0ELb0EE10getDefaultEv
00000000000010c0 T __ZNK4llvm2cl11opt_storageIiLb0ELb0EE8getValueEv
0000000000000a20 T __ZNK4llvm2cl11opt_storageIjLb0ELb0EE10getDefaultEv
0000000000000a90 T __ZNK4llvm2cl11opt_storageIjLb0ELb0EE8getValueEv
000000000002a930 t __ZNK4llvm2cl13LocationClassIN12_GLOBAL__N_111HelpPrinterEE5applyINS0_3optIS3_Lb1ENS0_6parserIbEEEEEEvRT_
000000000002d090 t __ZNK4llvm2cl13LocationClassIN12_GLOBAL__N_114VersionPrinterEE5applyINS0_3optIS3_Lb1ENS0_6parserIbEEEEEEvRT_
000000000002b8d0 t __ZNK4llvm2cl13LocationClassIN12_GLOBAL__N_118HelpPrinterWrapperEE5applyINS0_3optIS3_Lb1ENS0_6parserIbEEEEEEvRT_
00000000000214b0 T __ZNK4llvm2cl14OptionCategory14getDescriptionEv
00000000000188c0 T __ZNK4llvm2cl14OptionCategory7getNameEv
000000000002a690 t __ZNK4llvm2cl15OptionValueBaseIN12_GLOBAL__N_111HelpPrinterELb1EE7compareERKNS0_18GenericOptionValueE
000000000002ae60 t __ZNK4llvm2cl15OptionValueBaseIN12_GLOBAL__N_111HelpPrinterELb1EE7compareERKS3_
000000000002cef0 t __ZNK4llvm2cl15OptionValueBaseIN12_GLOBAL__N_114VersionPrinterELb1EE7compareERKNS0_18GenericOptionValueE
000000000002d7d0 t __ZNK4llvm2cl15OptionValueBaseIN12_GLOBAL__N_114VersionPrinterELb1EE7compareERKS3_
000000000002d990 t __ZNK4llvm2cl15OptionValueBaseIN12_GLOBAL__N_114VersionPrinterELb1EE8getValueEv
000000000002d920 t __ZNK4llvm2cl15OptionValueBaseIN12_GLOBAL__N_114VersionPrinterELb1EE8hasValueEv
000000000002b710 t __ZNK4llvm2cl15OptionValueBaseIN12_GLOBAL__N_118HelpPrinterWrapperELb1EE7compareERKNS0_18GenericOptionValueE
000000000002bd20 t __ZNK4llvm2cl15OptionValueBaseIN12_GLOBAL__N_118HelpPrinterWrapperELb1EE7compareERKS3_
0000000000015330 T __ZNK4llvm2cl15OptionValueCopyINS0_13boolOrDefaultEE7compareERKNS0_18GenericOptionValueE
000000000002ed60 T __ZNK4llvm2cl15OptionValueCopyINS0_13boolOrDefaultEE7compareERKS2_
0000000000010360 T __ZNK4llvm2cl15OptionValueCopyINS0_13boolOrDefaultEE8getValueEv
0000000000010340 T __ZNK4llvm2cl15OptionValueCopyINS0_13boolOrDefaultEE8hasValueEv
00000000000153a0 T __ZNK4llvm2cl15OptionValueCopyINSt3__112basic_stringIcNS2_11char_traitsIcEENS2_9allocatorIcEEEEE7compareERKNS0_18GenericOptionValueE
00000000000019f0 T __ZNK4llvm2cl15OptionValueCopyINSt3__112basic_stringIcNS2_11char_traitsIcEENS2_9allocatorIcEEEEE7compareERKS8_
0000000000012200 T __ZNK4llvm2cl15OptionValueCopyINSt3__112basic_stringIcNS2_11char_traitsIcEENS2_9allocatorIcEEEEE8getValueEv
00000000000121e0 T __ZNK4llvm2cl15OptionValueCopyINSt3__112basic_stringIcNS2_11char_traitsIcEENS2_9allocatorIcEEEEE8hasValueEv
0000000000027de0 T __ZNK4llvm2cl15OptionValueCopyIbE7compareERKNS0_18GenericOptionValueE
0000000000003b80 T __ZNK4llvm2cl15OptionValueCopyIbE7compareERKb
000000000000feb0 T __ZNK4llvm2cl15OptionValueCopyIbE8getValueEv
000000000000fe90 T __ZNK4llvm2cl15OptionValueCopyIbE8hasValueEv
0000000000027b80 T __ZNK4llvm2cl15OptionValueCopyIcE7compareERKNS0_18GenericOptionValueE
0000000000002440 T __ZNK4llvm2cl15OptionValueCopyIcE7compareERKc
0000000000011ff0 T __ZNK4llvm2cl15OptionValueCopyIcE8getValueEv
0000000000011fd0 T __ZNK4llvm2cl15OptionValueCopyIcE8hasValueEv
0000000000011670 T __ZNK4llvm2cl15OptionValueCopyIdE8getValueEv
0000000000011650 T __ZNK4llvm2cl15OptionValueCopyIdE8hasValueEv
0000000000011b30 T __ZNK4llvm2cl15OptionValueCopyIfE8getValueEv
0000000000011b10 T __ZNK4llvm2cl15OptionValueCopyIfE8hasValueEv
00000000000275d0 T __ZNK4llvm2cl15OptionValueCopyIiE7compareERKNS0_18GenericOptionValueE
0000000000001070 T __ZNK4llvm2cl15OptionValueCopyIiE7compareERKi
0000000000010810 T __ZNK4llvm2cl15OptionValueCopyIiE8getValueEv
00000000000107f0 T __ZNK4llvm2cl15OptionValueCopyIiE8hasValueEv
0000000000027370 T __ZNK4llvm2cl15OptionValueCopyIjE7compareERKNS0_18GenericOptionValueE
0000000000000a40 T __ZNK4llvm2cl15OptionValueCopyIjE7compareERKj
0000000000010cf0 T __ZNK4llvm2cl15OptionValueCopyIjE8getValueEv
0000000000010cd0 T __ZNK4llvm2cl15OptionValueCopyIjE8hasValueEv
00000000000111b0 T __ZNK4llvm2cl15OptionValueCopyIyE8getValueEv
0000000000011190 T __ZNK4llvm2cl15OptionValueCopyIyE8hasValueEv
0000000000015460 T __ZNK4llvm2cl17basic_parser_impl12getValueNameEv
0000000000000720 T __ZNK4llvm2cl17basic_parser_impl14getOptionWidthERKNS0_6OptionE
0000000000000800 T __ZNK4llvm2cl17basic_parser_impl15printOptionInfoERKNS0_6OptionEm
000000000000d650 T __ZNK4llvm2cl17basic_parser_impl15printOptionNameERKNS0_6OptionEm
0000000000012280 T __ZNK4llvm2cl17basic_parser_impl18printOptionNoValueERKNS0_6OptionEm
0000000000000690 T __ZNK4llvm2cl17basic_parser_impl27getValueExpectedFlagDefaultEv
000000000000efc0 T __ZNK4llvm2cl19generic_parser_base14getOptionWidthERKNS0_6OptionE
000000000000f2c0 T __ZNK4llvm2cl19generic_parser_base15printOptionInfoERKNS0_6OptionEm
000000000000f680 T __ZNK4llvm2cl19generic_parser_base22printGenericOptionDiffERKNS0_6OptionERKNS0_18GenericOptionValueES7_m
000000000002abf0 t __ZNK4llvm2cl3cat5applyINS0_3optIN12_GLOBAL__N_111HelpPrinterELb1ENS0_6parserIbEEEEEEvRT_
000000000002d230 t __ZNK4llvm2cl3cat5applyINS0_3optIN12_GLOBAL__N_114VersionPrinterELb1ENS0_6parserIbEEEEEEvRT_
000000000002bab0 t __ZNK4llvm2cl3cat5applyINS0_3optIN12_GLOBAL__N_118HelpPrinterWrapperELb1ENS0_6parserIbEEEEEEvRT_
000000000002c680 T __ZNK4llvm2cl3cat5applyINS0_3optIbLb0ENS0_6parserIbEEEEEEvRT_
000000000002a460 t __ZNK4llvm2cl3optIN12_GLOBAL__N_111HelpPrinterELb1ENS0_6parserIbEEE14getOptionWidthEv
000000000002a490 t __ZNK4llvm2cl3optIN12_GLOBAL__N_111HelpPrinterELb1ENS0_6parserIbEEE15printOptionInfoEm
000000000002a4c0 t __ZNK4llvm2cl3optIN12_GLOBAL__N_111HelpPrinterELb1ENS0_6parserIbEEE16printOptionValueEmb
000000000002a400 t __ZNK4llvm2cl3optIN12_GLOBAL__N_111HelpPrinterELb1ENS0_6parserIbEEE27getValueExpectedFlagDefaultEv
000000000002ccc0 t __ZNK4llvm2cl3optIN12_GLOBAL__N_114VersionPrinterELb1ENS0_6parserIbEEE14getOptionWidthEv
000000000002ccf0 t __ZNK4llvm2cl3optIN12_GLOBAL__N_114VersionPrinterELb1ENS0_6parserIbEEE15printOptionInfoEm
000000000002cd20 t __ZNK4llvm2cl3optIN12_GLOBAL__N_114VersionPrinterELb1ENS0_6parserIbEEE16printOptionValueEmb
000000000002cc60 t __ZNK4llvm2cl3optIN12_GLOBAL__N_114VersionPrinterELb1ENS0_6parserIbEEE27getValueExpectedFlagDefaultEv
000000000002b4e0 t __ZNK4llvm2cl3optIN12_GLOBAL__N_118HelpPrinterWrapperELb1ENS0_6parserIbEEE14getOptionWidthEv
000000000002b510 t __ZNK4llvm2cl3optIN12_GLOBAL__N_118HelpPrinterWrapperELb1ENS0_6parserIbEEE15printOptionInfoEm
000000000002b540 t __ZNK4llvm2cl3optIN12_GLOBAL__N_118HelpPrinterWrapperELb1ENS0_6parserIbEEE16printOptionValueEmb
000000000002b480 t __ZNK4llvm2cl3optIN12_GLOBAL__N_118HelpPrinterWrapperELb1ENS0_6parserIbEEE27getValueExpectedFlagDefaultEv
00000000000018a0 T __ZNK4llvm2cl3optINSt3__112basic_stringIcNS2_11char_traitsIcEENS2_9allocatorIcEEEELb0ENS0_6parserIS8_EEE14getOptionWidthEv
00000000000018d0 T __ZNK4llvm2cl3optINSt3__112basic_stringIcNS2_11char_traitsIcEENS2_9allocatorIcEEEELb0ENS0_6parserIS8_EEE15printOptionInfoEm
0000000000001900 T __ZNK4llvm2cl3optINSt3__112basic_stringIcNS2_11char_traitsIcEENS2_9allocatorIcEEEELb0ENS0_6parserIS8_EEE16printOptionValueEmb
0000000000001830 T __ZNK4llvm2cl3optINSt3__112basic_stringIcNS2_11char_traitsIcEENS2_9allocatorIcEEEELb0ENS0_6parserIS8_EEE27getValueExpectedFlagDefaultEv
0000000000003a20 T __ZNK4llvm2cl3optIbLb0ENS0_6parserIbEEE14getOptionWidthEv
0000000000003a50 T __ZNK4llvm2cl3optIbLb0ENS0_6parserIbEEE15printOptionInfoEm
0000000000003a80 T __ZNK4llvm2cl3optIbLb0ENS0_6parserIbEEE16printOptionValueEmb
00000000000039a0 T __ZNK4llvm2cl3optIbLb0ENS0_6parserIbEEE27getValueExpectedFlagDefaultEv
00000000000022e0 T __ZNK4llvm2cl3optIcLb0ENS0_6parserIcEEE14getOptionWidthEv
0000000000002310 T __ZNK4llvm2cl3optIcLb0ENS0_6parserIcEEE15printOptionInfoEm
0000000000002340 T __ZNK4llvm2cl3optIcLb0ENS0_6parserIcEEE16printOptionValueEmb
0000000000002270 T __ZNK4llvm2cl3optIcLb0ENS0_6parserIcEEE27getValueExpectedFlagDefaultEv
0000000000000f10 T __ZNK4llvm2cl3optIiLb0ENS0_6parserIiEEE14getOptionWidthEv
0000000000000f40 T __ZNK4llvm2cl3optIiLb0ENS0_6parserIiEEE15printOptionInfoEm
0000000000000f70 T __ZNK4llvm2cl3optIiLb0ENS0_6parserIiEEE16printOptionValueEmb
0000000000000ea0 T __ZNK4llvm2cl3optIiLb0ENS0_6parserIiEEE27getValueExpectedFlagDefaultEv
00000000000006f0 T __ZNK4llvm2cl3optIjLb0ENS0_6parserIjEEE14getOptionWidthEv
00000000000007d0 T __ZNK4llvm2cl3optIjLb0ENS0_6parserIjEEE15printOptionInfoEm
0000000000000940 T __ZNK4llvm2cl3optIjLb0ENS0_6parserIjEEE16printOptionValueEmb
0000000000000660 T __ZNK4llvm2cl3optIjLb0ENS0_6parserIjEEE27getValueExpectedFlagDefaultEv
000000000002ac70 t __ZNK4llvm2cl3sub5applyINS0_3optIN12_GLOBAL__N_111HelpPrinterELb1ENS0_6parserIbEEEEEEvRT_
000000000002bb10 t __ZNK4llvm2cl3sub5applyINS0_3optIN12_GLOBAL__N_118HelpPrinterWrapperELb1ENS0_6parserIbEEEEEEvRT_
000000000002c6e0 T __ZNK4llvm2cl3sub5applyINS0_3optIbLb0ENS0_6parserIbEEEEEEvRT_
000000000002a840 T __ZNK4llvm2cl4desc5applyERNS0_6OptionE
000000000000c9d0 T __ZNK4llvm2cl5alias14getOptionWidthEv
000000000000d4d0 T __ZNK4llvm2cl5alias15printOptionInfoEm
0000000000015bc0 T __ZNK4llvm2cl5alias16printOptionValueEmb
0000000000015b40 T __ZNK4llvm2cl5alias27getValueExpectedFlagDefaultEv
0000000000017440 T __ZNK4llvm2cl6Option12getMiscFlagsEv
0000000000019330 T __ZNK4llvm2cl6Option12isPositionalEv
0000000000019390 T __ZNK4llvm2cl6Option14isConsumeAfterEv
00000000000173a0 T __ZNK4llvm2cl6Option17getFormattingFlagEv
000000000001da90 T __ZNK4llvm2cl6Option17getNumOccurrencesEv
0000000000017870 T __ZNK4llvm2cl6Option18isInAllSubCommandsEv
0000000000025b20 T __ZNK4llvm2cl6Option19getOptionHiddenFlagEv
000000000001e8e0 T __ZNK4llvm2cl6Option20getNumAdditionalValsEv
000000000001e600 T __ZNK4llvm2cl6Option20getValueExpectedFlagEv
000000000000c980 T __ZNK4llvm2cl6Option21getNumOccurrencesFlagEv
00000000000152c0 T __ZNK4llvm2cl6Option27getValueExpectedFlagDefaultEv
0000000000019360 T __ZNK4llvm2cl6Option6isSinkEv
000000000000f290 T __ZNK4llvm2cl6Option9hasArgStrEv
0000000000015520 T __ZNK4llvm2cl6parserINS0_13boolOrDefaultEE12getValueNameEv
000000000000ff30 T __ZNK4llvm2cl6parserINS0_13boolOrDefaultEE15printOptionDiffERKNS0_6OptionES2_NS0_11OptionValueIS2_EEm
0000000000015820 T __ZNK4llvm2cl6parserINSt3__112basic_stringIcNS2_11char_traitsIcEENS2_9allocatorIcEEEEE12getValueNameEv
0000000000012070 T __ZNK4llvm2cl6parserINSt3__112basic_stringIcNS2_11char_traitsIcEENS2_9allocatorIcEEEEE15printOptionDiffERKNS0_6OptionENS_9StringRefERKNS0_11OptionValueIS8_EEm
00000000000154f0 T __ZNK4llvm2cl6parserIbE12getValueNameEv
000000000000fa10 T __ZNK4llvm2cl6parserIbE15printOptionDiffERKNS0_6OptionEbNS0_11OptionValueIbEEm
00000000000039d0 T __ZNK4llvm2cl6parserIbE27getValueExpectedFlagDefaultEv
00000000000158b0 T __ZNK4llvm2cl6parserIcE12getValueNameEv
0000000000011bb0 T __ZNK4llvm2cl6parserIcE15printOptionDiffERKNS0_6OptionEcNS0_11OptionValueIcEEm
0000000000015700 T __ZNK4llvm2cl6parserIdE12getValueNameEv
0000000000011230 T __ZNK4llvm2cl6parserIdE15printOptionDiffERKNS0_6OptionEdNS0_11OptionValueIdEEm
0000000000015790 T __ZNK4llvm2cl6parserIfE12getValueNameEv
00000000000116f0 T __ZNK4llvm2cl6parserIfE15printOptionDiffERKNS0_6OptionEfNS0_11OptionValueIfEEm
0000000000015550 T __ZNK4llvm2cl6parserIiE12getValueNameEv
00000000000103e0 T __ZNK4llvm2cl6parserIiE15printOptionDiffERKNS0_6OptionEiNS0_11OptionValueIiEEm
00000000000155e0 T __ZNK4llvm2cl6parserIjE12getValueNameEv
0000000000010890 T __ZNK4llvm2cl6parserIjE15printOptionDiffERKNS0_6OptionEjNS0_11OptionValueIjEEm
0000000000015670 T __ZNK4llvm2cl6parserIyE12getValueNameEv
0000000000010d70 T __ZNK4llvm2cl6parserIyE15printOptionDiffERKNS0_6OptionEyNS0_11OptionValueIyEEm
000000000001a1b0 T __ZNK4llvm5Twine10getLHSKindEv
000000000001a190 T __ZNK4llvm5Twine10getRHSKindEv
                 U __ZNK4llvm5Twine25toNullTerminatedStringRefERNS_15SmallVectorImplIcEE
                 U __ZNK4llvm5Twine3strEv
                 U __ZNK4llvm5Twine5printERNS_11raw_ostreamE
000000000001f450 T __ZNK4llvm5Twine6concatERKS0_
000000000001a220 T __ZNK4llvm5Twine6isNullEv
000000000001a250 T __ZNK4llvm5Twine7isEmptyEv
000000000001f610 T __ZNK4llvm5Twine7isUnaryEv
000000000001a040 T __ZNK4llvm5Twine7isValidEv
000000000001a1d0 T __ZNK4llvm5Twine8isBinaryEv
000000000001a150 T __ZNK4llvm5Twine9isNullaryEv
0000000000019c50 T __ZNK4llvm7ErrorOrINSt3__110unique_ptrINS_12MemoryBufferENS1_14default_deleteIS3_EEEEEcvbEv
0000000000014be0 T __ZNK4llvm8ArrayRefIPKNS_2cl14OptionCategoryEE3endEv
0000000000014bc0 T __ZNK4llvm8ArrayRefIPKNS_2cl14OptionCategoryEE5beginEv
0000000000019dc0 T __ZNK4llvm8ArrayRefIcE4dataEv
0000000000019de0 T __ZNK4llvm8ArrayRefIcE4sizeEv
000000000001a330 T __ZNK4llvm8ArrayRefIcEixEm
0000000000008020 T __ZNK4llvm8OptionalINSt3__112basic_stringIcNS1_11char_traitsIcEENS1_9allocatorIcEEEEEcvbEv
000000000001e690 T __ZNK4llvm9StringMapIPNS_2cl6OptionENS_15MallocAllocatorEE3endEv
000000000001e510 T __ZNK4llvm9StringMapIPNS_2cl6OptionENS_15MallocAllocatorEE4findENS_9StringRefE
000000000001e870 T __ZNK4llvm9StringMapIPNS_2cl6OptionENS_15MallocAllocatorEE5beginEv
000000000001e480 T __ZNK4llvm9StringMapIPNS_2cl6OptionENS_15MallocAllocatorEE5countENS_9StringRefE
000000000000e9a0 T __ZNK4llvm9StringRef12getAsIntegerIiEENSt3__19enable_ifIXsr3std14numeric_limitsIT_EE9is_signedEbE4typeEjRS4_
000000000000ea20 T __ZNK4llvm9StringRef12getAsIntegerIjEENSt3__19enable_ifIXntsr3std14numeric_limitsIT_EE9is_signedEbE4typeEjRS4_
000000000000eba0 T __ZNK4llvm9StringRef12getAsIntegerIyEENSt3__19enable_ifIXntsr3std14numeric_limitsIT_EE9is_signedEbE4typeEjRS4_
                 U __ZNK4llvm9StringRef13edit_distanceES0_bj
000000000001a4f0 T __ZNK4llvm9StringRef3endEv
0000000000015cc0 T __ZNK4llvm9StringRef3strEv
000000000001a4d0 T __ZNK4llvm9StringRef5beginEv
0000000000019e00 T __ZNK4llvm9StringRef5frontEv
000000000000cb90 T __ZNK4llvm9StringRef5splitEc
000000000001aac0 T __ZNK4llvm9StringRefcvNSt3__112basic_stringIcNS1_11char_traitsIcEENS1_9allocatorIcEEEEEv
0000000000004700 T __ZNK4llvm9StringRefixEm
                 U __ZNKSt3__112basic_stringIcNS_11char_traitsIcEENS_9allocatorIcEEE7compareEmmPKcm
                 U __ZNKSt3__120__vector_base_commonILb1EE20__throw_length_errorEv
0000000000023570 T __ZNKSt3__16__treeINS_12__value_typeIPN4llvm2cl14OptionCategoryENS_6vectorIPNS3_6OptionENS_9allocatorIS8_EEEEEENS_19__map_value_compareIS5_SC_NS_4lessIS5_EELb1EEENS9_ISC_EEE10__root_ptrEv
0000000000024210 T __ZNKSt3__16__treeINS_12__value_typeIPN4llvm2cl14OptionCategoryENS_6vectorIPNS3_6OptionENS_9allocatorIS8_EEEEEENS_19__map_value_compareIS5_SC_NS_4lessIS5_EELb1EEENS9_ISC_EEE14__count_uniqueIS5_EEmRKT_
0000000000029000 T __ZNKSt3__16vectorIN4llvm9StringRefENS_9allocatorIS2_EEE8max_sizeEv
000000000002e790 T __ZNKSt3__16vectorINS_8functionIFvRN4llvm11raw_ostreamEEEENS_9allocatorIS6_EEE8max_sizeEv
0000000000021fd0 T __ZNKSt3__16vectorIPN4llvm2cl14OptionCategoryENS_9allocatorIS4_EEE8max_sizeEv
0000000000024d40 T __ZNKSt3__16vectorIPN4llvm2cl6OptionENS_9allocatorIS4_EEE8max_sizeEv
000000000002d650 T __ZNKSt3__18functionIFvRN4llvm11raw_ostreamEEEclES3_
0000000000008160 T __ZNR4llvm8OptionalINSt3__112basic_stringIcNS1_11char_traitsIcEENS1_9allocatorIcEEEEEdeEv
0000000000015e60 T __ZNSt3__111char_traitsIcE6assignERcRKc
00000000000269c0 T __ZNSt3__111char_traitsIcE6lengthEPKc
0000000000027710 T __ZNSt3__111char_traitsIcE7compareEPKcS3_m
                 U __ZNSt3__112basic_stringIcNS_11char_traitsIcEENS_9allocatorIcEEE6__initEPKcm
                 U __ZNSt3__112basic_stringIcNS_11char_traitsIcEENS_9allocatorIcEEE6assignEPKc
                 U __ZNSt3__112basic_stringIcNS_11char_traitsIcEENS_9allocatorIcEEE7reserveEm
                 U __ZNSt3__112basic_stringIcNS_11char_traitsIcEENS_9allocatorIcEEED1Ev
                 U __ZNSt3__112basic_stringIcNS_11char_traitsIcEENS_9allocatorIcEEED2Ev
                 U __ZNSt3__112basic_stringIcNS_11char_traitsIcEENS_9allocatorIcEEEaSERKS5_
0000000000028500 T __ZNSt3__113__vector_baseIN4llvm9StringRefENS_9allocatorIS2_EEED2Ev
0000000000025420 T __ZNSt3__113__vector_baseIPN4llvm2cl14OptionCategoryENS_9allocatorIS4_EEED2Ev
0000000000024070 T __ZNSt3__113__vector_baseIPN4llvm2cl6OptionENS_9allocatorIS4_EEED2Ev
00000000000289d0 T __ZNSt3__114__split_bufferIN4llvm9StringRefERNS_9allocatorIS2_EEEC1EmmS5_
00000000000290f0 T __ZNSt3__114__split_bufferIN4llvm9StringRefERNS_9allocatorIS2_EEEC2EmmS5_
0000000000028fe0 T __ZNSt3__114__split_bufferIN4llvm9StringRefERNS_9allocatorIS2_EEED1Ev
0000000000029310 T __ZNSt3__114__split_bufferIN4llvm9StringRefERNS_9allocatorIS2_EEED2Ev
000000000002e040 T __ZNSt3__114__split_bufferINS_8functionIFvRN4llvm11raw_ostreamEEEERNS_9allocatorIS6_EEEC1EmmS9_
000000000002e880 T __ZNSt3__114__split_bufferINS_8functionIFvRN4llvm11raw_ostreamEEEERNS_9allocatorIS6_EEEC2EmmS9_
000000000002e770 T __ZNSt3__114__split_bufferINS_8functionIFvRN4llvm11raw_ostreamEEEERNS_9allocatorIS6_EEED1Ev
000000000002eb80 T __ZNSt3__114__split_bufferINS_8functionIFvRN4llvm11raw_ostreamEEEERNS_9allocatorIS6_EEED2Ev
00000000000219a0 T __ZNSt3__114__split_bufferIPN4llvm2cl14OptionCategoryERNS_9allocatorIS4_EEEC1EmmS7_
00000000000220c0 T __ZNSt3__114__split_bufferIPN4llvm2cl14OptionCategoryERNS_9allocatorIS4_EEEC2EmmS7_
0000000000021fb0 T __ZNSt3__114__split_bufferIPN4llvm2cl14OptionCategoryERNS_9allocatorIS4_EEED1Ev
00000000000222e0 T __ZNSt3__114__split_bufferIPN4llvm2cl14OptionCategoryERNS_9allocatorIS4_EEED2Ev
0000000000024710 T __ZNSt3__114__split_bufferIPN4llvm2cl6OptionERNS_9allocatorIS4_EEEC1EmmS7_
0000000000024e30 T __ZNSt3__114__split_bufferIPN4llvm2cl6OptionERNS_9allocatorIS4_EEEC2EmmS7_
0000000000024d20 T __ZNSt3__114__split_bufferIPN4llvm2cl6OptionERNS_9allocatorIS4_EEED1Ev
0000000000025050 T __ZNSt3__114__split_bufferIPN4llvm2cl6OptionERNS_9allocatorIS4_EEED2Ev
0000000000023940 T __ZNSt3__118__tree_left_rotateIPNS_16__tree_node_baseIPvEEEEvT_
00000000000299a0 T __ZNSt3__118uninitialized_copyINS_13move_iteratorIPPKcEES4_EET0_T_S7_S6_
0000000000023a20 T __ZNSt3__119__tree_right_rotateIPNS_16__tree_node_baseIPvEEEEvT_
0000000000019b60 T __ZNSt3__120uninitialized_fill_nIPcmcEET_S2_T0_RKT1_
00000000000235c0 T __ZNSt3__127__tree_balance_after_insertIPNS_16__tree_node_baseIPvEEEEvT_S5_
00000000000214e0 T __ZNSt3__13mapIPN4llvm2cl14OptionCategoryENS_6vectorIPNS2_6OptionENS_9allocatorIS7_EEEENS_4lessIS4_EENS8_INS_4pairIKS4_SA_EEEEED1Ev
0000000000025220 T __ZNSt3__13mapIPN4llvm2cl14OptionCategoryENS_6vectorIPNS2_6OptionENS_9allocatorIS7_EEEENS_4lessIS4_EENS8_INS_4pairIKS4_SA_EEEEED2Ev
0000000000021340 T __ZNSt3__13mapIPN4llvm2cl14OptionCategoryENS_6vectorIPNS2_6OptionENS_9allocatorIS7_EEEENS_4lessIS4_EENS8_INS_4pairIKS4_SA_EEEEEixERSE_
0000000000023b00 T __ZNSt3__14pairIKPN4llvm2cl14OptionCategoryENS_6vectorIPNS2_6OptionENS_9allocatorIS8_EEEEED1Ev
0000000000023b20 T __ZNSt3__14pairIKPN4llvm2cl14OptionCategoryENS_6vectorIPNS2_6OptionENS_9allocatorIS8_EEEEED2Ev
00000000000228c0 T __ZNSt3__16__treeINS_12__value_typeIPN4llvm2cl14OptionCategoryENS_6vectorIPNS3_6OptionENS_9allocatorIS8_EEEEEENS_19__map_value_compareIS5_SC_NS_4lessIS5_EELb1EEENS9_ISC_EEE12__find_equalIS5_EERPNS_16__tree_node_baseIPvEERPNS_15__tree_end_nodeISN_EERKT_
0000000000022bf0 T __ZNSt3__16__treeINS_12__value_typeIPN4llvm2cl14OptionCategoryENS_6vectorIPNS3_6OptionENS_9allocatorIS8_EEEEEENS_19__map_value_compareIS5_SC_NS_4lessIS5_EELb1EEENS9_ISC_EEE16__construct_nodeIJRKNS_21piecewise_construct_tENS_5tupleIJRKS5_EEENSN_IJEEEEEENS_10unique_ptrINS_11__tree_nodeISC_PvEENS_22__tree_node_destructorINS9_ISV_EEEEEEDpOT_
0000000000023470 T __ZNSt3__16__treeINS_12__value_typeIPN4llvm2cl14OptionCategoryENS_6vectorIPNS3_6OptionENS_9allocatorIS8_EEEEEENS_19__map_value_compareIS5_SC_NS_4lessIS5_EELb1EEENS9_ISC_EEE16__insert_node_atEPNS_15__tree_end_nodeIPNS_16__tree_node_baseIPvEEEERSN_SN_
00000000000224b0 T __ZNSt3__16__treeINS_12__value_typeIPN4llvm2cl14OptionCategoryENS_6vectorIPNS3_6OptionENS_9allocatorIS8_EEEEEENS_19__map_value_compareIS5_SC_NS_4lessIS5_EELb1EEENS9_ISC_EEE25__emplace_unique_key_argsIS5_JRKNS_21piecewise_construct_tENS_5tupleIJRKS5_EEENSN_IJEEEEEENS_4pairINS_15__tree_iteratorISC_PNS_11__tree_nodeISC_PvEElEEbEERKT_DpOT0_
00000000000252c0 T __ZNSt3__16__treeINS_12__value_typeIPN4llvm2cl14OptionCategoryENS_6vectorIPNS3_6OptionENS_9allocatorIS8_EEEEEENS_19__map_value_compareIS5_SC_NS_4lessIS5_EELb1EEENS9_ISC_EEE7destroyEPNS_11__tree_nodeISC_PvEE
0000000000021520 T __ZNSt3__16__treeINS_12__value_typeIPN4llvm2cl14OptionCategoryENS_6vectorIPNS3_6OptionENS_9allocatorIS8_EEEEEENS_19__map_value_compareIS5_SC_NS_4lessIS5_EELb1EEENS9_ISC_EEEC1ERKSG_
0000000000021550 T __ZNSt3__16__treeINS_12__value_typeIPN4llvm2cl14OptionCategoryENS_6vectorIPNS3_6OptionENS_9allocatorIS8_EEEEEENS_19__map_value_compareIS5_SC_NS_4lessIS5_EELb1EEENS9_ISC_EEEC2ERKSG_
0000000000025240 T __ZNSt3__16__treeINS_12__value_typeIPN4llvm2cl14OptionCategoryENS_6vectorIPNS3_6OptionENS_9allocatorIS8_EEEEEENS_19__map_value_compareIS5_SC_NS_4lessIS5_EELb1EEENS9_ISC_EEED1Ev
0000000000025260 T __ZNSt3__16__treeINS_12__value_typeIPN4llvm2cl14OptionCategoryENS_6vectorIPNS3_6OptionENS_9allocatorIS8_EEEEEENS_19__map_value_compareIS5_SC_NS_4lessIS5_EELb1EEENS9_ISC_EEED2Ev
00000000000286a0 T __ZNSt3__16vectorIN4llvm9StringRefENS_9allocatorIS2_EEE21__push_back_slow_pathIRKS2_EEvOT_
0000000000028a10 T __ZNSt3__16vectorIN4llvm9StringRefENS_9allocatorIS2_EEE26__swap_out_circular_bufferERNS_14__split_bufferIS2_RS4_EE
0000000000028480 T __ZNSt3__16vectorIN4llvm9StringRefENS_9allocatorIS2_EEED1Ev
00000000000284e0 T __ZNSt3__16vectorIN4llvm9StringRefENS_9allocatorIS2_EEED2Ev
000000000002dcf0 T __ZNSt3__16vectorINS_8functionIFvRN4llvm11raw_ostreamEEEENS_9allocatorIS6_EEE21__push_back_slow_pathIRKS6_EEvOT_
000000000002e080 T __ZNSt3__16vectorINS_8functionIFvRN4llvm11raw_ostreamEEEENS_9allocatorIS6_EEE26__swap_out_circular_bufferERNS_14__split_bufferIS6_RS8_EE
0000000000021680 T __ZNSt3__16vectorIPN4llvm2cl14OptionCategoryENS_9allocatorIS4_EEE21__push_back_slow_pathIS4_EEvOT_
00000000000219e0 T __ZNSt3__16vectorIPN4llvm2cl14OptionCategoryENS_9allocatorIS4_EEE26__swap_out_circular_bufferERNS_14__split_bufferIS4_RS6_EE
0000000000021500 T __ZNSt3__16vectorIPN4llvm2cl14OptionCategoryENS_9allocatorIS4_EEED1Ev
0000000000025400 T __ZNSt3__16vectorIPN4llvm2cl14OptionCategoryENS_9allocatorIS4_EEED2Ev
0000000000023cb0 T __ZNSt3__16vectorIPN4llvm2cl6OptionENS_9allocatorIS4_EEE10deallocateEv
0000000000023b40 T __ZNSt3__16vectorIPN4llvm2cl6OptionENS_9allocatorIS4_EEE13__move_assignERS7_NS_17integral_constantIbLb1EEE
00000000000243f0 T __ZNSt3__16vectorIPN4llvm2cl6OptionENS_9allocatorIS4_EEE21__push_back_slow_pathIRKS4_EEvOT_
0000000000024750 T __ZNSt3__16vectorIPN4llvm2cl6OptionENS_9allocatorIS4_EEE26__swap_out_circular_bufferERNS_14__split_bufferIS4_RS6_EE
0000000000021490 T __ZNSt3__16vectorIPN4llvm2cl6OptionENS_9allocatorIS4_EEED1Ev
0000000000024050 T __ZNSt3__16vectorIPN4llvm2cl6OptionENS_9allocatorIS4_EEED2Ev
000000000002d9c0 T __ZNSt3__18functionIFvRN4llvm11raw_ostreamEEE4swapERS5_
000000000002d780 T __ZNSt3__18functionIFvRN4llvm11raw_ostreamEEE9__as_baseEPv
000000000002eaa0 T __ZNSt3__18functionIFvRN4llvm11raw_ostreamEEEC1EOS5_
000000000002d6a0 T __ZNSt3__18functionIFvRN4llvm11raw_ostreamEEEC1ERKS5_
000000000002ead0 T __ZNSt3__18functionIFvRN4llvm11raw_ostreamEEEC2EOS5_
000000000002d6d0 T __ZNSt3__18functionIFvRN4llvm11raw_ostreamEEEC2ERKS5_
0000000000012da0 T __ZNSt3__18functionIFvRN4llvm11raw_ostreamEEED1Ev
000000000002c8f0 T __ZNSt3__18functionIFvRN4llvm11raw_ostreamEEED2Ev
0000000000014270 T __ZNSt3__18functionIFvRN4llvm11raw_ostreamEEEaSERKS5_
0000000000031bc0 s __ZNSt3__1L19piecewise_constructE
0000000000031978 s __ZTVN12_GLOBAL__N_111HelpPrinterE
00000000000319a0 s __ZTVN12_GLOBAL__N_122CategorizedHelpPrinterE
                 U __ZTVN4llvm11raw_ostreamE
                 U __ZTVN4llvm18raw_string_ostreamE
0000000000031a30 s __ZTVN4llvm2cl11OptionValueIN12_GLOBAL__N_111HelpPrinterEEE
0000000000031b80 s __ZTVN4llvm2cl11OptionValueIN12_GLOBAL__N_114VersionPrinterEEE
0000000000031ad8 s __ZTVN4llvm2cl11OptionValueIN12_GLOBAL__N_118HelpPrinterWrapperEEE
0000000000031740 S __ZTVN4llvm2cl11OptionValueINS0_13boolOrDefaultEEE
0000000000031760 S __ZTVN4llvm2cl11OptionValueINSt3__112basic_stringIcNS2_11char_traitsIcEENS2_9allocatorIcEEEEEE
000000000002fe28 D __ZTVN4llvm2cl11OptionValueIbEE
000000000002fdc8 D __ZTVN4llvm2cl11OptionValueIcEE
000000000002fd68 D __ZTVN4llvm2cl11OptionValueIiEE
000000000002fd08 D __ZTVN4llvm2cl11OptionValueIjEE
000000000002f9e0 D __ZTVN4llvm2cl12basic_parserINS0_13boolOrDefaultEEE
000000000002faa0 D __ZTVN4llvm2cl12basic_parserINSt3__112basic_stringIcNS2_11char_traitsIcEENS2_9allocatorIcEEEEEE
000000000002f9c0 D __ZTVN4llvm2cl12basic_parserIbEE
000000000002fac0 D __ZTVN4llvm2cl12basic_parserIcEE
000000000002fa60 D __ZTVN4llvm2cl12basic_parserIdEE
000000000002fa80 D __ZTVN4llvm2cl12basic_parserIfEE
000000000002fa00 D __ZTVN4llvm2cl12basic_parserIiEE
000000000002fa20 D __ZTVN4llvm2cl12basic_parserIjEE
000000000002fa40 D __ZTVN4llvm2cl12basic_parserIyEE
0000000000031a50 s __ZTVN4llvm2cl15OptionValueBaseIN12_GLOBAL__N_111HelpPrinterELb1EEE
0000000000031ba0 s __ZTVN4llvm2cl15OptionValueBaseIN12_GLOBAL__N_114VersionPrinterELb1EEE
0000000000031af8 s __ZTVN4llvm2cl15OptionValueBaseIN12_GLOBAL__N_118HelpPrinterWrapperELb1EEE
000000000002fe48 D __ZTVN4llvm2cl15OptionValueBaseIbLb0EEE
000000000002fde8 D __ZTVN4llvm2cl15OptionValueBaseIcLb0EEE
000000000002fd88 D __ZTVN4llvm2cl15OptionValueBaseIiLb0EEE
000000000002fd28 D __ZTVN4llvm2cl15OptionValueBaseIjLb0EEE
000000000002fce8 D __ZTVN4llvm2cl15OptionValueCopyINSt3__112basic_stringIcNS2_11char_traitsIcEENS2_9allocatorIcEEEEEE
000000000002fe68 D __ZTVN4llvm2cl15OptionValueCopyIbEE
000000000002fe08 D __ZTVN4llvm2cl15OptionValueCopyIcEE
000000000002fda8 D __ZTVN4llvm2cl15OptionValueCopyIiEE
000000000002fd48 D __ZTVN4llvm2cl15OptionValueCopyIjEE
00000000000317d0 S __ZTVN4llvm2cl17basic_parser_implE
0000000000031720 S __ZTVN4llvm2cl18GenericOptionValueE
0000000000031780 S __ZTVN4llvm2cl19generic_parser_baseE
00000000000319c8 s __ZTVN4llvm2cl3optIN12_GLOBAL__N_111HelpPrinterELb1ENS0_6parserIbEEEE
0000000000031b18 s __ZTVN4llvm2cl3optIN12_GLOBAL__N_114VersionPrinterELb1ENS0_6parserIbEEEE
0000000000031a70 s __ZTVN4llvm2cl3optIN12_GLOBAL__N_118HelpPrinterWrapperELb1ENS0_6parserIbEEEE
000000000002fbb0 D __ZTVN4llvm2cl3optINSt3__112basic_stringIcNS2_11char_traitsIcEENS2_9allocatorIcEEEELb0ENS0_6parserIS8_EEEE
000000000002fc80 D __ZTVN4llvm2cl3optIbLb0ENS0_6parserIbEEEE
000000000002fc18 D __ZTVN4llvm2cl3optIcLb0ENS0_6parserIcEEEE
000000000002fb48 D __ZTVN4llvm2cl3optIiLb0ENS0_6parserIiEEEE
000000000002fae0 D __ZTVN4llvm2cl3optIjLb0ENS0_6parserIjEEEE
0000000000031910 S __ZTVN4llvm2cl5aliasE
00000000000316b8 S __ZTVN4llvm2cl6OptionE
0000000000031810 S __ZTVN4llvm2cl6parserINS0_13boolOrDefaultEEE
00000000000318d0 S __ZTVN4llvm2cl6parserINSt3__112basic_stringIcNS2_11char_traitsIcEENS2_9allocatorIcEEEEEE
00000000000317f0 S __ZTVN4llvm2cl6parserIbEE
00000000000318f0 S __ZTVN4llvm2cl6parserIcEE
0000000000031890 S __ZTVN4llvm2cl6parserIdEE
00000000000318b0 S __ZTVN4llvm2cl6parserIfEE
0000000000031830 S __ZTVN4llvm2cl6parserIiEE
0000000000031850 S __ZTVN4llvm2cl6parserIjEE
0000000000031870 S __ZTVN4llvm2cl6parserIyEE
0000000000018620 t __ZZN12_GLOBAL__N_117CommandLineParser16registerCategoryEPN4llvm2cl14OptionCategoryEENKUlPKS3_E_clES6_
0000000000019440 t __ZZN12_GLOBAL__N_117CommandLineParser18registerSubCommandEPN4llvm2cl10SubCommandEENKUlPKS3_E_clES6_
0000000000018170 T __ZZNK4llvm2cl6Option18isInAllSubCommandsEvENKUlPKNS0_10SubCommandEE_clES4_
                 U __ZdlPv
                 U __Znwm
                 U ___assert_rtn
                 U ___cxa_atexit
                 U ___cxa_pure_virtual
000000000002edb0 s ___cxx_global_var_init
000000000002eec0 s ___cxx_global_var_init.39
000000000002ef00 s ___cxx_global_var_init.40
000000000002ef40 s ___cxx_global_var_init.41
000000000002ef80 s ___cxx_global_var_init.42
000000000002efc0 s ___cxx_global_var_init.43
000000000002efe0 s ___cxx_global_var_init.44
000000000002f000 s ___cxx_global_var_init.45
000000000002f110 s ___cxx_global_var_init.47
000000000002f240 s ___cxx_global_var_init.50
000000000002f370 s ___cxx_global_var_init.53
000000000002f490 s ___cxx_global_var_init.56
000000000002f5c0 s ___cxx_global_var_init.59
000000000002f6e0 s ___cxx_global_var_init.62
000000000002f800 s ___cxx_global_var_init.65
000000000002f860 s ___cxx_global_var_init.66
                 U ___dso_handle
                 U ___stack_chk_fail
                 U ___stack_chk_guard
                 U _abort
                 U _exit
                 U _free
                 U _malloc
                 U _memchr
                 U _memcmp
                 U _memcpy
                 U _memmove
                 U _memset
                 U _qsort
                 U _strchr
                 U _strcmp
                 U _strlen
                 U _strtod

libLLVMSupport.a(Compression.o):
00000000000003a0 t __ZL11createErrorN4llvm9StringRefE
00000000000003f0 t __ZL23convertZlibCodeToStringi
00000000000002e0 t __ZL26encodeZlibCompressionLevelN4llvm4zlib16CompressionLevelE
0000000000000910 T __ZN4llvm10make_errorINS_11StringErrorEJRNS_9StringRefENSt3__110error_codeEEEENS_5ErrorEDpOT0_
                 U __ZN4llvm11StringErrorC1ERKNS_5TwineENSt3__110error_codeE
0000000000000dc0 T __ZN4llvm11make_uniqueINS_11StringErrorEJRNS_9StringRefENSt3__110error_codeEEEENS4_9enable_ifIXntsr3std8is_arrayIT_EE5valueENS4_10unique_ptrIS7_NS4_14default_deleteIS7_EEEEE4typeEDpOT0_
00000000000012e0 T __ZN4llvm12ErrorSuccessC1Ev
0000000000001300 T __ZN4llvm12ErrorSuccessC2Ev
0000000000000700 T __ZN4llvm12ErrorSuccessD1Ev
0000000000001450 T __ZN4llvm12ErrorSuccessD2Ev
                 U __ZN4llvm15SmallVectorBase8grow_podEPvmm
0000000000000140 T __ZN4llvm15SmallVectorImplIcE6resizeEm
                 U __ZN4llvm22inconvertibleErrorCodeEv
00000000000014c0 T __ZN4llvm23SmallVectorTemplateBaseIcLb1EE13destroy_rangeEPcS2_
0000000000001530 T __ZN4llvm23SmallVectorTemplateBaseIcLb1EE4growEm
                 U __ZN4llvm24DisableABIBreakingChecksE
0000000000000380 T __ZN4llvm25SmallVectorTemplateCommonIcvE4dataEv
00000000000014d0 T __ZN4llvm25SmallVectorTemplateCommonIcvE6setEndEPc
0000000000001590 T __ZN4llvm25SmallVectorTemplateCommonIcvE8grow_podEmm
                 U __ZN4llvm25llvm_unreachable_internalEPKcS1_j
00000000000015d0 D __ZN4llvm30VerifyDisableABIBreakingChecksE
0000000000000720 T __ZN4llvm4zlib10uncompressENS_9StringRefEPcRm
0000000000000800 T __ZN4llvm4zlib10uncompressENS_9StringRefERNS_15SmallVectorImplIcEEm
0000000000000000 T __ZN4llvm4zlib11isAvailableEv
00000000000008c0 T __ZN4llvm4zlib5crc32ENS_9StringRefE
0000000000000010 T __ZN4llvm4zlib8compressENS_9StringRefERNS_15SmallVectorImplIcEENS0_16CompressionLevelE
00000000000012a0 T __ZN4llvm5Error10setCheckedEb
0000000000001420 T __ZN4llvm5Error15assertIsCheckedEv
0000000000001280 T __ZN4llvm5Error6setPtrEPNS_13ErrorInfoBaseE
0000000000000690 T __ZN4llvm5Error7successEv
0000000000000ef0 T __ZN4llvm5ErrorC1ENSt3__110unique_ptrINS_13ErrorInfoBaseENS1_14default_deleteIS3_EEEE
00000000000006d0 T __ZN4llvm5ErrorC1EOS0_
0000000000001210 T __ZN4llvm5ErrorC2ENSt3__110unique_ptrINS_13ErrorInfoBaseENS1_14default_deleteIS3_EEEE
0000000000001360 T __ZN4llvm5ErrorC2EOS0_
0000000000001320 T __ZN4llvm5ErrorC2Ev
00000000000008a0 T __ZN4llvm5ErrorD1Ev
0000000000001470 T __ZN4llvm5ErrorD2Ev
00000000000013b0 T __ZN4llvm5ErroraSEOS0_
0000000000000f10 T __ZN4llvm5TwineC1ERKNS_9StringRefE
0000000000000f40 T __ZN4llvm5TwineC2ERKNS_9StringRefE
0000000000001570 T __ZNK4llvm25SmallVectorTemplateCommonIcvE12capacity_ptrEv
00000000000014f0 T __ZNK4llvm25SmallVectorTemplateCommonIcvE8capacityEv
0000000000001430 T __ZNK4llvm5Error6getPtrEv
0000000000001140 T __ZNK4llvm5Twine10getLHSKindEv
0000000000001120 T __ZNK4llvm5Twine10getRHSKindEv
00000000000011b0 T __ZNK4llvm5Twine6isNullEv
00000000000011e0 T __ZNK4llvm5Twine7isEmptyEv
0000000000000fd0 T __ZNK4llvm5Twine7isValidEv
0000000000001160 T __ZNK4llvm5Twine8isBinaryEv
00000000000010e0 T __ZNK4llvm5Twine9isNullaryEv
                 U __Znwm
                 U ___assert_rtn
                 U _compress2
                 U _compressBound
                 U _crc32
                 U _memset
                 U _strlen
                 U _uncompress

libLLVMSupport.a(ConvertUTF.o):
0000000000000cd0 T __ZN4llvm17isLegalUTF8StringEPPKhS1_
0000000000000390 T __ZN4llvm18ConvertUTF16toUTF8EPPKtS1_PPhS3_NS_15ConversionFlagsE
00000000000006f0 T __ZN4llvm18ConvertUTF32toUTF8EPPKjS1_PPhS3_NS_15ConversionFlagsE
0000000000000d70 T __ZN4llvm18ConvertUTF8toUTF16EPPKhS1_PPtS3_NS_15ConversionFlagsE
00000000000014d0 T __ZN4llvm18ConvertUTF8toUTF32EPPKhS1_PPjS3_NS_15ConversionFlagsE
0000000000000ca0 T __ZN4llvm18getNumBytesForUTF8Eh
00000000000001d0 T __ZN4llvm19ConvertUTF16toUTF32EPPKtS1_PPjS3_NS_15ConversionFlagsE
0000000000000000 T __ZN4llvm19ConvertUTF32toUTF16EPPKjS1_PPtS3_NS_15ConversionFlagsE
0000000000000990 T __ZN4llvm19isLegalUTF8SequenceEPKhS1_
0000000000001120 T __ZN4llvm25ConvertUTF8toUTF32PartialEPPKhS1_PPjS3_NS_15ConversionFlagsE
0000000000000a00 t __ZN4llvmL11isLegalUTF8EPKhi
00000000000019b0 s __ZN4llvmL13firstByteMarkE
0000000000001ac0 s __ZN4llvmL15offsetsFromUTF8E
00000000000019c0 s __ZN4llvmL20trailingBytesForUTF8E
0000000000001170 t __ZN4llvmL22ConvertUTF8toUTF32ImplEPPKhS1_PPjS3_NS_15ConversionFlagsEh
0000000000001510 t __ZN4llvmL41findMaximalSubpartOfIllFormedUTF8SequenceEPKhS1_
                 U ___assert_rtn

libLLVMSupport.a(ConvertUTFWrapper.o):
                 U __ZN4llvm15SmallVectorBase8grow_podEPvmm
00000000000021c0 T __ZN4llvm15SmallVectorImplItE5clearEv
0000000000001ff0 T __ZN4llvm15SmallVectorImplItE6resizeEm
0000000000002210 T __ZN4llvm17ConvertUTF8toWideENS_9StringRefERNSt3__112basic_stringIwNS1_11char_traitsIwEENS1_9allocatorIwEEEE
0000000000002710 T __ZN4llvm17ConvertUTF8toWideEPKcRNSt3__112basic_stringIwNS2_11char_traitsIwEENS2_9allocatorIwEEEE
0000000000000000 T __ZN4llvm17ConvertUTF8toWideEjNS_9StringRefERPcRPKh
0000000000002960 T __ZN4llvm17convertWideToUTF8ERKNSt3__112basic_stringIwNS0_11char_traitsIwEENS0_9allocatorIwEEEERNS1_IcNS2_IcEENS4_IcEEEE
                 U __ZN4llvm17isLegalUTF8StringEPPKhS1_
                 U __ZN4llvm18ConvertUTF16toUTF8EPPKtS1_PPhS3_NS_15ConversionFlagsE
                 U __ZN4llvm18ConvertUTF32toUTF8EPPKjS1_PPhS3_NS_15ConversionFlagsE
                 U __ZN4llvm18ConvertUTF8toUTF16EPPKhS1_PPtS3_NS_15ConversionFlagsE
                 U __ZN4llvm18ConvertUTF8toUTF32EPPKhS1_PPjS3_NS_15ConversionFlagsE
0000000000000400 T __ZN4llvm21hasUTF16ByteOrderMarkENS_8ArrayRefIcEE
0000000000000370 T __ZN4llvm22ConvertCodePointToUTF8EjRPc
0000000000004810 T __ZN4llvm23SmallVectorTemplateBaseItLb1EE13destroy_rangeEPtS2_
0000000000004770 T __ZN4llvm23SmallVectorTemplateBaseItLb1EE4growEm
0000000000001fb0 T __ZN4llvm23SmallVectorTemplateBaseItLb1EE8pop_backEv
0000000000001f30 T __ZN4llvm23SmallVectorTemplateBaseItLb1EE9push_backERKt
0000000000000570 T __ZN4llvm24convertUTF16ToUTF8StringENS_8ArrayRefIcEERNSt3__112basic_stringIcNS2_11char_traitsIcEENS2_9allocatorIcEEEE
0000000000001a90 T __ZN4llvm24convertUTF16ToUTF8StringENS_8ArrayRefItEERNSt3__112basic_stringIcNS2_11char_traitsIcEENS2_9allocatorIcEEEE
0000000000001b60 T __ZN4llvm24convertUTF8ToUTF16StringENS_9StringRefERNS_15SmallVectorImplItEE
00000000000047b0 T __ZN4llvm25SmallVectorTemplateCommonItvE6setEndEPt
00000000000047d0 T __ZN4llvm25SmallVectorTemplateCommonItvE8grow_podEmm
0000000000001a30 T __ZN4llvm3sys16SwapByteOrder_16Et
0000000000001b30 T __ZN4llvm8ArrayRefIcEC1EPKcm
0000000000004740 T __ZN4llvm8ArrayRefIcEC2EPKcm
0000000000002250 t __ZN4llvmL25ConvertUTF8toWideInternalINSt3__112basic_stringIwNS1_11char_traitsIwEENS1_9allocatorIwEEEEEEbNS_9StringRefERT_
0000000000001f10 T __ZNK4llvm15SmallVectorBase5emptyEv
0000000000004860 T __ZNK4llvm25SmallVectorTemplateCommonItvE12capacity_ptrEv
0000000000004820 T __ZNK4llvm25SmallVectorTemplateCommonItvE8capacityEv
0000000000001300 T __ZNK4llvm8ArrayRefIcE3endEv
00000000000004c0 T __ZNK4llvm8ArrayRefIcE4sizeEv
00000000000012e0 T __ZNK4llvm8ArrayRefIcE5beginEv
00000000000012c0 T __ZNK4llvm8ArrayRefIcE5emptyEv
00000000000004e0 T __ZNK4llvm8ArrayRefIcEixEm
0000000000001af0 T __ZNK4llvm8ArrayRefItE4dataEv
0000000000001b10 T __ZNK4llvm8ArrayRefItE4sizeEv
0000000000000350 T __ZNK4llvm9StringRef3endEv
0000000000000330 T __ZNK4llvm9StringRef5beginEv
                 U __ZNKSt3__120__vector_base_commonILb1EE20__throw_length_errorEv
0000000000004240 T __ZNKSt3__16vectorItNS_9allocatorItEEE8max_sizeEv
0000000000004720 T __ZNSt3__111char_traitsIcE6assignERcRKc
0000000000004880 T __ZNSt3__111char_traitsIwE6assignERwRKw
                 U __ZNSt3__112basic_stringIcNS_11char_traitsIcEENS_9allocatorIcEEE6resizeEmc
                 U __ZNSt3__112basic_stringIcNS_11char_traitsIcEENS_9allocatorIcEEE9push_backEc
                 U __ZNSt3__112basic_stringIwNS_11char_traitsIwEENS_9allocatorIwEEE6resizeEmw
0000000000003400 T __ZNSt3__113__vector_baseItNS_9allocatorItEEED2Ev
0000000000003a30 T __ZNSt3__114__split_bufferItRNS_9allocatorItEEE18__construct_at_endIPKtEENS_9enable_ifIXsr21__is_forward_iteratorIT_EE5valueEvE4typeES9_S9_
00000000000039f0 T __ZNSt3__114__split_bufferItRNS_9allocatorItEEEC1EmmS3_
0000000000004330 T __ZNSt3__114__split_bufferItRNS_9allocatorItEEEC2EmmS3_
0000000000004220 T __ZNSt3__114__split_bufferItRNS_9allocatorItEEED1Ev
0000000000004550 T __ZNSt3__114__split_bufferItRNS_9allocatorItEEED2Ev
0000000000003760 T __ZNSt3__16vectorItNS_9allocatorItEEE12__move_rangeEPtS4_S4_
00000000000035a0 T __ZNSt3__16vectorItNS_9allocatorItEEE18__construct_at_endIPKtEENS_9enable_ifIXsr21__is_forward_iteratorIT_EE5valueEvE4typeES8_S8_m
0000000000003b50 T __ZNSt3__16vectorItNS_9allocatorItEEE26__swap_out_circular_bufferERNS_14__split_bufferItRS2_EEPt
0000000000001320 T __ZNSt3__16vectorItNS_9allocatorItEEE6insertIPKtEENS_9enable_ifIXaasr21__is_forward_iteratorIT_EE5valuesr16is_constructibleItNS_15iterator_traitsIS8_E9referenceEEE5valueENS_11__wrap_iterIPtEEE4typeENSC_IS6_EES8_S8_
0000000000001a70 T __ZNSt3__16vectorItNS_9allocatorItEEED1Ev
00000000000033e0 T __ZNSt3__16vectorItNS_9allocatorItEEED2Ev
                 U __ZdlPv
                 U __Znwm
                 U ___assert_rtn
                 U _abort
                 U _memcpy
                 U _memmove
                 U _strlen

libLLVMSupport.a(CrashRecoveryContext.o):
000000000000e0e0 b __ZL11PrevActions
000000000000e0a8 b __ZL21gCrashRecoveryEnabled
000000000000e090 b __ZL23tlIsRecoveringFromCrash
0000000000000bd0 t __ZL26CrashRecoverySignalHandleri
0000000000000ad0 t __ZL26RunSafelyOnThread_DispatchPv
000000000000e0c8 b __ZL26gCrashRecoveryContextMutex
0000000000000ab0 t __ZL27hasThreadBackgroundPriorityv
0000000000000d00 t __ZL27setThreadBackgroundPriorityv
00000000000004f0 t __ZL32installExceptionOrSignalHandlersv
0000000000000600 t __ZL34uninstallExceptionOrSignalHandlersv
0000000000001600 s __ZL7Signals
0000000000000950 t __ZN12_GLOBAL__N_124CrashRecoveryContextImpl11HandleCrashEv
0000000000000b30 t __ZN12_GLOBAL__N_124CrashRecoveryContextImpl17setSwitchedThreadEv
0000000000000880 t __ZN12_GLOBAL__N_124CrashRecoveryContextImplC1EPN4llvm20CrashRecoveryContextE
0000000000000c80 t __ZN12_GLOBAL__N_124CrashRecoveryContextImplC2EPN4llvm20CrashRecoveryContextE
00000000000001d0 t __ZN12_GLOBAL__N_124CrashRecoveryContextImplD1Ev
0000000000000b50 t __ZN12_GLOBAL__N_124CrashRecoveryContextImplD2Ev
000000000000e0b0 b __ZN12_GLOBAL__N_1L14CurrentContextE
0000000000000360 T __ZN4llvm13ManagedStaticINS_3sys10SmartMutexILb0EEENS_14object_creatorIS3_EENS_14object_deleterIS3_EEEdeEv
0000000000000d30 t __ZN4llvm13ManagedStaticINS_3sys11ThreadLocalIKN12_GLOBAL__N_124CrashRecoveryContextImplEEENS_14object_creatorIS6_EENS_14object_deleterIS6_EEEdeEv
00000000000002b0 t __ZN4llvm13ManagedStaticINS_3sys11ThreadLocalIKN12_GLOBAL__N_124CrashRecoveryContextImplEEENS_14object_creatorIS6_EENS_14object_deleterIS6_EEEptEv
0000000000000fd0 T __ZN4llvm13ManagedStaticINS_3sys11ThreadLocalIKNS_20CrashRecoveryContextEEENS_14object_creatorIS5_EENS_14object_deleterIS5_EEEdeEv
0000000000000160 T __ZN4llvm13ManagedStaticINS_3sys11ThreadLocalIKNS_20CrashRecoveryContextEEENS_14object_creatorIS5_EENS_14object_deleterIS5_EEEptEv
0000000000001270 T __ZN4llvm14object_creatorINS_3sys10SmartMutexILb0EEEE4callEv
0000000000000e90 t __ZN4llvm14object_creatorINS_3sys11ThreadLocalIKN12_GLOBAL__N_124CrashRecoveryContextImplEEEE4callEv
0000000000001130 T __ZN4llvm14object_creatorINS_3sys11ThreadLocalIKNS_20CrashRecoveryContextEEEE4callEv
00000000000012a0 T __ZN4llvm14object_deleterINS_3sys10SmartMutexILb0EEEE4callEPv
0000000000000ec0 t __ZN4llvm14object_deleterINS_3sys11ThreadLocalIKN12_GLOBAL__N_124CrashRecoveryContextImplEEEE4callEPv
0000000000001160 T __ZN4llvm14object_deleterINS_3sys11ThreadLocalIKNS_20CrashRecoveryContextEEEE4callEPv
0000000000000240 T __ZN4llvm20CrashRecoveryContext10GetCurrentEv
00000000000008d0 T __ZN4llvm20CrashRecoveryContext11HandleCrashEv
0000000000000660 T __ZN4llvm20CrashRecoveryContext15registerCleanupEPNS_27CrashRecoveryContextCleanupE
0000000000000a10 T __ZN4llvm20CrashRecoveryContext17RunSafelyOnThreadENS_12function_refIFvvEEEj
00000000000006c0 T __ZN4llvm20CrashRecoveryContext17unregisterCleanupEPNS_27CrashRecoveryContextCleanupE
0000000000000210 T __ZN4llvm20CrashRecoveryContext21isRecoveringFromCrashEv
00000000000002f0 T __ZN4llvm20CrashRecoveryContext6EnableEv
0000000000000590 T __ZN4llvm20CrashRecoveryContext7DisableEv
0000000000000790 T __ZN4llvm20CrashRecoveryContext9RunSafelyENS_12function_refIFvvEEE
00000000000001f0 T __ZN4llvm20CrashRecoveryContextD1Ev
0000000000000060 T __ZN4llvm20CrashRecoveryContextD2Ev
                 U __ZN4llvm22llvm_execute_on_threadEPFvPvES0_j
0000000000000030 T __ZN4llvm27CrashRecoveryContextCleanupD0Ev
0000000000000010 T __ZN4llvm27CrashRecoveryContextCleanupD1Ev
0000000000000000 T __ZN4llvm27CrashRecoveryContextCleanupD2Ev
00000000000013d0 T __ZN4llvm3sys10SmartMutexILb0EE4lockEv
0000000000001420 T __ZN4llvm3sys10SmartMutexILb0EE6unlockEv
00000000000012e0 T __ZN4llvm3sys10SmartMutexILb0EEC1Eb
0000000000001310 T __ZN4llvm3sys10SmartMutexILb0EEC2Eb
0000000000001360 T __ZN4llvm3sys10SmartMutexILb0EED1Ev
0000000000001380 T __ZN4llvm3sys10SmartMutexILb0EED2Ev
00000000000002d0 t __ZN4llvm3sys11ThreadLocalIKN12_GLOBAL__N_124CrashRecoveryContextImplEE3getEv
0000000000000ba0 t __ZN4llvm3sys11ThreadLocalIKN12_GLOBAL__N_124CrashRecoveryContextImplEE3setEPS4_
0000000000000f00 t __ZN4llvm3sys11ThreadLocalIKN12_GLOBAL__N_124CrashRecoveryContextImplEEC1Ev
0000000000000f20 t __ZN4llvm3sys11ThreadLocalIKN12_GLOBAL__N_124CrashRecoveryContextImplEEC2Ev
0000000000000f80 t __ZN4llvm3sys11ThreadLocalIKN12_GLOBAL__N_124CrashRecoveryContextImplEED0Ev
0000000000000f60 t __ZN4llvm3sys11ThreadLocalIKN12_GLOBAL__N_124CrashRecoveryContextImplEED1Ev
0000000000000fb0 t __ZN4llvm3sys11ThreadLocalIKN12_GLOBAL__N_124CrashRecoveryContextImplEED2Ev
0000000000000180 T __ZN4llvm3sys11ThreadLocalIKNS_20CrashRecoveryContextEE3getEv
00000000000001a0 T __ZN4llvm3sys11ThreadLocalIKNS_20CrashRecoveryContextEE3setEPS3_
00000000000011a0 T __ZN4llvm3sys11ThreadLocalIKNS_20CrashRecoveryContextEEC1Ev
00000000000011c0 T __ZN4llvm3sys11ThreadLocalIKNS_20CrashRecoveryContextEEC2Ev
0000000000001220 T __ZN4llvm3sys11ThreadLocalIKNS_20CrashRecoveryContextEED0Ev
0000000000001200 T __ZN4llvm3sys11ThreadLocalIKNS_20CrashRecoveryContextEED1Ev
0000000000001250 T __ZN4llvm3sys11ThreadLocalIKNS_20CrashRecoveryContextEED2Ev
00000000000004c0 T __ZN4llvm3sys15SmartScopedLockILb0EEC1ERNS0_10SmartMutexILb0EEE
00000000000013a0 T __ZN4llvm3sys15SmartScopedLockILb0EEC2ERNS0_10SmartMutexILb0EEE
0000000000000570 T __ZN4llvm3sys15SmartScopedLockILb0EED1Ev
00000000000013f0 T __ZN4llvm3sys15SmartScopedLockILb0EED2Ev
                 U __ZN4llvm3sys15ThreadLocalImpl11getInstanceEv
                 U __ZN4llvm3sys15ThreadLocalImpl11setInstanceEPKv
                 U __ZN4llvm3sys15ThreadLocalImplC2Ev
                 U __ZN4llvm3sys15ThreadLocalImplD2Ev
                 U __ZN4llvm3sys9MutexImpl7acquireEv
                 U __ZN4llvm3sys9MutexImpl7releaseEv
                 U __ZN4llvm3sys9MutexImplC1Eb
                 U __ZN4llvm3sys9MutexImplD1Ev
00000000000008b0 T __ZNK4llvm12function_refIFvvEEclEv
                 U __ZNK4llvm17ManagedStaticBase21RegisterManagedStaticEPFPvvEPFvS1_E
00000000000015b0 S __ZTVN4llvm27CrashRecoveryContextCleanupE
00000000000015d8 s __ZTVN4llvm3sys11ThreadLocalIKN12_GLOBAL__N_124CrashRecoveryContextImplEEE
0000000000001618 D __ZTVN4llvm3sys11ThreadLocalIKNS_20CrashRecoveryContextEEE
                 U __ZdlPv
                 U __Znwm
                 U ___assert_rtn
                 U ___cxa_pure_virtual
                 U _getpriority
                 U _longjmp
                 U _raise
                 U _setjmp
                 U _setpriority
                 U _sigaction
                 U _sigprocmask

libLLVMSupport.a(DAGDeltaAlgorithm.o):
000000000000f4e0 t __ZN12_GLOBAL__N_120DeltaActiveSetHelper14ExecuteOneTestERKNSt3__13setIjNS1_4lessIjEENS1_9allocatorIjEEEE
000000000000f4a0 t __ZN12_GLOBAL__N_120DeltaActiveSetHelper18UpdatedSearchStateERKNSt3__13setIjNS1_4lessIjEENS1_9allocatorIjEEEERKNS1_6vectorIS7_NS5_IS7_EEEE
000000000000f3b0 t __ZN12_GLOBAL__N_120DeltaActiveSetHelperC1ERNS_21DAGDeltaAlgorithmImplERKNSt3__13setIjNS3_4lessIjEENS3_9allocatorIjEEEE
000000000000f400 t __ZN12_GLOBAL__N_120DeltaActiveSetHelperC2ERNS_21DAGDeltaAlgorithmImplERKNSt3__13setIjNS3_4lessIjEENS3_9allocatorIjEEEE
000000000000f520 t __ZN12_GLOBAL__N_120DeltaActiveSetHelperD0Ev
000000000000f3e0 t __ZN12_GLOBAL__N_120DeltaActiveSetHelperD1Ev
0000000000013860 t __ZN12_GLOBAL__N_120DeltaActiveSetHelperD2Ev
0000000000006810 t __ZN12_GLOBAL__N_121DAGDeltaAlgorithmImpl10pred_beginEj
0000000000006490 t __ZN12_GLOBAL__N_121DAGDeltaAlgorithmImpl10succ_beginEj
000000000000f5b0 t __ZN12_GLOBAL__N_121DAGDeltaAlgorithmImpl13GetTestResultERKNSt3__13setIjNS1_4lessIjEENS1_9allocatorIjEEEES9_
0000000000010780 t __ZN12_GLOBAL__N_121DAGDeltaAlgorithmImpl14ExecuteOneTestERKNSt3__13setIjNS1_4lessIjEENS1_9allocatorIjEEEE
0000000000006fa0 t __ZN12_GLOBAL__N_121DAGDeltaAlgorithmImpl16pred_closure_endEj
0000000000006bb0 t __ZN12_GLOBAL__N_121DAGDeltaAlgorithmImpl16succ_closure_endEj
000000000000f550 t __ZN12_GLOBAL__N_121DAGDeltaAlgorithmImpl18UpdatedSearchStateERKNSt3__13setIjNS1_4lessIjEENS1_9allocatorIjEEEERKNS1_6vectorIS7_NS5_IS7_EEEES9_
0000000000006e40 t __ZN12_GLOBAL__N_121DAGDeltaAlgorithmImpl18pred_closure_beginEj
0000000000006a50 t __ZN12_GLOBAL__N_121DAGDeltaAlgorithmImpl18succ_closure_beginEj
00000000000000d0 t __ZN12_GLOBAL__N_121DAGDeltaAlgorithmImpl3RunEv
0000000000006910 t __ZN12_GLOBAL__N_121DAGDeltaAlgorithmImpl8pred_endEj
0000000000006590 t __ZN12_GLOBAL__N_121DAGDeltaAlgorithmImpl8succ_endEj
0000000000000090 t __ZN12_GLOBAL__N_121DAGDeltaAlgorithmImplC1ERN4llvm17DAGDeltaAlgorithmERKNSt3__13setIjNS4_4lessIjEENS4_9allocatorIjEEEERKNS4_6vectorINS4_4pairIjjEENS8_ISF_EEEE
00000000000012d0 t __ZN12_GLOBAL__N_121DAGDeltaAlgorithmImplC2ERN4llvm17DAGDeltaAlgorithmERKNSt3__13setIjNS4_4lessIjEENS4_9allocatorIjEEEERKNS4_6vectorINS4_4pairIjjEENS8_ISF_EEEE
0000000000001240 t __ZN12_GLOBAL__N_121DAGDeltaAlgorithmImplD1Ev
0000000000013880 t __ZN12_GLOBAL__N_121DAGDeltaAlgorithmImplD2Ev
                 U __ZN4llvm11raw_ostream5writeEPKcm
000000000000f100 T __ZN4llvm11raw_ostreamlsENS_9StringRefE
0000000000006d40 T __ZN4llvm11raw_ostreamlsEPKc
                 U __ZN4llvm11raw_ostreamlsERKNS_18format_object_baseE
0000000000006de0 T __ZN4llvm11raw_ostreamlsEj
                 U __ZN4llvm11raw_ostreamlsEm
000000000000f1c0 T __ZN4llvm13format_objectIJjEEC1EPKcRKj
000000000000f1f0 T __ZN4llvm13format_objectIJjEEC2EPKcRKj
                 U __ZN4llvm14DeltaAlgorithm3RunERKNSt3__13setIjNS1_4lessIjEENS1_9allocatorIjEEEE
000000000000f450 T __ZN4llvm14DeltaAlgorithmC2Ev
                 U __ZN4llvm14DeltaAlgorithmD2Ev
00000000000012b0 T __ZN4llvm17DAGDeltaAlgorithm18UpdatedSearchStateERKNSt3__13setIjNS1_4lessIjEENS1_9allocatorIjEEEERKNS1_6vectorIS7_NS5_IS7_EEEES9_
0000000000000010 T __ZN4llvm17DAGDeltaAlgorithm3RunERKNSt3__13setIjNS1_4lessIjEENS1_9allocatorIjEEEERKNS1_6vectorINS1_4pairIjjEENS5_ISC_EEEE
0000000000000000 T __ZN4llvm17DAGDeltaAlgorithm6anchorEv
0000000000001280 T __ZN4llvm17DAGDeltaAlgorithmD0Ev
0000000000001260 T __ZN4llvm17DAGDeltaAlgorithmD1Ev
0000000000013f00 T __ZN4llvm17DAGDeltaAlgorithmD2Ev
                 U __ZN4llvm18format_object_base4homeEv
000000000000f2d0 T __ZN4llvm18format_object_baseC2EPKc
                 U __ZN4llvm18isCurrentDebugTypeEPKc
000000000000f300 T __ZN4llvm26validate_format_parametersIJjEEC1Ev
000000000000f350 T __ZN4llvm26validate_format_parametersIJjEEC2Ev
                 U __ZN4llvm4errsEv
0000000000006e10 T __ZN4llvm6formatIJjEEENS_13format_objectIJDpT_EEEPKcDpRKS2_
                 U __ZN4llvm9DebugFlagE
000000000000f360 T __ZNK4llvm13format_objectIJjEE13snprint_tupleIJLm0EEEEiPcjNS_14index_sequenceIJXspT_EEEE
000000000000f320 T __ZNK4llvm13format_objectIJjEE7snprintEPcj
                 U __ZNKSt3__120__vector_base_commonILb1EE20__throw_length_errorEv
000000000000c140 T __ZNKSt3__16__treeINS_12__value_typeIjNS_3setIjNS_4lessIjEENS_9allocatorIjEEEEEENS_19__map_value_compareIjS8_S4_Lb1EEENS5_IS8_EEE10__root_ptrEv
000000000000ef20 T __ZNKSt3__16__treeINS_12__value_typeIjNS_3setIjNS_4lessIjEENS_9allocatorIjEEEEEENS_19__map_value_compareIjS8_S4_Lb1EEENS5_IS8_EEE14__count_uniqueIjEEmRKT_
0000000000008610 T __ZNKSt3__16__treeINS_12__value_typeIjNS_6vectorIjNS_9allocatorIjEEEEEENS_19__map_value_compareIjS6_NS_4lessIjEELb1EEENS3_IS6_EEE10__root_ptrEv
000000000000a880 T __ZNKSt3__16__treeINS_12__value_typeIjNS_6vectorIjNS_9allocatorIjEEEEEENS_19__map_value_compareIjS6_NS_4lessIjEELb1EEENS3_IS6_EEE14__count_uniqueIjEEmRKT_
00000000000136f0 T __ZNKSt3__16__treeINS_3setIjNS_4lessIjEENS_9allocatorIjEEEENS2_IS6_EENS4_IS6_EEE10__root_ptrEv
0000000000010e40 T __ZNKSt3__16__treeINS_3setIjNS_4lessIjEENS_9allocatorIjEEEENS2_IS6_EENS4_IS6_EEE14__count_uniqueIS6_EEmRKT_
000000000000cf80 T __ZNKSt3__16__treeIjNS_4lessIjEENS_9allocatorIjEEE10__root_ptrEv
0000000000011b40 T __ZNKSt3__16__treeIjNS_4lessIjEENS_9allocatorIjEEE14__count_uniqueIjEEmRKT_
000000000000a3a0 T __ZNKSt3__16vectorIjNS_9allocatorIjEEE8max_sizeEv
0000000000008c20 T __ZNSt3__113__vector_baseIjNS_9allocatorIjEEED2Ev
0000000000009d70 T __ZNSt3__114__split_bufferIjRNS_9allocatorIjEEEC1EmmS3_
000000000000a490 T __ZNSt3__114__split_bufferIjRNS_9allocatorIjEEEC2EmmS3_
000000000000a380 T __ZNSt3__114__split_bufferIjRNS_9allocatorIjEEED1Ev
000000000000a6b0 T __ZNSt3__114__split_bufferIjRNS_9allocatorIjEEED2Ev
00000000000089e0 T __ZNSt3__118__tree_left_rotateIPNS_16__tree_node_baseIPvEEEEvT_
0000000000008ac0 T __ZNSt3__119__tree_right_rotateIPNS_16__tree_node_baseIPvEEEEvT_
0000000000011770 T __ZNSt3__125__lexicographical_compareIRNS_6__lessIjjEENS_21__tree_const_iteratorIjPNS_11__tree_nodeIjPvEElEES9_EEbT0_SA_T1_SB_T_
0000000000008660 T __ZNSt3__127__tree_balance_after_insertIPNS_16__tree_node_baseIPvEEEEvT_S5_
0000000000013900 T __ZNSt3__13mapIjNS_3setIjNS_4lessIjEENS_9allocatorIjEEEES3_NS4_INS_4pairIKjS6_EEEEED1Ev
0000000000013960 T __ZNSt3__13mapIjNS_3setIjNS_4lessIjEENS_9allocatorIjEEEES3_NS4_INS_4pairIKjS6_EEEEED2Ev
00000000000066c0 T __ZNSt3__13mapIjNS_3setIjNS_4lessIjEENS_9allocatorIjEEEES3_NS4_INS_4pairIKjS6_EEEEEixERS8_
0000000000013920 T __ZNSt3__13mapIjNS_6vectorIjNS_9allocatorIjEEEENS_4lessIjEENS2_INS_4pairIKjS4_EEEEED1Ev
0000000000013b40 T __ZNSt3__13mapIjNS_6vectorIjNS_9allocatorIjEEEENS_4lessIjEENS2_INS_4pairIKjS4_EEEEED2Ev
0000000000006340 T __ZNSt3__13mapIjNS_6vectorIjNS_9allocatorIjEEEENS_4lessIjEENS2_INS_4pairIKjS4_EEEEEixERS8_
0000000000013940 T __ZNSt3__13setINS0_IjNS_4lessIjEENS_9allocatorIjEEEENS1_IS5_EENS3_IS5_EEED1Ev
0000000000013d20 T __ZNSt3__13setINS0_IjNS_4lessIjEENS_9allocatorIjEEEENS1_IS5_EENS3_IS5_EEED2Ev
0000000000006a30 T __ZNSt3__13setIjNS_4lessIjEENS_9allocatorIjEEED1Ev
000000000000ed50 T __ZNSt3__13setIjNS_4lessIjEENS_9allocatorIjEEED2Ev
000000000000c190 T __ZNSt3__14pairIKjNS_3setIjNS_4lessIjEENS_9allocatorIjEEEEED1Ev
000000000000c1b0 T __ZNSt3__14pairIKjNS_3setIjNS_4lessIjEENS_9allocatorIjEEEEED2Ev
0000000000008ba0 T __ZNSt3__14pairIKjNS_6vectorIjNS_9allocatorIjEEEEED1Ev
0000000000008bc0 T __ZNSt3__14pairIKjNS_6vectorIjNS_9allocatorIjEEEEED2Ev
0000000000006a10 T __ZNSt3__14pairIjNS_3setIjNS_4lessIjEENS_9allocatorIjEEEEED1Ev
000000000000ed30 T __ZNSt3__14pairIjNS_3setIjNS_4lessIjEENS_9allocatorIjEEEEED2Ev
0000000000006300 T __ZNSt3__14pairIjNS_6vectorIjNS_9allocatorIjEEEEED1Ev
0000000000008be0 T __ZNSt3__14pairIjNS_6vectorIjNS_9allocatorIjEEEEED2Ev
000000000000b530 T __ZNSt3__16__treeINS_12__value_typeIjNS_3setIjNS_4lessIjEENS_9allocatorIjEEEEEENS_19__map_value_compareIjS8_S4_Lb1EEENS5_IS8_EEE12__find_equalIjEERPNS_16__tree_node_baseIPvEERPNS_15__tree_end_nodeISH_EERKT_
000000000000e270 T __ZNSt3__16__treeINS_12__value_typeIjNS_3setIjNS_4lessIjEENS_9allocatorIjEEEEEENS_19__map_value_compareIjS8_S4_Lb1EEENS5_IS8_EEE16__construct_nodeIJNS_4pairIjS7_EEEEENS_10unique_ptrINS_11__tree_nodeIS8_PvEENS_22__tree_node_destructorINS5_ISJ_EEEEEEDpOT_
000000000000b860 T __ZNSt3__16__treeINS_12__value_typeIjNS_3setIjNS_4lessIjEENS_9allocatorIjEEEEEENS_19__map_value_compareIjS8_S4_Lb1EEENS5_IS8_EEE16__construct_nodeIJRKNS_21piecewise_construct_tENS_5tupleIJRKjEEENSH_IJEEEEEENS_10unique_ptrINS_11__tree_nodeIS8_PvEENS_22__tree_node_destructorINS5_ISP_EEEEEEDpOT_
000000000000c040 T __ZNSt3__16__treeINS_12__value_typeIjNS_3setIjNS_4lessIjEENS_9allocatorIjEEEEEENS_19__map_value_compareIjS8_S4_Lb1EEENS5_IS8_EEE16__insert_node_atEPNS_15__tree_end_nodeIPNS_16__tree_node_baseIPvEEEERSH_SH_
000000000000de90 T __ZNSt3__16__treeINS_12__value_typeIjNS_3setIjNS_4lessIjEENS_9allocatorIjEEEEEENS_19__map_value_compareIjS8_S4_Lb1EEENS5_IS8_EEE25__emplace_unique_key_argsIjJNS_4pairIjS7_EEEEENSE_INS_15__tree_iteratorIS8_PNS_11__tree_nodeIS8_PvEElEEbEERKT_DpOT0_
000000000000b120 T __ZNSt3__16__treeINS_12__value_typeIjNS_3setIjNS_4lessIjEENS_9allocatorIjEEEEEENS_19__map_value_compareIjS8_S4_Lb1EEENS5_IS8_EEE25__emplace_unique_key_argsIjJRKNS_21piecewise_construct_tENS_5tupleIJRKjEEENSH_IJEEEEEENS_4pairINS_15__tree_iteratorIS8_PNS_11__tree_nodeIS8_PvEElEEbEERKT_DpOT0_
0000000000013a00 T __ZNSt3__16__treeINS_12__value_typeIjNS_3setIjNS_4lessIjEENS_9allocatorIjEEEEEENS_19__map_value_compareIjS8_S4_Lb1EEENS5_IS8_EEE7destroyEPNS_11__tree_nodeIS8_PvEE
00000000000073f0 T __ZNSt3__16__treeINS_12__value_typeIjNS_3setIjNS_4lessIjEENS_9allocatorIjEEEEEENS_19__map_value_compareIjS8_S4_Lb1EEENS5_IS8_EEEC1ERKSA_
0000000000007420 T __ZNSt3__16__treeINS_12__value_typeIjNS_3setIjNS_4lessIjEENS_9allocatorIjEEEEEENS_19__map_value_compareIjS8_S4_Lb1EEENS5_IS8_EEEC2ERKSA_
0000000000013980 T __ZNSt3__16__treeINS_12__value_typeIjNS_3setIjNS_4lessIjEENS_9allocatorIjEEEEEENS_19__map_value_compareIjS8_S4_Lb1EEENS5_IS8_EEED1Ev
00000000000139a0 T __ZNSt3__16__treeINS_12__value_typeIjNS_3setIjNS_4lessIjEENS_9allocatorIjEEEEEENS_19__map_value_compareIjS8_S4_Lb1EEENS5_IS8_EEED2Ev
0000000000007930 T __ZNSt3__16__treeINS_12__value_typeIjNS_6vectorIjNS_9allocatorIjEEEEEENS_19__map_value_compareIjS6_NS_4lessIjEELb1EEENS3_IS6_EEE12__find_equalIjEERPNS_16__tree_node_baseIPvEERPNS_15__tree_end_nodeISH_EERKT_
0000000000007c60 T __ZNSt3__16__treeINS_12__value_typeIjNS_6vectorIjNS_9allocatorIjEEEEEENS_19__map_value_compareIjS6_NS_4lessIjEELb1EEENS3_IS6_EEE16__construct_nodeIJNS_4pairIjS5_EEEEENS_10unique_ptrINS_11__tree_nodeIS6_PvEENS_22__tree_node_destructorINS3_ISJ_EEEEEEDpOT_
00000000000091d0 T __ZNSt3__16__treeINS_12__value_typeIjNS_6vectorIjNS_9allocatorIjEEEEEENS_19__map_value_compareIjS6_NS_4lessIjEELb1EEENS3_IS6_EEE16__construct_nodeIJRKNS_21piecewise_construct_tENS_5tupleIJRKjEEENSH_IJEEEEEENS_10unique_ptrINS_11__tree_nodeIS6_PvEENS_22__tree_node_destructorINS3_ISP_EEEEEEDpOT_
0000000000008510 T __ZNSt3__16__treeINS_12__value_typeIjNS_6vectorIjNS_9allocatorIjEEEEEENS_19__map_value_compareIjS6_NS_4lessIjEELb1EEENS3_IS6_EEE16__insert_node_atEPNS_15__tree_end_nodeIPNS_16__tree_node_baseIPvEEEERSH_SH_
0000000000007550 T __ZNSt3__16__treeINS_12__value_typeIjNS_6vectorIjNS_9allocatorIjEEEEEENS_19__map_value_compareIjS6_NS_4lessIjEELb1EEENS3_IS6_EEE25__emplace_unique_key_argsIjJNS_4pairIjS5_EEEEENSE_INS_15__tree_iteratorIS6_PNS_11__tree_nodeIS6_PvEElEEbEERKT_DpOT0_
0000000000008dc0 T __ZNSt3__16__treeINS_12__value_typeIjNS_6vectorIjNS_9allocatorIjEEEEEENS_19__map_value_compareIjS6_NS_4lessIjEELb1EEENS3_IS6_EEE25__emplace_unique_key_argsIjJRKNS_21piecewise_construct_tENS_5tupleIJRKjEEENSH_IJEEEEEENS_4pairINS_15__tree_iteratorIS6_PNS_11__tree_nodeIS6_PvEElEEbEERKT_DpOT0_
0000000000013be0 T __ZNSt3__16__treeINS_12__value_typeIjNS_6vectorIjNS_9allocatorIjEEEEEENS_19__map_value_compareIjS6_NS_4lessIjEELb1EEENS3_IS6_EEE7destroyEPNS_11__tree_nodeIS6_PvEE
0000000000007290 T __ZNSt3__16__treeINS_12__value_typeIjNS_6vectorIjNS_9allocatorIjEEEEEENS_19__map_value_compareIjS6_NS_4lessIjEELb1EEENS3_IS6_EEEC1ERKSA_
00000000000072c0 T __ZNSt3__16__treeINS_12__value_typeIjNS_6vectorIjNS_9allocatorIjEEEEEENS_19__map_value_compareIjS6_NS_4lessIjEELb1EEENS3_IS6_EEEC2ERKSA_
0000000000013b60 T __ZNSt3__16__treeINS_12__value_typeIjNS_6vectorIjNS_9allocatorIjEEEEEENS_19__map_value_compareIjS6_NS_4lessIjEELb1EEENS3_IS6_EEED1Ev
0000000000013b80 T __ZNSt3__16__treeINS_12__value_typeIjNS_6vectorIjNS_9allocatorIjEEEEEENS_19__map_value_compareIjS6_NS_4lessIjEELb1EEENS3_IS6_EEED2Ev
00000000000120b0 T __ZNSt3__16__treeINS_3setIjNS_4lessIjEENS_9allocatorIjEEEENS2_IS6_EENS4_IS6_EEE12__find_equalIS6_EERPNS_16__tree_node_baseIPvEERPNS_15__tree_end_nodeISE_EERKT_
0000000000012b20 T __ZNSt3__16__treeINS_3setIjNS_4lessIjEENS_9allocatorIjEEEENS2_IS6_EENS4_IS6_EEE16__construct_nodeIJRKS6_EEENS_10unique_ptrINS_11__tree_nodeIS6_PvEENS_22__tree_node_destructorINS4_ISG_EEEEEEDpOT_
00000000000135f0 T __ZNSt3__16__treeINS_3setIjNS_4lessIjEENS_9allocatorIjEEEENS2_IS6_EENS4_IS6_EEE16__insert_node_atEPNS_15__tree_end_nodeIPNS_16__tree_node_baseIPvEEEERSE_SE_
0000000000011cd0 T __ZNSt3__16__treeINS_3setIjNS_4lessIjEENS_9allocatorIjEEEENS2_IS6_EENS4_IS6_EEE25__emplace_unique_key_argsIS6_JRKS6_EEENS_4pairINS_15__tree_iteratorIS6_PNS_11__tree_nodeIS6_PvEElEEbEERKT_DpOT0_
0000000000013dc0 T __ZNSt3__16__treeINS_3setIjNS_4lessIjEENS_9allocatorIjEEEENS2_IS6_EENS4_IS6_EEE7destroyEPNS_11__tree_nodeIS6_PvEE
0000000000007130 T __ZNSt3__16__treeINS_3setIjNS_4lessIjEENS_9allocatorIjEEEENS2_IS6_EENS4_IS6_EEEC1ERKS7_
0000000000007160 T __ZNSt3__16__treeINS_3setIjNS_4lessIjEENS_9allocatorIjEEEENS2_IS6_EENS4_IS6_EEEC2ERKS7_
0000000000013d40 T __ZNSt3__16__treeINS_3setIjNS_4lessIjEENS_9allocatorIjEEEENS2_IS6_EENS4_IS6_EEED1Ev
0000000000013d60 T __ZNSt3__16__treeINS_3setIjNS_4lessIjEENS_9allocatorIjEEEENS2_IS6_EENS4_IS6_EEED2Ev
000000000000d330 T __ZNSt3__16__treeIjNS_4lessIjEENS_9allocatorIjEEE12__find_equalIjEERPNS_16__tree_node_baseIPvEENS_21__tree_const_iteratorIjPNS_11__tree_nodeIjS8_EElEERPNS_15__tree_end_nodeISA_EESB_RKT_
000000000000c5b0 T __ZNSt3__16__treeIjNS_4lessIjEENS_9allocatorIjEEE12__find_equalIjEERPNS_16__tree_node_baseIPvEERPNS_15__tree_end_nodeISA_EERKT_
000000000000c880 T __ZNSt3__16__treeIjNS_4lessIjEENS_9allocatorIjEEE16__construct_nodeIJRKjEEENS_10unique_ptrINS_11__tree_nodeIjPvEENS_22__tree_node_destructorINS3_ISC_EEEEEEDpOT_
000000000000ce80 T __ZNSt3__16__treeIjNS_4lessIjEENS_9allocatorIjEEE16__insert_node_atEPNS_15__tree_end_nodeIPNS_16__tree_node_baseIPvEEEERSA_SA_
000000000000c1d0 T __ZNSt3__16__treeIjNS_4lessIjEENS_9allocatorIjEEE25__emplace_unique_key_argsIjJRKjEEENS_4pairINS_15__tree_iteratorIjPNS_11__tree_nodeIjPvEElEEbEERKT_DpOT0_
000000000000cfd0 T __ZNSt3__16__treeIjNS_4lessIjEENS_9allocatorIjEEE30__emplace_hint_unique_key_argsIjJRKjEEENS_15__tree_iteratorIjPNS_11__tree_nodeIjPvEElEENS_21__tree_const_iteratorIjSD_lEERKT_DpOT0_
0000000000013740 T __ZNSt3__16__treeIjNS_4lessIjEENS_9allocatorIjEEE5clearEv
000000000000edf0 T __ZNSt3__16__treeIjNS_4lessIjEENS_9allocatorIjEEE7destroyEPNS_11__tree_nodeIjPvEE
000000000000e930 T __ZNSt3__16__treeIjNS_4lessIjEENS_9allocatorIjEEEC1EOS5_
000000000000ebd0 T __ZNSt3__16__treeIjNS_4lessIjEENS_9allocatorIjEEEC1ERKS2_
0000000000010c30 T __ZNSt3__16__treeIjNS_4lessIjEENS_9allocatorIjEEEC1ERKS5_
000000000000e960 T __ZNSt3__16__treeIjNS_4lessIjEENS_9allocatorIjEEEC2EOS5_
000000000000ec00 T __ZNSt3__16__treeIjNS_4lessIjEENS_9allocatorIjEEEC2ERKS2_
0000000000010c60 T __ZNSt3__16__treeIjNS_4lessIjEENS_9allocatorIjEEEC2ERKS5_
000000000000ed70 T __ZNSt3__16__treeIjNS_4lessIjEENS_9allocatorIjEEED1Ev
000000000000ed90 T __ZNSt3__16__treeIjNS_4lessIjEENS_9allocatorIjEEED2Ev
000000000000aed0 T __ZNSt3__16vectorIjNS_9allocatorIjEEE18__construct_at_endINS_11__wrap_iterIPjEEEENS_9enable_ifIXsr21__is_forward_iteratorIT_EE5valueEvE4typeES9_S9_m
0000000000009a50 T __ZNSt3__16vectorIjNS_9allocatorIjEEE21__push_back_slow_pathIRKjEEvOT_
0000000000009db0 T __ZNSt3__16vectorIjNS_9allocatorIjEEE26__swap_out_circular_bufferERNS_14__split_bufferIjRS2_EE
000000000000ac20 T __ZNSt3__16vectorIjNS_9allocatorIjEEE8allocateEm
0000000000006690 T __ZNSt3__16vectorIjNS_9allocatorIjEEEC1INS_11__wrap_iterIPjEEEET_NS_9enable_ifIXaasr21__is_forward_iteratorIS8_EE5valuesr16is_constructibleIjNS_15iterator_traitsIS8_E9referenceEEE5valueES8_E4typeE
000000000000aa60 T __ZNSt3__16vectorIjNS_9allocatorIjEEEC2INS_11__wrap_iterIPjEEEET_NS_9enable_ifIXaasr21__is_forward_iteratorIS8_EE5valuesr16is_constructibleIjNS_15iterator_traitsIS8_E9referenceEEE5valueES8_E4typeE
0000000000006320 T __ZNSt3__16vectorIjNS_9allocatorIjEEED1Ev
0000000000008c00 T __ZNSt3__16vectorIjNS_9allocatorIjEEED2Ev
0000000000014235 s __ZNSt3__1L19piecewise_constructE
0000000000013f48 s __ZTVN12_GLOBAL__N_120DeltaActiveSetHelperE
0000000000014238 D __ZTVN4llvm13format_objectIJjEEE
                 U __ZTVN4llvm14DeltaAlgorithmE
0000000000013f10 S __ZTVN4llvm17DAGDeltaAlgorithmE
                 U __ZTVN4llvm18format_object_baseE
                 U __ZdlPv
                 U __Znwm
                 U ___assert_rtn
                 U ___cxa_pure_virtual
                 U _abort
                 U _memcpy
                 U _snprintf
                 U _strlen

libLLVMSupport.a(DataExtractor.o):
00000000000004e0 t __ZL4getUIN4llvm6Uint24EET_PjPKNS0_13DataExtractorEbPKc
0000000000000040 t __ZL4getUIhET_PjPKN4llvm13DataExtractorEbPKc
0000000000000640 t __ZL4getUIjET_PjPKN4llvm13DataExtractorEbPKc
0000000000000270 t __ZL4getUItET_PjPKN4llvm13DataExtractorEbPKc
0000000000000870 t __ZL4getUIyET_PjPKN4llvm13DataExtractorEbPKc
0000000000000140 t __ZL5getUsIhEPT_PjS1_jPKN4llvm13DataExtractorEbPKc
0000000000000740 t __ZL5getUsIjEPT_PjS1_jPKN4llvm13DataExtractorEbPKc
0000000000000370 t __ZL5getUsItEPT_PjS1_jPKN4llvm13DataExtractorEbPKc
0000000000000970 t __ZL5getUsIyEPT_PjS1_jPKN4llvm13DataExtractorEbPKc
0000000000001610 T __ZN4llvm15getSwappedBytesENS_6Uint24E
                 U __ZN4llvm25llvm_unreachable_internalEPKcS1_j
0000000000001570 T __ZN4llvm3sys13swapByteOrderINS_6Uint24EEEvRT_
0000000000001460 T __ZN4llvm3sys13swapByteOrderIhEEvRT_
00000000000016f0 T __ZN4llvm3sys13swapByteOrderIjEEvRT_
00000000000014a0 T __ZN4llvm3sys13swapByteOrderItEEvRT_
0000000000001750 T __ZN4llvm3sys13swapByteOrderIyEEvRT_
0000000000001490 T __ZN4llvm3sys15getSwappedBytesEh
0000000000001720 T __ZN4llvm3sys15getSwappedBytesEj
00000000000014d0 T __ZN4llvm3sys15getSwappedBytesEt
0000000000001780 T __ZN4llvm3sys15getSwappedBytesEy
0000000000001500 T __ZN4llvm3sys16SwapByteOrder_16Et
0000000000001740 T __ZN4llvm3sys16SwapByteOrder_32Ej
00000000000017a0 T __ZN4llvm3sys16SwapByteOrder_64Ey
0000000000001540 T __ZN4llvm6Uint24C1Eh
0000000000001670 T __ZN4llvm6Uint24C1Ehhh
00000000000015f0 T __ZN4llvm6Uint24C2Eh
00000000000016b0 T __ZN4llvm6Uint24C2Ehhh
00000000000010e0 T __ZN4llvm9StringRefC1Ev
00000000000013e0 T __ZN4llvm9StringRefC2Ev
0000000000000e40 T __ZNK4llvm13DataExtractor10getCStrRefEPj
00000000000012b0 T __ZNK4llvm13DataExtractor10getSLEB128EPj
0000000000001100 T __ZNK4llvm13DataExtractor10getULEB128EPj
0000000000000a60 T __ZNK4llvm13DataExtractor11getUnsignedEPjj
00000000000011f0 T __ZNK4llvm13DataExtractor13isValidOffsetEj
0000000000001400 T __ZNK4llvm13DataExtractor26isValidOffsetForDataOfSizeEjj
0000000000000000 T __ZNK4llvm13DataExtractor5getU8EPj
00000000000000e0 T __ZNK4llvm13DataExtractor5getU8EPjPhj
0000000000000230 T __ZNK4llvm13DataExtractor6getU16EPj
0000000000000310 T __ZNK4llvm13DataExtractor6getU16EPjPtj
0000000000000460 T __ZNK4llvm13DataExtractor6getU24EPj
0000000000000600 T __ZNK4llvm13DataExtractor6getU32EPj
00000000000006e0 T __ZNK4llvm13DataExtractor6getU32EPjS1_j
0000000000000830 T __ZNK4llvm13DataExtractor6getU64EPj
0000000000000910 T __ZNK4llvm13DataExtractor6getU64EPjPyj
0000000000000c40 T __ZNK4llvm13DataExtractor7getCStrEPj
0000000000000b50 T __ZNK4llvm13DataExtractor9getSignedEPjj
00000000000005b0 T __ZNK4llvm6Uint2411getAsUint32Eb
0000000000001220 T __ZNK4llvm9StringRefixEm
                 U ___assert_rtn
                 U _memchr
                 U _memset

libLLVMSupport.a(Debug.o):
0000000000006630 s __GLOBAL__sub_I_Debug.cpp
00000000000472c8 b __ZGVZN4llvm4dbgsEvE7thestrm
00000000000470f8 b __ZL15DebugBufferSize
0000000000047260 b __ZL15DebugOnlyOptLoc
0000000000001180 t __ZL22debug_user_sig_handlerPv
0000000000047040 b __ZL5Debug
00000000000471b0 b __ZL9DebugOnly
0000000000002eb0 T __ZN4llvm11SmallPtrSetIPNS_2cl10SubCommandELj4EEC1Ev
0000000000002ef0 T __ZN4llvm11SmallPtrSetIPNS_2cl10SubCommandELj4EEC2Ev
0000000000000f10 T __ZN4llvm11SmallPtrSetIPNS_2cl10SubCommandELj4EED1Ev
0000000000000f30 T __ZN4llvm11SmallPtrSetIPNS_2cl10SubCommandELj4EED2Ev
0000000000005e30 T __ZN4llvm11SmallVectorINS_9StringRefELj8EEC1Ev
0000000000005ea0 T __ZN4llvm11SmallVectorINS_9StringRefELj8EEC2Ev
0000000000005e80 T __ZN4llvm11SmallVectorINS_9StringRefELj8EED1Ev
0000000000005f90 T __ZN4llvm11SmallVectorINS_9StringRefELj8EED2Ev
                 U __ZN4llvm11raw_ostream14flush_nonemptyEv
0000000000001440 T __ZN4llvm11raw_ostream5flushEv
0000000000001290 T __ZN4llvm11raw_ostreamC2Eb
                 U __ZN4llvm11raw_ostreamD2Ev
00000000000003a0 T __ZN4llvm13ManagedStaticINSt3__16vectorINS1_12basic_stringIcNS1_11char_traitsIcEENS1_9allocatorIcEEEENS6_IS8_EEEENS_14object_creatorISA_EENS_14object_deleterISA_EEEdeEv
0000000000000380 T __ZN4llvm13ManagedStaticINSt3__16vectorINS1_12basic_stringIcNS1_11char_traitsIcEENS1_9allocatorIcEEEENS6_IS8_EEEENS_14object_creatorISA_EENS_14object_deleterISA_EEEptEv
0000000000001480 T __ZN4llvm14object_creatorINSt3__16vectorINS1_12basic_stringIcNS1_11char_traitsIcEENS1_9allocatorIcEEEENS6_IS8_EEEEE4callEv
0000000000001520 T __ZN4llvm14object_deleterINSt3__16vectorINS1_12basic_stringIcNS1_11char_traitsIcEENS1_9allocatorIcEEEENS6_IS8_EEEEE4callEPv
0000000000002f30 T __ZN4llvm15SmallPtrSetImplIPNS_2cl10SubCommandEEC2EPPKvj
0000000000000f50 T __ZN4llvm15SmallPtrSetImplIPNS_2cl10SubCommandEED2Ev
0000000000005f50 T __ZN4llvm15SmallVectorBaseC2EPvm
0000000000005ec0 T __ZN4llvm15SmallVectorImplINS_9StringRefEEC2Ej
0000000000005fb0 T __ZN4llvm15SmallVectorImplINS_9StringRefEED2Ev
0000000000000000 T __ZN4llvm18isCurrentDebugTypeEPKc
0000000000002f70 T __ZN4llvm19SmallPtrSetImplBaseC2EPPKvj
0000000000000f70 T __ZN4llvm19SmallPtrSetImplBaseD2Ev
0000000000000500 T __ZN4llvm19setCurrentDebugTypeEPKc
0000000000047026 S __ZN4llvm20EnableDebugBufferingE
0000000000001330 T __ZN4llvm20circular_raw_ostream13releaseStreamEv
                 U __ZN4llvm20circular_raw_ostream21flushBufferWithBannerEv
00000000000012e0 T __ZN4llvm20circular_raw_ostream9setStreamERNS_11raw_ostreamEb
0000000000001130 T __ZN4llvm20circular_raw_ostreamC1ERNS_11raw_ostreamEPKcmb
00000000000011c0 T __ZN4llvm20circular_raw_ostreamC2ERNS_11raw_ostreamEPKcmb
00000000000013b0 T __ZN4llvm20circular_raw_ostreamD1Ev
00000000000013d0 T __ZN4llvm20circular_raw_ostreamD2Ev
0000000000000530 T __ZN4llvm20setCurrentDebugTypesEPPKcj
0000000000006020 T __ZN4llvm23SmallVectorTemplateBaseINS_9StringRefELb1EE13destroy_rangeEPS1_S3_
0000000000005ef0 T __ZN4llvm23SmallVectorTemplateBaseINS_9StringRefELb1EEC2Em
                 U __ZN4llvm24DisableABIBreakingChecksE
0000000000005f20 T __ZN4llvm25SmallVectorTemplateCommonINS_9StringRefEvEC2Em
                 U __ZN4llvm25llvm_unreachable_internalEPKcS1_j
0000000000004b20 t __ZN4llvm2cl10applicatorIA11_cE3optINS0_3optIN12_GLOBAL__N_112DebugOnlyOptELb1ENS0_6parserINSt3__112basic_stringIcNS9_11char_traitsIcEENS9_9allocatorIcEEEEEEEEEEvNS_9StringRefERT_
0000000000004200 T __ZN4llvm2cl10applicatorIA18_cE3optINS0_3optIjLb0ENS0_6parserIjEEEEEEvNS_9StringRefERT_
00000000000032c0 T __ZN4llvm2cl10applicatorIA6_cE3optINS0_3optIbLb1ENS0_6parserIbEEEEEEvNS_9StringRefERT_
0000000000004d50 t __ZN4llvm2cl10applicatorINS0_10value_descEE3optINS0_3optIN12_GLOBAL__N_112DebugOnlyOptELb1ENS0_6parserINSt3__112basic_stringIcNS9_11char_traitsIcEENS9_9allocatorIcEEEEEEEEEEvRKS2_RT_
0000000000004330 T __ZN4llvm2cl10applicatorINS0_11initializerIiEEE3optINS0_3optIjLb0ENS0_6parserIjEEEEEEvRKS3_RT_
0000000000003430 T __ZN4llvm2cl10applicatorINS0_12OptionHiddenEE3optES2_RNS0_6OptionE
0000000000004e30 t __ZN4llvm2cl10applicatorINS0_13LocationClassIN12_GLOBAL__N_112DebugOnlyOptEEEE3optINS0_3optIS4_Lb1ENS0_6parserINSt3__112basic_stringIcNSA_11char_traitsIcEENSA_9allocatorIcEEEEEEEEEEvRKS5_RT_
00000000000034c0 T __ZN4llvm2cl10applicatorINS0_13LocationClassIbEEE3optINS0_3optIbLb1ENS0_6parserIbEEEEEEvRKS3_RT_
0000000000004fd0 T __ZN4llvm2cl10applicatorINS0_13ValueExpectedEE3optES2_RNS0_6OptionE
0000000000004cb0 T __ZN4llvm2cl10applicatorINS0_18NumOccurrencesFlagEE3optES2_RNS0_6OptionE
0000000000004bd0 t __ZN4llvm2cl10applicatorINS0_4descEE3optINS0_3optIN12_GLOBAL__N_112DebugOnlyOptELb1ENS0_6parserINSt3__112basic_stringIcNS9_11char_traitsIcEENS9_9allocatorIcEEEEEEEEEEvRKS2_RT_
0000000000003350 T __ZN4llvm2cl10applicatorINS0_4descEE3optINS0_3optIbLb1ENS0_6parserIbEEEEEEvRKS2_RT_
0000000000004290 T __ZN4llvm2cl10applicatorINS0_4descEE3optINS0_3optIjLb0ENS0_6parserIjEEEEEEvRKS2_RT_
0000000000000cf0 T __ZN4llvm2cl10value_descC1ENS_9StringRefE
0000000000000ff0 T __ZN4llvm2cl10value_descC2ENS_9StringRefE
0000000000004a20 t __ZN4llvm2cl11OptionValueIN12_GLOBAL__N_112DebugOnlyOptEEC1Ev
0000000000004a40 t __ZN4llvm2cl11OptionValueIN12_GLOBAL__N_112DebugOnlyOptEEC2Ev
0000000000005df0 t __ZN4llvm2cl11OptionValueIN12_GLOBAL__N_112DebugOnlyOptEEaSINSt3__112basic_stringIcNS6_11char_traitsIcEENS6_9allocatorIcEEEEEERS4_RKT_
0000000000004f80 t __ZN4llvm2cl11OptionValueIN12_GLOBAL__N_112DebugOnlyOptEEaSIS3_EERS4_RKT_
0000000000003ba0 T __ZN4llvm2cl11OptionValueIbEC1ERKS2_
0000000000003020 T __ZN4llvm2cl11OptionValueIbEC1Ev
0000000000003bd0 T __ZN4llvm2cl11OptionValueIbEC2ERKS2_
0000000000003040 T __ZN4llvm2cl11OptionValueIbEC2Ev
0000000000003610 T __ZN4llvm2cl11OptionValueIbEaSIbEERS2_RKT_
0000000000003f40 T __ZN4llvm2cl11OptionValueIjEC1ERKj
0000000000003f70 T __ZN4llvm2cl11OptionValueIjEC2ERKj
0000000000003d40 T __ZN4llvm2cl11initializerIiEC1ERKi
0000000000003d70 T __ZN4llvm2cl11initializerIiEC2ERKi
0000000000004ed0 t __ZN4llvm2cl11opt_storageIN12_GLOBAL__N_112DebugOnlyOptELb1ELb1EE11setLocationERNS0_6OptionERS3_
00000000000053d0 t __ZN4llvm2cl11opt_storageIN12_GLOBAL__N_112DebugOnlyOptELb1ELb1EE8setValueINSt3__112basic_stringIcNS6_11char_traitsIcEENS6_9allocatorIcEEEEEEvRKT_b
0000000000006210 t __ZN4llvm2cl11opt_storageIN12_GLOBAL__N_112DebugOnlyOptELb1ELb1EE8setValueIS3_EEvRKT_b
00000000000044c0 t __ZN4llvm2cl11opt_storageIN12_GLOBAL__N_112DebugOnlyOptELb1ELb1EEC2Ev
0000000000003530 T __ZN4llvm2cl11opt_storageIbLb1ELb0EE11setLocationERNS0_6OptionERb
0000000000003980 T __ZN4llvm2cl11opt_storageIbLb1ELb0EE8setValueIbEEvRKT_b
0000000000002a70 T __ZN4llvm2cl11opt_storageIbLb1ELb0EEC2Ev
0000000000003e30 T __ZN4llvm2cl11opt_storageIjLb0ELb0EEC2Ev
                 U __ZN4llvm2cl12basic_parserINSt3__112basic_stringIcNS2_11char_traitsIcEENS2_9allocatorIcEEEEEC2ERNS0_6OptionE
                 U __ZN4llvm2cl12basic_parserIbEC2ERNS0_6OptionE
                 U __ZN4llvm2cl12basic_parserIjEC2ERNS0_6OptionE
00000000000043a0 t __ZN4llvm2cl13LocationClassIN12_GLOBAL__N_112DebugOnlyOptEEC1ERS3_
00000000000043d0 t __ZN4llvm2cl13LocationClassIN12_GLOBAL__N_112DebugOnlyOptEEC2ERS3_
0000000000002880 T __ZN4llvm2cl13LocationClassIbEC1ERb
00000000000028b0 T __ZN4llvm2cl13LocationClassIbEC2ERb
                 U __ZN4llvm2cl15GeneralCategoryE
0000000000006060 t __ZN4llvm2cl15OptionValueBaseIN12_GLOBAL__N_112DebugOnlyOptELb1EE8setValueINSt3__112basic_stringIcNS6_11char_traitsIcEENS6_9allocatorIcEEEEEEvRKT_
0000000000004fc0 t __ZN4llvm2cl15OptionValueBaseIN12_GLOBAL__N_112DebugOnlyOptELb1EE8setValueIS3_EEvRKT_
0000000000004a80 t __ZN4llvm2cl15OptionValueBaseIN12_GLOBAL__N_112DebugOnlyOptELb1EEC2Ev
0000000000003c10 T __ZN4llvm2cl15OptionValueBaseIbLb0EEC2ERKS2_
0000000000003080 T __ZN4llvm2cl15OptionValueBaseIbLb0EEC2Ev
0000000000003fc0 T __ZN4llvm2cl15OptionValueBaseIjLb0EEC2Ev
0000000000003940 T __ZN4llvm2cl15OptionValueCopyIbE8setValueERKb
0000000000003c50 T __ZN4llvm2cl15OptionValueCopyIbEC2ERKS2_
0000000000003130 T __ZN4llvm2cl15OptionValueCopyIbEC2Ev
0000000000004000 T __ZN4llvm2cl15OptionValueCopyIjE8setValueERKj
0000000000004090 T __ZN4llvm2cl15OptionValueCopyIjEC2Ev
00000000000060f0 t __ZN4llvm2cl15printOptionDiffINS0_6parserINSt3__112basic_stringIcNS3_11char_traitsIcEENS3_9allocatorIcEEEEEEN12_GLOBAL__N_112DebugOnlyOptEEEvRKNS0_6OptionERKNS0_12basic_parserINT_16parser_data_typeEEERKT0_RKNS0_11OptionValueISM_EEm
0000000000003ad0 T __ZN4llvm2cl15printOptionDiffINS0_6parserIbEEbEEvRKNS0_6OptionERKNS0_12basic_parserINT_16parser_data_typeEEERKT0_RKNS0_11OptionValueISD_EEm
0000000000006140 t __ZN4llvm2cl17OptionDiffPrinterINSt3__112basic_stringIcNS2_11char_traitsIcEENS2_9allocatorIcEEEEN12_GLOBAL__N_112DebugOnlyOptEE5printERKNS0_6OptionERKNS0_6parserIS8_EERKSA_RKNS0_11OptionValueISA_EEm
0000000000003b20 T __ZN4llvm2cl17OptionDiffPrinterIbbE5printERKNS0_6OptionERKNS0_6parserIbEERKbRKNS0_11OptionValueIbEEm
0000000000005030 T __ZN4llvm2cl17basic_parser_impl10initializeEv
0000000000003d30 T __ZN4llvm2cl17basic_parser_impl19getExtraOptionNamesERNS_15SmallVectorImplINS_9StringRefEEE
                 U __ZN4llvm2cl18GenericOptionValue6anchorEv
0000000000003ca0 T __ZN4llvm2cl18GenericOptionValueC2ERKS1_
0000000000003170 T __ZN4llvm2cl18GenericOptionValueC2Ev
00000000000049c0 t __ZN4llvm2cl3optIN12_GLOBAL__N_112DebugOnlyOptELb1ENS0_6parserINSt3__112basic_stringIcNS5_11char_traitsIcEENS5_9allocatorIcEEEEEEE10setDefaultEv
0000000000006180 t __ZN4llvm2cl3optIN12_GLOBAL__N_112DebugOnlyOptELb1ENS0_6parserINSt3__112basic_stringIcNS5_11char_traitsIcEENS5_9allocatorIcEEEEEEE14setDefaultImplIS3_vEEvv
0000000000004640 t __ZN4llvm2cl3optIN12_GLOBAL__N_112DebugOnlyOptELb1ENS0_6parserINSt3__112basic_stringIcNS5_11char_traitsIcEENS5_9allocatorIcEEEEEEE16handleOccurrenceEjNS_9StringRefESE_
00000000000049e0 t __ZN4llvm2cl3optIN12_GLOBAL__N_112DebugOnlyOptELb1ENS0_6parserINSt3__112basic_stringIcNS5_11char_traitsIcEENS5_9allocatorIcEEEEEEE19getExtraOptionNamesERNS_15SmallVectorImplINS_9StringRefEEE
0000000000004600 t __ZN4llvm2cl3optIN12_GLOBAL__N_112DebugOnlyOptELb1ENS0_6parserINSt3__112basic_stringIcNS5_11char_traitsIcEENS5_9allocatorIcEEEEEEE4doneEv
0000000000000d50 t __ZN4llvm2cl3optIN12_GLOBAL__N_112DebugOnlyOptELb1ENS0_6parserINSt3__112basic_stringIcNS5_11char_traitsIcEENS5_9allocatorIcEEEEEEEC1IJA11_cNS0_4descENS0_12OptionHiddenENS0_18NumOccurrencesFlagENS0_10value_descENS0_13LocationClassIS3_EENS0_13ValueExpectedEEEEDpRKT_
00000000000043f0 t __ZN4llvm2cl3optIN12_GLOBAL__N_112DebugOnlyOptELb1ENS0_6parserINSt3__112basic_stringIcNS5_11char_traitsIcEENS5_9allocatorIcEEEEEEEC2IJA11_cNS0_4descENS0_12OptionHiddenENS0_18NumOccurrencesFlagENS0_10value_descENS0_13LocationClassIS3_EENS0_13ValueExpectedEEEEDpRKT_
0000000000004860 t __ZN4llvm2cl3optIN12_GLOBAL__N_112DebugOnlyOptELb1ENS0_6parserINSt3__112basic_stringIcNS5_11char_traitsIcEENS5_9allocatorIcEEEEEEED0Ev
0000000000000dc0 t __ZN4llvm2cl3optIN12_GLOBAL__N_112DebugOnlyOptELb1ENS0_6parserINSt3__112basic_stringIcNS5_11char_traitsIcEENS5_9allocatorIcEEEEEEED1Ev
0000000000001020 t __ZN4llvm2cl3optIN12_GLOBAL__N_112DebugOnlyOptELb1ENS0_6parserINSt3__112basic_stringIcNS5_11char_traitsIcEENS5_9allocatorIcEEEEEEED2Ev
0000000000002e30 T __ZN4llvm2cl3optIbLb1ENS0_6parserIbEEE10setDefaultEv
0000000000003cc0 T __ZN4llvm2cl3optIbLb1ENS0_6parserIbEEE14setDefaultImplIbvEEvv
0000000000002bc0 T __ZN4llvm2cl3optIbLb1ENS0_6parserIbEEE16handleOccurrenceEjNS_9StringRefES5_
0000000000002e50 T __ZN4llvm2cl3optIbLb1ENS0_6parserIbEEE19getExtraOptionNamesERNS_15SmallVectorImplINS_9StringRefEEE
0000000000002b80 T __ZN4llvm2cl3optIbLb1ENS0_6parserIbEEE4doneEv
0000000000000c00 T __ZN4llvm2cl3optIbLb1ENS0_6parserIbEEEC1IJA6_cNS0_4descENS0_12OptionHiddenENS0_13LocationClassIbEEEEEDpRKT_
00000000000028d0 T __ZN4llvm2cl3optIbLb1ENS0_6parserIbEEEC2IJA6_cNS0_4descENS0_12OptionHiddenENS0_13LocationClassIbEEEEEDpRKT_
0000000000002cd0 T __ZN4llvm2cl3optIbLb1ENS0_6parserIbEEED0Ev
0000000000000c40 T __ZN4llvm2cl3optIbLb1ENS0_6parserIbEEED1Ev
0000000000000ec0 T __ZN4llvm2cl3optIbLb1ENS0_6parserIbEEED2Ev
                 U __ZN4llvm2cl3optIjLb0ENS0_6parserIjEEE15setInitialValueERKj
                 U __ZN4llvm2cl3optIjLb0ENS0_6parserIjEEE4doneEv
0000000000000c90 T __ZN4llvm2cl3optIjLb0ENS0_6parserIjEEEC1IJA18_cNS0_4descENS0_12OptionHiddenENS0_11initializerIiEEEEEDpRKT_
0000000000003d90 T __ZN4llvm2cl3optIjLb0ENS0_6parserIjEEEC2IJA18_cNS0_4descENS0_12OptionHiddenENS0_11initializerIiEEEEEDpRKT_
0000000000000cd0 T __ZN4llvm2cl3optIjLb0ENS0_6parserIjEEED1Ev
0000000000000fd0 T __ZN4llvm2cl3optIjLb0ENS0_6parserIjEEED2Ev
0000000000000ba0 T __ZN4llvm2cl4descC1ENS_9StringRefE
0000000000000e90 T __ZN4llvm2cl4descC2ENS_9StringRefE
0000000000000c60 T __ZN4llvm2cl4initIiEENS0_11initializerIT_EERKS3_
0000000000004520 t __ZN4llvm2cl5applyINS0_3optIN12_GLOBAL__N_112DebugOnlyOptELb1ENS0_6parserINSt3__112basic_stringIcNS6_11char_traitsIcEENS6_9allocatorIcEEEEEEEEA11_cJNS0_4descENS0_12OptionHiddenENS0_18NumOccurrencesFlagENS0_10value_descENS0_13LocationClassIS4_EENS0_13ValueExpectedEEEEvPT_RKT0_DpRKT1_
0000000000004ce0 t __ZN4llvm2cl5applyINS0_3optIN12_GLOBAL__N_112DebugOnlyOptELb1ENS0_6parserINSt3__112basic_stringIcNS6_11char_traitsIcEENS6_9allocatorIcEEEEEEEENS0_10value_descEJNS0_13LocationClassIS4_EENS0_13ValueExpectedEEEEvPT_RKT0_DpRKT1_
0000000000004c00 t __ZN4llvm2cl5applyINS0_3optIN12_GLOBAL__N_112DebugOnlyOptELb1ENS0_6parserINSt3__112basic_stringIcNS6_11char_traitsIcEENS6_9allocatorIcEEEEEEEENS0_12OptionHiddenEJNS0_18NumOccurrencesFlagENS0_10value_descENS0_13LocationClassIS4_EENS0_13ValueExpectedEEEEvPT_RKT0_DpRKT1_
0000000000004d80 t __ZN4llvm2cl5applyINS0_3optIN12_GLOBAL__N_112DebugOnlyOptELb1ENS0_6parserINSt3__112basic_stringIcNS6_11char_traitsIcEENS6_9allocatorIcEEEEEEEENS0_13LocationClassIS4_EEJNS0_13ValueExpectedEEEEvPT_RKT0_DpRKT1_
0000000000004e60 t __ZN4llvm2cl5applyINS0_3optIN12_GLOBAL__N_112DebugOnlyOptELb1ENS0_6parserINSt3__112basic_stringIcNS6_11char_traitsIcEENS6_9allocatorIcEEEEEEEENS0_13ValueExpectedEEEvPT_RKT0_
0000000000004c60 t __ZN4llvm2cl5applyINS0_3optIN12_GLOBAL__N_112DebugOnlyOptELb1ENS0_6parserINSt3__112basic_stringIcNS6_11char_traitsIcEENS6_9allocatorIcEEEEEEEENS0_18NumOccurrencesFlagEJNS0_10value_descENS0_13LocationClassIS4_EENS0_13ValueExpectedEEEEvPT_RKT0_DpRKT1_
0000000000004b70 t __ZN4llvm2cl5applyINS0_3optIN12_GLOBAL__N_112DebugOnlyOptELb1ENS0_6parserINSt3__112basic_stringIcNS6_11char_traitsIcEENS6_9allocatorIcEEEEEEEENS0_4descEJNS0_12OptionHiddenENS0_18NumOccurrencesFlagENS0_10value_descENS0_13LocationClassIS4_EENS0_13ValueExpectedEEEEvPT_RKT0_DpRKT1_
0000000000002ad0 T __ZN4llvm2cl5applyINS0_3optIbLb1ENS0_6parserIbEEEEA6_cJNS0_4descENS0_12OptionHiddenENS0_13LocationClassIbEEEEEvPT_RKT0_DpRKT1_
0000000000003380 T __ZN4llvm2cl5applyINS0_3optIbLb1ENS0_6parserIbEEEENS0_12OptionHiddenEJNS0_13LocationClassIbEEEEEvPT_RKT0_DpRKT1_
0000000000003460 T __ZN4llvm2cl5applyINS0_3optIbLb1ENS0_6parserIbEEEENS0_13LocationClassIbEEEEvPT_RKT0_
0000000000003310 T __ZN4llvm2cl5applyINS0_3optIbLb1ENS0_6parserIbEEEENS0_4descEJNS0_12OptionHiddenENS0_13LocationClassIbEEEEEvPT_RKT0_DpRKT1_
0000000000003e90 T __ZN4llvm2cl5applyINS0_3optIjLb0ENS0_6parserIjEEEEA18_cJNS0_4descENS0_12OptionHiddenENS0_11initializerIiEEEEEvPT_RKT0_DpRKT1_
0000000000004300 T __ZN4llvm2cl5applyINS0_3optIjLb0ENS0_6parserIjEEEENS0_11initializerIiEEEEvPT_RKT0_
00000000000042c0 T __ZN4llvm2cl5applyINS0_3optIjLb0ENS0_6parserIjEEEENS0_12OptionHiddenEJNS0_11initializerIiEEEEEvPT_RKT0_DpRKT1_
0000000000004250 T __ZN4llvm2cl5applyINS0_3optIjLb0ENS0_6parserIjEEEENS0_4descEJNS0_12OptionHiddenENS0_11initializerIiEEEEEvPT_RKT0_DpRKT1_
                 U __ZN4llvm2cl6Option11addArgumentEv
00000000000039e0 T __ZN4llvm2cl6Option11setPositionEj
0000000000004e00 T __ZN4llvm2cl6Option11setValueStrENS_9StringRefE
                 U __ZN4llvm2cl6Option13addOccurrenceEjNS_9StringRefES2_b
0000000000003490 T __ZN4llvm2cl6Option13setHiddenFlagENS0_12OptionHiddenE
0000000000003400 T __ZN4llvm2cl6Option14setDescriptionENS_9StringRefE
0000000000005000 T __ZN4llvm2cl6Option20setValueExpectedFlagENS0_13ValueExpectedE
0000000000004d20 T __ZN4llvm2cl6Option21setNumOccurrencesFlagENS0_18NumOccurrencesFlagE
                 U __ZN4llvm2cl6Option5errorERKNS_5TwineENS_9StringRefE
                 U __ZN4llvm2cl6Option6anchorEv
                 U __ZN4llvm2cl6Option9setArgStrENS_9StringRefE
0000000000002970 T __ZN4llvm2cl6OptionC2ENS0_18NumOccurrencesFlagENS0_12OptionHiddenE
0000000000000ee0 T __ZN4llvm2cl6OptionD2Ev
0000000000005040 T __ZN4llvm2cl6parserINSt3__112basic_stringIcNS2_11char_traitsIcEENS2_9allocatorIcEEEEE5parseERNS0_6OptionENS_9StringRefESC_RS8_
00000000000044f0 T __ZN4llvm2cl6parserINSt3__112basic_stringIcNS2_11char_traitsIcEENS2_9allocatorIcEEEEEC1ERNS0_6OptionE
0000000000004ae0 T __ZN4llvm2cl6parserINSt3__112basic_stringIcNS2_11char_traitsIcEENS2_9allocatorIcEEEEEC2ERNS0_6OptionE
0000000000003970 T __ZN4llvm2cl6parserIbE10initializeEv
                 U __ZN4llvm2cl6parserIbE5parseERNS0_6OptionENS_9StringRefES5_Rb
0000000000002aa0 T __ZN4llvm2cl6parserIbEC1ERNS0_6OptionE
0000000000003280 T __ZN4llvm2cl6parserIbEC2ERNS0_6OptionE
0000000000003e60 T __ZN4llvm2cl6parserIjEC1ERNS0_6OptionE
00000000000041c0 T __ZN4llvm2cl6parserIjEC2ERNS0_6OptionE
0000000000000d20 t __ZN4llvm2cl8locationIN12_GLOBAL__N_112DebugOnlyOptEEENS0_13LocationClassIT_EERS5_
0000000000000bd0 T __ZN4llvm2cl8locationIbEENS0_13LocationClassIT_EERS3_
0000000000006648 D __ZN4llvm30VerifyDisableABIBreakingChecksE
                 U __ZN4llvm3sys16AddSignalHandlerEPFvPvES1_
0000000000000de0 T __ZN4llvm4dbgsEv
                 U __ZN4llvm4errsEv
00000000000035e0 T __ZN4llvm5TwineC1EPKc
0000000000003650 T __ZN4llvm5TwineC2EPKc
0000000000047025 S __ZN4llvm9DebugFlagE
0000000000002e90 T __ZN4llvm9StringRefC1Ev
0000000000002ed0 T __ZN4llvm9StringRefC2Ev
0000000000047028 b __ZN4llvmL16CurrentDebugTypeE
0000000000005660 t __ZNK12_GLOBAL__N_112DebugOnlyOptaSERKNSt3__112basic_stringIcNS1_11char_traitsIcEENS1_9allocatorIcEEEE
                 U __ZNK4llvm17ManagedStaticBase21RegisterManagedStaticEPFPvvEPFvS1_E
0000000000000fb0 T __ZNK4llvm19SmallPtrSetImplBase7isSmallEv
0000000000006030 T __ZNK4llvm25SmallVectorTemplateCommonINS_9StringRefEvE7isSmallEv
0000000000004dc0 T __ZNK4llvm2cl10value_desc5applyERNS0_6OptionE
0000000000004360 T __ZNK4llvm2cl11initializerIiE5applyINS0_3optIjLb0ENS0_6parserIjEEEEEEvRT_
0000000000006080 t __ZNK4llvm2cl11opt_storageIN12_GLOBAL__N_112DebugOnlyOptELb1ELb1EE10getDefaultEv
00000000000055f0 t __ZNK4llvm2cl11opt_storageIN12_GLOBAL__N_112DebugOnlyOptELb1ELb1EE14check_locationEv
00000000000060c0 t __ZNK4llvm2cl11opt_storageIN12_GLOBAL__N_112DebugOnlyOptELb1ELb1EE8getValueEv
0000000000003a80 T __ZNK4llvm2cl11opt_storageIbLb1ELb0EE10getDefaultEv
0000000000003a00 T __ZNK4llvm2cl11opt_storageIbLb1ELb0EE14check_locationEv
0000000000003aa0 T __ZNK4llvm2cl11opt_storageIbLb1ELb0EE8getValueEv
00000000000011b0 T __ZNK4llvm2cl11opt_storageIjLb0ELb0EE8getValueEv
0000000000001110 T __ZNK4llvm2cl11opt_storageIjLb0ELb0EEcvjEv
0000000000004e90 t __ZNK4llvm2cl13LocationClassIN12_GLOBAL__N_112DebugOnlyOptEE5applyINS0_3optIS3_Lb1ENS0_6parserINSt3__112basic_stringIcNS8_11char_traitsIcEENS8_9allocatorIcEEEEEEEEEEvRT_
00000000000034f0 T __ZNK4llvm2cl13LocationClassIbE5applyINS0_3optIbLb1ENS0_6parserIbEEEEEEvRT_
0000000000004ac0 t __ZNK4llvm2cl15OptionValueBaseIN12_GLOBAL__N_112DebugOnlyOptELb1EE7compareERKNS0_18GenericOptionValueE
00000000000060a0 t __ZNK4llvm2cl15OptionValueBaseIN12_GLOBAL__N_112DebugOnlyOptELb1EE7compareERKS3_
0000000000006260 t __ZNK4llvm2cl15OptionValueBaseIN12_GLOBAL__N_112DebugOnlyOptELb1EE8getValueEv
00000000000061f0 t __ZNK4llvm2cl15OptionValueBaseIN12_GLOBAL__N_112DebugOnlyOptELb1EE8hasValueEv
00000000000030c0 T __ZNK4llvm2cl15OptionValueCopyIbE7compareERKNS0_18GenericOptionValueE
00000000000031b0 T __ZNK4llvm2cl15OptionValueCopyIbE7compareERKb
0000000000003200 T __ZNK4llvm2cl15OptionValueCopyIbE8getValueEv
0000000000003190 T __ZNK4llvm2cl15OptionValueCopyIbE8hasValueEv
0000000000004020 T __ZNK4llvm2cl15OptionValueCopyIjE7compareERKNS0_18GenericOptionValueE
00000000000040f0 T __ZNK4llvm2cl15OptionValueCopyIjE7compareERKj
0000000000004140 T __ZNK4llvm2cl15OptionValueCopyIjE8getValueEv
00000000000040d0 T __ZNK4llvm2cl15OptionValueCopyIjE8hasValueEv
                 U __ZNK4llvm2cl17basic_parser_impl14getOptionWidthERKNS0_6OptionE
                 U __ZNK4llvm2cl17basic_parser_impl15printOptionInfoERKNS0_6OptionEm
                 U __ZNK4llvm2cl17basic_parser_impl18printOptionNoValueERKNS0_6OptionEm
0000000000006070 T __ZNK4llvm2cl17basic_parser_impl27getValueExpectedFlagDefaultEv
0000000000004890 t __ZNK4llvm2cl3optIN12_GLOBAL__N_112DebugOnlyOptELb1ENS0_6parserINSt3__112basic_stringIcNS5_11char_traitsIcEENS5_9allocatorIcEEEEEEE14getOptionWidthEv
00000000000048c0 t __ZNK4llvm2cl3optIN12_GLOBAL__N_112DebugOnlyOptELb1ENS0_6parserINSt3__112basic_stringIcNS5_11char_traitsIcEENS5_9allocatorIcEEEEEEE15printOptionInfoEm
00000000000048f0 t __ZNK4llvm2cl3optIN12_GLOBAL__N_112DebugOnlyOptELb1ENS0_6parserINSt3__112basic_stringIcNS5_11char_traitsIcEENS5_9allocatorIcEEEEEEE16printOptionValueEmb
0000000000004830 t __ZNK4llvm2cl3optIN12_GLOBAL__N_112DebugOnlyOptELb1ENS0_6parserINSt3__112basic_stringIcNS5_11char_traitsIcEENS5_9allocatorIcEEEEEEE27getValueExpectedFlagDefaultEv
0000000000002d00 T __ZNK4llvm2cl3optIbLb1ENS0_6parserIbEEE14getOptionWidthEv
0000000000002d30 T __ZNK4llvm2cl3optIbLb1ENS0_6parserIbEEE15printOptionInfoEm
0000000000002d60 T __ZNK4llvm2cl3optIbLb1ENS0_6parserIbEEE16printOptionValueEmb
0000000000002ca0 T __ZNK4llvm2cl3optIbLb1ENS0_6parserIbEEE27getValueExpectedFlagDefaultEv
00000000000033c0 T __ZNK4llvm2cl4desc5applyERNS0_6OptionE
                 U __ZNK4llvm2cl6parserIbE15printOptionDiffERKNS0_6OptionEbNS0_11OptionValueIbEEm
0000000000003a70 T __ZNK4llvm2cl6parserIbE27getValueExpectedFlagDefaultEv
0000000000003870 T __ZNK4llvm5Twine10getLHSKindEv
0000000000003850 T __ZNK4llvm5Twine10getRHSKindEv
00000000000038e0 T __ZNK4llvm5Twine6isNullEv
0000000000003910 T __ZNK4llvm5Twine7isEmptyEv
0000000000003700 T __ZNK4llvm5Twine7isValidEv
0000000000003890 T __ZNK4llvm5Twine8isBinaryEv
0000000000003810 T __ZNK4llvm5Twine9isNullaryEv
0000000000005430 T __ZNK4llvm9StringRef3strEv
                 U __ZNK4llvm9StringRef5splitERNS_15SmallVectorImplIS0_EEcib
0000000000005e50 T __ZNK4llvm9StringRefcvNSt3__112basic_stringIcNS1_11char_traitsIcEENS1_9allocatorIcEEEEEv
                 U __ZNKSt3__112basic_stringIcNS_11char_traitsIcEENS_9allocatorIcEEE7compareEmmPKcm
                 U __ZNKSt3__120__vector_base_commonILb1EE20__throw_length_errorEv
0000000000002390 T __ZNKSt3__16vectorINS_12basic_stringIcNS_11char_traitsIcEENS_9allocatorIcEEEENS4_IS6_EEE8max_sizeEv
00000000000055d0 T __ZNSt3__111char_traitsIcE6assignERcRKc
0000000000001760 T __ZNSt3__111char_traitsIcE6lengthEPKc
                 U __ZNSt3__112basic_stringIcNS_11char_traitsIcEENS_9allocatorIcEEE6__initEPKcm
                 U __ZNSt3__112basic_stringIcNS_11char_traitsIcEENS_9allocatorIcEEE7reserveEm
                 U __ZNSt3__112basic_stringIcNS_11char_traitsIcEENS_9allocatorIcEEED1Ev
00000000000015a0 T __ZNSt3__113__vector_baseINS_12basic_stringIcNS_11char_traitsIcEENS_9allocatorIcEEEENS4_IS6_EEED2Ev
0000000000001b80 T __ZNSt3__114__split_bufferINS_12basic_stringIcNS_11char_traitsIcEENS_9allocatorIcEEEERNS4_IS6_EEEC1EmmS8_
0000000000002480 T __ZNSt3__114__split_bufferINS_12basic_stringIcNS_11char_traitsIcEENS_9allocatorIcEEEERNS4_IS6_EEEC2EmmS8_
0000000000002370 T __ZNSt3__114__split_bufferINS_12basic_stringIcNS_11char_traitsIcEENS_9allocatorIcEEEERNS4_IS6_EEED1Ev
00000000000026a0 T __ZNSt3__114__split_bufferINS_12basic_stringIcNS_11char_traitsIcEENS_9allocatorIcEEEERNS4_IS6_EEED2Ev
0000000000001780 T __ZNSt3__16vectorINS_12basic_stringIcNS_11char_traitsIcEENS_9allocatorIcEEEENS4_IS6_EEE21__push_back_slow_pathIS6_EEvOT_
0000000000001bc0 T __ZNSt3__16vectorINS_12basic_stringIcNS_11char_traitsIcEENS_9allocatorIcEEEENS4_IS6_EEE26__swap_out_circular_bufferERNS_14__split_bufferIS6_RS7_EE
0000000000001560 T __ZNSt3__16vectorINS_12basic_stringIcNS_11char_traitsIcEENS_9allocatorIcEEEENS4_IS6_EEED1Ev
0000000000001580 T __ZNSt3__16vectorINS_12basic_stringIcNS_11char_traitsIcEENS_9allocatorIcEEEENS4_IS6_EEED2Ev
                 U __ZTVN4llvm11raw_ostreamE
                 U __ZTVN4llvm20circular_raw_ostreamE
0000000000006c38 s __ZTVN4llvm2cl11OptionValueIN12_GLOBAL__N_112DebugOnlyOptEEE
00000000000066b8 D __ZTVN4llvm2cl11OptionValueIbEE
0000000000006718 D __ZTVN4llvm2cl11OptionValueIjEE
0000000000006c58 s __ZTVN4llvm2cl15OptionValueBaseIN12_GLOBAL__N_112DebugOnlyOptELb1EEE
00000000000066d8 D __ZTVN4llvm2cl15OptionValueBaseIbLb0EEE
0000000000006738 D __ZTVN4llvm2cl15OptionValueBaseIjLb0EEE
00000000000066f8 D __ZTVN4llvm2cl15OptionValueCopyIbEE
0000000000006758 D __ZTVN4llvm2cl15OptionValueCopyIjEE
                 U __ZTVN4llvm2cl18GenericOptionValueE
0000000000006bd0 s __ZTVN4llvm2cl3optIN12_GLOBAL__N_112DebugOnlyOptELb1ENS0_6parserINSt3__112basic_stringIcNS5_11char_traitsIcEENS5_9allocatorIcEEEEEEEE
0000000000006650 D __ZTVN4llvm2cl3optIbLb1ENS0_6parserIbEEEE
                 U __ZTVN4llvm2cl3optIjLb0ENS0_6parserIjEEEE
                 U __ZTVN4llvm2cl6OptionE
                 U __ZTVN4llvm2cl6parserINSt3__112basic_stringIcNS2_11char_traitsIcEENS2_9allocatorIcEEEEEE
                 U __ZTVN4llvm2cl6parserIbEE
                 U __ZTVN4llvm2cl6parserIjEE
0000000000047268 b __ZZN4llvm4dbgsEvE7thestrm
0000000000000e50 t __ZZN4llvm4dbgsEvEN9dbgstreamC1Ev
0000000000001040 t __ZZN4llvm4dbgsEvEN9dbgstreamC2Ev
0000000000000e70 t __ZZN4llvm4dbgsEvEN9dbgstreamD1Ev
0000000000001390 t __ZZN4llvm4dbgsEvEN9dbgstreamD2Ev
                 U __ZdaPv
                 U __ZdlPv
                 U __Znam
                 U __Znwm
                 U ___assert_rtn
                 U ___cxa_atexit
                 U ___cxa_guard_acquire
                 U ___cxa_guard_release
0000000000006290 s ___cxx_global_var_init
0000000000006380 s ___cxx_global_var_init.2
0000000000006470 s ___cxx_global_var_init.5
                 U ___dso_handle
                 U ___stack_chk_fail
                 U ___stack_chk_guard
                 U _abort
                 U _free
                 U _memset
                 U _strlen

libLLVMSupport.a(DebugCounter.o):
000000000000a000 s __GLOBAL__sub_I_DebugCounter.cpp
0000000000074898 b __ZL18DebugCounterOption
0000000000074958 b __ZL2DC
0000000000000080 t __ZN12_GLOBAL__N_116DebugCounterListC1IJRA14_KcN4llvm2cl4descENS6_9MiscFlagsENS6_18NumOccurrencesFlagENS6_13LocationClassINS5_12DebugCounterEEEEEEDpOT_
0000000000005e50 t __ZN12_GLOBAL__N_116DebugCounterListC2IJRA14_KcN4llvm2cl4descENS6_9MiscFlagsENS6_18NumOccurrencesFlagENS6_13LocationClassINS5_12DebugCounterEEEEEEDpOT_
0000000000006060 t __ZN12_GLOBAL__N_116DebugCounterListD0Ev
00000000000000d0 t __ZN12_GLOBAL__N_116DebugCounterListD1Ev
0000000000002e50 t __ZN12_GLOBAL__N_116DebugCounterListD2Ev
0000000000006640 T __ZN4llvm11SmallPtrSetIPNS_2cl10SubCommandELj4EEC1Ev
0000000000006660 T __ZN4llvm11SmallPtrSetIPNS_2cl10SubCommandELj4EEC2Ev
0000000000003600 T __ZN4llvm11SmallPtrSetIPNS_2cl10SubCommandELj4EED1Ev
0000000000003620 T __ZN4llvm11SmallPtrSetIPNS_2cl10SubCommandELj4EED2Ev
                 U __ZN4llvm11raw_ostream5writeEPKcm
                 U __ZN4llvm11raw_ostream5writeEh
                 U __ZN4llvm11raw_ostream6indentEj
00000000000020a0 T __ZN4llvm11raw_ostreamlsENS_9StringRefE
0000000000001d90 T __ZN4llvm11raw_ostreamlsEPKc
                 U __ZN4llvm11raw_ostreamlsERKNS_15FormattedStringE
0000000000001e30 T __ZN4llvm11raw_ostreamlsERKNSt3__112basic_stringIcNS1_11char_traitsIcEENS1_9allocatorIcEEEE
0000000000007160 T __ZN4llvm11raw_ostreamlsEc
                 U __ZN4llvm11raw_ostreamlsEl
0000000000000060 T __ZN4llvm12DebugCounter8instanceEv
0000000000000250 T __ZN4llvm12DebugCounter9push_backERKNSt3__112basic_stringIcNS1_11char_traitsIcEENS1_9allocatorIcEEEE
0000000000007820 T __ZN4llvm12DebugCounterC1Ev
0000000000007840 T __ZN4llvm12DebugCounterC2Ev
0000000000008340 T __ZN4llvm12DebugCounterD1Ev
0000000000008360 T __ZN4llvm12DebugCounterD2Ev
00000000000088d0 T __ZN4llvm12DenseMapBaseINS_8DenseMapIjNSt3__112basic_stringIcNS2_11char_traitsIcEENS2_9allocatorIcEEEENS_12DenseMapInfoIjEENS_6detail12DenseMapPairIjS8_EEEEjS8_SA_SD_E10destroyAllEv
0000000000008030 T __ZN4llvm12DenseMapBaseINS_8DenseMapIjNSt3__112basic_stringIcNS2_11char_traitsIcEENS2_9allocatorIcEEEENS_12DenseMapInfoIjEENS_6detail12DenseMapPairIjS8_EEEEjS8_SA_SD_E10getBucketsEv
0000000000007650 T __ZN4llvm12DenseMapBaseINS_8DenseMapIjNSt3__112basic_stringIcNS2_11char_traitsIcEENS2_9allocatorIcEEEENS_12DenseMapInfoIjEENS_6detail12DenseMapPairIjS8_EEEEjS8_SA_SD_E11getEmptyKeyEv
00000000000076a0 T __ZN4llvm12DenseMapBaseINS_8DenseMapIjNSt3__112basic_stringIcNS2_11char_traitsIcEENS2_9allocatorIcEEEENS_12DenseMapInfoIjEENS_6detail12DenseMapPairIjS8_EEEEjS8_SA_SD_E12getHashValueERKj
0000000000008050 T __ZN4llvm12DenseMapBaseINS_8DenseMapIjNSt3__112basic_stringIcNS2_11char_traitsIcEENS2_9allocatorIcEEEENS_12DenseMapInfoIjEENS_6detail12DenseMapPairIjS8_EEEEjS8_SA_SD_E13getBucketsEndEv
0000000000007fd0 T __ZN4llvm12DenseMapBaseINS_8DenseMapIjNSt3__112basic_stringIcNS2_11char_traitsIcEENS2_9allocatorIcEEEENS_12DenseMapInfoIjEENS_6detail12DenseMapPairIjS8_EEEEjS8_SA_SD_E13setNumEntriesEj
0000000000007660 T __ZN4llvm12DenseMapBaseINS_8DenseMapIjNSt3__112basic_stringIcNS2_11char_traitsIcEENS2_9allocatorIcEEEENS_12DenseMapInfoIjEENS_6detail12DenseMapPairIjS8_EEEEjS8_SA_SD_E15getTombstoneKeyEv
0000000000008000 T __ZN4llvm12DenseMapBaseINS_8DenseMapIjNSt3__112basic_stringIcNS2_11char_traitsIcEENS2_9allocatorIcEEEENS_12DenseMapInfoIjEENS_6detail12DenseMapPairIjS8_EEEEjS8_SA_SD_E16setNumTombstonesEj
0000000000007e10 T __ZN4llvm12DenseMapBaseINS_8DenseMapIjNSt3__112basic_stringIcNS2_11char_traitsIcEENS2_9allocatorIcEEEENS_12DenseMapInfoIjEENS_6detail12DenseMapPairIjS8_EEEEjS8_SA_SD_E31getMinBucketToReserveForEntriesEj
0000000000007ee0 T __ZN4llvm12DenseMapBaseINS_8DenseMapIjNSt3__112basic_stringIcNS2_11char_traitsIcEENS2_9allocatorIcEEEENS_12DenseMapInfoIjEENS_6detail12DenseMapPairIjS8_EEEEjS8_SA_SD_E9initEmptyEv
0000000000008a00 T __ZN4llvm12DenseMapBaseINS_8DenseMapIjNSt3__14pairIllEENS_12DenseMapInfoIjEENS_6detail12DenseMapPairIjS4_EEEEjS4_S6_S9_E10destroyAllEv
0000000000007c70 T __ZN4llvm12DenseMapBaseINS_8DenseMapIjNSt3__14pairIllEENS_12DenseMapInfoIjEENS_6detail12DenseMapPairIjS4_EEEEjS4_S6_S9_E10getBucketsEv
0000000000007c60 T __ZN4llvm12DenseMapBaseINS_8DenseMapIjNSt3__14pairIllEENS_12DenseMapInfoIjEENS_6detail12DenseMapPairIjS4_EEEEjS4_S6_S9_E11getEmptyKeyEv
0000000000008b00 T __ZN4llvm12DenseMapBaseINS_8DenseMapIjNSt3__14pairIllEENS_12DenseMapInfoIjEENS_6detail12DenseMapPairIjS4_EEEEjS4_S6_S9_E11try_emplaceIJS4_EEENS3_INS_16DenseMapIteratorIjS4_S6_S9_Lb0EEEbEEOjDpOT_
00000000000091a0 T __ZN4llvm12DenseMapBaseINS_8DenseMapIjNSt3__14pairIllEENS_12DenseMapInfoIjEENS_6detail12DenseMapPairIjS4_EEEEjS4_S6_S9_E12getHashValueERKj
0000000000008e10 T __ZN4llvm12DenseMapBaseINS_8DenseMapIjNSt3__14pairIllEENS_12DenseMapInfoIjEENS_6detail12DenseMapPairIjS4_EEEEjS4_S6_S9_E12makeIteratorEPS9_SC_RNS_14DebugEpochBaseEb
0000000000007c90 T __ZN4llvm12DenseMapBaseINS_8DenseMapIjNSt3__14pairIllEENS_12DenseMapInfoIjEENS_6detail12DenseMapPairIjS4_EEEEjS4_S6_S9_E13getBucketsEndEv
0000000000007be0 T __ZN4llvm12DenseMapBaseINS_8DenseMapIjNSt3__14pairIllEENS_12DenseMapInfoIjEENS_6detail12DenseMapPairIjS4_EEEEjS4_S6_S9_E13setNumEntriesEj
0000000000008dc0 T __ZN4llvm12DenseMapBaseINS_8DenseMapIjNSt3__14pairIllEENS_12DenseMapInfoIjEENS_6detail12DenseMapPairIjS4_EEEEjS4_S6_S9_E15LookupBucketForIjEEbRKT_RPS9_
0000000000008ad0 T __ZN4llvm12DenseMapBaseINS_8DenseMapIjNSt3__14pairIllEENS_12DenseMapInfoIjEENS_6detail12DenseMapPairIjS4_EEEEjS4_S6_S9_E15getTombstoneKeyEv
0000000000008ee0 T __ZN4llvm12DenseMapBaseINS_8DenseMapIjNSt3__14pairIllEENS_12DenseMapInfoIjEENS_6detail12DenseMapPairIjS4_EEEEjS4_S6_S9_E16InsertIntoBucketIjJS4_EEEPS9_SD_OT_DpOT0_
0000000000007c10 T __ZN4llvm12DenseMapBaseINS_8DenseMapIjNSt3__14pairIllEENS_12DenseMapInfoIjEENS_6detail12DenseMapPairIjS4_EEEEjS4_S6_S9_E16setNumTombstonesEj
00000000000098d0 T __ZN4llvm12DenseMapBaseINS_8DenseMapIjNSt3__14pairIllEENS_12DenseMapInfoIjEENS_6detail12DenseMapPairIjS4_EEEEjS4_S6_S9_E18moveFromOldBucketsEPS9_SC_
0000000000009700 T __ZN4llvm12DenseMapBaseINS_8DenseMapIjNSt3__14pairIllEENS_12DenseMapInfoIjEENS_6detail12DenseMapPairIjS4_EEEEjS4_S6_S9_E19incrementNumEntriesEv
0000000000009520 T __ZN4llvm12DenseMapBaseINS_8DenseMapIjNSt3__14pairIllEENS_12DenseMapInfoIjEENS_6detail12DenseMapPairIjS4_EEEEjS4_S6_S9_E20InsertIntoBucketImplIjEEPS9_RKjRKT_SD_
0000000000009730 T __ZN4llvm12DenseMapBaseINS_8DenseMapIjNSt3__14pairIllEENS_12DenseMapInfoIjEENS_6detail12DenseMapPairIjS4_EEEEjS4_S6_S9_E22decrementNumTombstonesEv
00000000000079a0 T __ZN4llvm12DenseMapBaseINS_8DenseMapIjNSt3__14pairIllEENS_12DenseMapInfoIjEENS_6detail12DenseMapPairIjS4_EEEEjS4_S6_S9_E31getMinBucketToReserveForEntriesEj
00000000000096b0 T __ZN4llvm12DenseMapBaseINS_8DenseMapIjNSt3__14pairIllEENS_12DenseMapInfoIjEENS_6detail12DenseMapPairIjS4_EEEEjS4_S6_S9_E4growEj
0000000000002410 T __ZN4llvm12DenseMapBaseINS_8DenseMapIjNSt3__14pairIllEENS_12DenseMapInfoIjEENS_6detail12DenseMapPairIjS4_EEEEjS4_S6_S9_E6insertEONS3_IjS4_EE
0000000000007a70 T __ZN4llvm12DenseMapBaseINS_8DenseMapIjNSt3__14pairIllEENS_12DenseMapInfoIjEENS_6detail12DenseMapPairIjS4_EEEEjS4_S6_S9_E9initEmptyEv
0000000000007720 T __ZN4llvm12DenseMapInfoIjE11getEmptyKeyEv
0000000000007740 T __ZN4llvm12DenseMapInfoIjE12getHashValueERKj
0000000000007730 T __ZN4llvm12DenseMapInfoIjE15getTombstoneKeyEv
0000000000007670 T __ZN4llvm12DenseMapInfoIjE7isEqualERKjS3_
0000000000007b60 T __ZN4llvm12NextPowerOf2Ey
00000000000078e0 T __ZN4llvm12UniqueVectorINSt3__112basic_stringIcNS1_11char_traitsIcEENS1_9allocatorIcEEEEEC1Ev
00000000000080f0 T __ZN4llvm12UniqueVectorINSt3__112basic_stringIcNS1_11char_traitsIcEENS1_9allocatorIcEEEEEC2Ev
00000000000083b0 T __ZN4llvm12UniqueVectorINSt3__112basic_stringIcNS1_11char_traitsIcEENS1_9allocatorIcEEEEED1Ev
0000000000008410 T __ZN4llvm12UniqueVectorINSt3__112basic_stringIcNS1_11char_traitsIcEENS1_9allocatorIcEEEEED2Ev
0000000000002c20 T __ZN4llvm12left_justifyENS_9StringRefEj
00000000000000f0 T __ZN4llvm13ManagedStaticINS_12DebugCounterENS_14object_creatorIS1_EENS_14object_deleterIS1_EEEdeEv
0000000000009320 T __ZN4llvm14DebugEpochBase10HandleBaseC2EPKS0_
0000000000009680 T __ZN4llvm14DebugEpochBase14incrementEpochEv
00000000000077a0 T __ZN4llvm14object_creatorINS_12DebugCounterEE4callEv
00000000000077e0 T __ZN4llvm14object_deleterINS_12DebugCounterEE4callEPv
0000000000004b60 T __ZN4llvm15FormattedStringC1ENS_9StringRefEjNS0_13JustificationE
0000000000004ba0 T __ZN4llvm15FormattedStringC2ENS_9StringRefEjNS0_13JustificationE
00000000000066a0 T __ZN4llvm15SmallPtrSetImplIPNS_2cl10SubCommandEEC2EPPKvj
0000000000003640 T __ZN4llvm15SmallPtrSetImplIPNS_2cl10SubCommandEED2Ev
0000000000009430 T __ZN4llvm16DenseMapIteratorIjNSt3__14pairIllEENS_12DenseMapInfoIjEENS_6detail12DenseMapPairIjS3_EELb0EE23AdvancePastEmptyBucketsEv
0000000000009330 T __ZN4llvm16DenseMapIteratorIjNSt3__14pairIllEENS_12DenseMapInfoIjEENS_6detail12DenseMapPairIjS3_EELb0EE23RetreatPastEmptyBucketsEv
00000000000091e0 T __ZN4llvm16DenseMapIteratorIjNSt3__14pairIllEENS_12DenseMapInfoIjEENS_6detail12DenseMapPairIjS3_EELb0EEC1EPS8_SA_RKNS_14DebugEpochBaseEb
0000000000009230 T __ZN4llvm16DenseMapIteratorIjNSt3__14pairIllEENS_12DenseMapInfoIjEENS_6detail12DenseMapPairIjS3_EELb0EEC2EPS8_SA_RKNS_14DebugEpochBaseEb
0000000000009e10 T __ZN4llvm16DenseMapIteratorIjNSt3__14pairIllEENS_12DenseMapInfoIjEENS_6detail12DenseMapPairIjS3_EELb1EE23AdvancePastEmptyBucketsEv
0000000000009d10 T __ZN4llvm16DenseMapIteratorIjNSt3__14pairIllEENS_12DenseMapInfoIjEENS_6detail12DenseMapPairIjS3_EELb1EE23RetreatPastEmptyBucketsEv
0000000000009bd0 T __ZN4llvm16DenseMapIteratorIjNSt3__14pairIllEENS_12DenseMapInfoIjEENS_6detail12DenseMapPairIjS3_EELb1EEC1EPKS8_SB_RKNS_14DebugEpochBaseEb
0000000000009c20 T __ZN4llvm16DenseMapIteratorIjNSt3__14pairIllEENS_12DenseMapInfoIjEENS_6detail12DenseMapPairIjS3_EELb1EEC2EPKS8_SB_RKNS_14DebugEpochBaseEb
0000000000002d20 T __ZN4llvm16DenseMapIteratorIjNSt3__14pairIllEENS_12DenseMapInfoIjEENS_6detail12DenseMapPairIjS3_EELb1EEppEv
                 U __ZN4llvm18getAsSignedIntegerENS_9StringRefEjRx
00000000000066e0 T __ZN4llvm19SmallPtrSetImplBaseC2EPPKvj
0000000000003660 T __ZN4llvm19SmallPtrSetImplBaseD2Ev
0000000000004c00 T __ZN4llvm20shouldReverseIterateIjEEbv
                 U __ZN4llvm24DisableABIBreakingChecksE
00000000000067d0 T __ZN4llvm2cl10applicatorIA14_cE3optINS0_4listINSt3__112basic_stringIcNS6_11char_traitsIcEENS6_9allocatorIcEEEENS_12DebugCounterENS0_6parserISC_EEEEEEvNS_9StringRefERT_
0000000000006aa0 T __ZN4llvm2cl10applicatorINS0_13LocationClassINS_12DebugCounterEEEE3optINS0_4listINSt3__112basic_stringIcNS8_11char_traitsIcEENS8_9allocatorIcEEEES3_NS0_6parserISE_EEEEEEvRKS4_RT_
0000000000006a10 T __ZN4llvm2cl10applicatorINS0_18NumOccurrencesFlagEE3optES2_RNS0_6OptionE
0000000000006870 T __ZN4llvm2cl10applicatorINS0_4descEE3optINS0_4listINSt3__112basic_stringIcNS6_11char_traitsIcEENS6_9allocatorIcEEEENS_12DebugCounterENS0_6parserISC_EEEEEEvRKS2_RT_
0000000000006960 T __ZN4llvm2cl10applicatorINS0_9MiscFlagsEE3optES2_RNS0_6OptionE
                 U __ZN4llvm2cl12basic_parserINSt3__112basic_stringIcNS2_11char_traitsIcEENS2_9allocatorIcEEEEEC2ERNS0_6OptionE
0000000000006b10 T __ZN4llvm2cl12list_storageINSt3__112basic_stringIcNS2_11char_traitsIcEENS2_9allocatorIcEEEENS_12DebugCounterEE11setLocationERNS0_6OptionERS9_
0000000000003a50 T __ZN4llvm2cl12list_storageINSt3__112basic_stringIcNS2_11char_traitsIcEENS2_9allocatorIcEEEENS_12DebugCounterEE8addValueIS8_EEvRKT_
00000000000064f0 T __ZN4llvm2cl12list_storageINSt3__112basic_stringIcNS2_11char_traitsIcEENS2_9allocatorIcEEEENS_12DebugCounterEEC2Ev
0000000000005e00 T __ZN4llvm2cl13LocationClassINS_12DebugCounterEEC1ERS2_
0000000000005e30 T __ZN4llvm2cl13LocationClassINS_12DebugCounterEEC2ERS2_
                 U __ZN4llvm2cl15GeneralCategoryE
0000000000006ed0 T __ZN4llvm2cl17basic_parser_impl10initializeEv
0000000000004af0 T __ZN4llvm2cl17basic_parser_impl19getExtraOptionNamesERNS_15SmallVectorImplINS_9StringRefEEE
0000000000000000 T __ZN4llvm2cl4descC1ENS_9StringRefE
0000000000002e20 T __ZN4llvm2cl4descC2ENS_9StringRefE
00000000000033f0 T __ZN4llvm2cl4listINSt3__112basic_stringIcNS2_11char_traitsIcEENS2_9allocatorIcEEEENS_12DebugCounterENS0_6parserIS8_EEE10setDefaultEv
0000000000002f10 T __ZN4llvm2cl4listINSt3__112basic_stringIcNS2_11char_traitsIcEENS2_9allocatorIcEEEENS_12DebugCounterENS0_6parserIS8_EEE16handleOccurrenceEjNS_9StringRefESD_
0000000000003400 T __ZN4llvm2cl4listINSt3__112basic_stringIcNS2_11char_traitsIcEENS2_9allocatorIcEEEENS_12DebugCounterENS0_6parserIS8_EEE19getExtraOptionNamesERNS_15SmallVectorImplINS_9StringRefEEE
0000000000006600 T __ZN4llvm2cl4listINSt3__112basic_stringIcNS2_11char_traitsIcEENS2_9allocatorIcEEEENS_12DebugCounterENS0_6parserIS8_EEE4doneEv
0000000000005ef0 T __ZN4llvm2cl4listINSt3__112basic_stringIcNS2_11char_traitsIcEENS2_9allocatorIcEEEENS_12DebugCounterENS0_6parserIS8_EEEC2IJA14_cNS0_4descENS0_9MiscFlagsENS0_18NumOccurrencesFlagENS0_13LocationClassIS9_EEEEEDpRKT_
0000000000003340 T __ZN4llvm2cl4listINSt3__112basic_stringIcNS2_11char_traitsIcEENS2_9allocatorIcEEEENS_12DebugCounterENS0_6parserIS8_EEED0Ev
0000000000003320 T __ZN4llvm2cl4listINSt3__112basic_stringIcNS2_11char_traitsIcEENS2_9allocatorIcEEEENS_12DebugCounterENS0_6parserIS8_EEED1Ev
0000000000002e70 T __ZN4llvm2cl4listINSt3__112basic_stringIcNS2_11char_traitsIcEENS2_9allocatorIcEEEENS_12DebugCounterENS0_6parserIS8_EEED2Ev
0000000000006540 T __ZN4llvm2cl5applyINS0_4listINSt3__112basic_stringIcNS3_11char_traitsIcEENS3_9allocatorIcEEEENS_12DebugCounterENS0_6parserIS9_EEEEA14_cJNS0_4descENS0_9MiscFlagsENS0_18NumOccurrencesFlagENS0_13LocationClassISA_EEEEEvPT_RKT0_DpRKT1_
0000000000006a40 T __ZN4llvm2cl5applyINS0_4listINSt3__112basic_stringIcNS3_11char_traitsIcEENS3_9allocatorIcEEEENS_12DebugCounterENS0_6parserIS9_EEEENS0_13LocationClassISA_EEEEvPT_RKT0_
0000000000006990 T __ZN4llvm2cl5applyINS0_4listINSt3__112basic_stringIcNS3_11char_traitsIcEENS3_9allocatorIcEEEENS_12DebugCounterENS0_6parserIS9_EEEENS0_18NumOccurrencesFlagEJNS0_13LocationClassISA_EEEEEvPT_RKT0_DpRKT1_
0000000000006820 T __ZN4llvm2cl5applyINS0_4listINSt3__112basic_stringIcNS3_11char_traitsIcEENS3_9allocatorIcEEEENS_12DebugCounterENS0_6parserIS9_EEEENS0_4descEJNS0_9MiscFlagsENS0_18NumOccurrencesFlagENS0_13LocationClassISA_EEEEEvPT_RKT0_DpRKT1_
00000000000068a0 T __ZN4llvm2cl5applyINS0_4listINSt3__112basic_stringIcNS3_11char_traitsIcEENS3_9allocatorIcEEEENS_12DebugCounterENS0_6parserIS9_EEEENS0_9MiscFlagsEJNS0_18NumOccurrencesFlagENS0_13LocationClassISA_EEEEEvPT_RKT0_DpRKT1_
                 U __ZN4llvm2cl6Option11addArgumentEv
00000000000069d0 T __ZN4llvm2cl6Option11setMiscFlagENS0_9MiscFlagsE
0000000000003ad0 T __ZN4llvm2cl6Option11setPositionEj
                 U __ZN4llvm2cl6Option12printHelpStrENS_9StringRefEmm
                 U __ZN4llvm2cl6Option13addOccurrenceEjNS_9StringRefES2_b
0000000000006930 T __ZN4llvm2cl6Option14setDescriptionENS_9StringRefE
0000000000006a70 T __ZN4llvm2cl6Option21setNumOccurrencesFlagENS0_18NumOccurrencesFlagE
                 U __ZN4llvm2cl6Option5errorERKNS_5TwineENS_9StringRefE
                 U __ZN4llvm2cl6Option6anchorEv
                 U __ZN4llvm2cl6Option9setArgStrENS_9StringRefE
00000000000063f0 T __ZN4llvm2cl6OptionC2ENS0_18NumOccurrencesFlagENS0_12OptionHiddenE
0000000000002ee0 T __ZN4llvm2cl6OptionD2Ev
00000000000036c0 T __ZN4llvm2cl6parserINSt3__112basic_stringIcNS2_11char_traitsIcEENS2_9allocatorIcEEEEE5parseERNS0_6OptionENS_9StringRefESC_RS8_
0000000000006510 T __ZN4llvm2cl6parserINSt3__112basic_stringIcNS2_11char_traitsIcEENS2_9allocatorIcEEEEEC1ERNS0_6OptionE
0000000000006790 T __ZN4llvm2cl6parserINSt3__112basic_stringIcNS2_11char_traitsIcEENS2_9allocatorIcEEEEEC2ERNS0_6OptionE
0000000000000030 T __ZN4llvm2cl8locationINS_12DebugCounterEEENS0_13LocationClassIT_EERS4_
000000000000a010 D __ZN4llvm30VerifyDisableABIBreakingChecksE
                 U __ZN4llvm4dbgsEv
                 U __ZN4llvm4errsEv
                 U __ZN4llvm4outsEv
0000000000006bb0 T __ZN4llvm5TwineC1EPKc
0000000000006be0 T __ZN4llvm5TwineC2EPKc
0000000000008090 T __ZN4llvm6detail12DenseMapPairIjNSt3__112basic_stringIcNS2_11char_traitsIcEENS2_9allocatorIcEEEEE8getFirstEv
00000000000089a0 T __ZN4llvm6detail12DenseMapPairIjNSt3__112basic_stringIcNS2_11char_traitsIcEENS2_9allocatorIcEEEEE9getSecondEv
0000000000007cd0 T __ZN4llvm6detail12DenseMapPairIjNSt3__14pairIllEEE8getFirstEv
0000000000008ae0 T __ZN4llvm6detail12DenseMapPairIjNSt3__14pairIllEEE9getSecondEv
00000000000080b0 T __ZN4llvm8DenseMapIjNSt3__112basic_stringIcNS1_11char_traitsIcEENS1_9allocatorIcEEEENS_12DenseMapInfoIjEENS_6detail12DenseMapPairIjS7_EEE13setNumEntriesEj
0000000000007e70 T __ZN4llvm8DenseMapIjNSt3__112basic_stringIcNS1_11char_traitsIcEENS1_9allocatorIcEEEENS_12DenseMapInfoIjEENS_6detail12DenseMapPairIjS7_EEE15allocateBucketsEj
00000000000080d0 T __ZN4llvm8DenseMapIjNSt3__112basic_stringIcNS1_11char_traitsIcEENS1_9allocatorIcEEEENS_12DenseMapInfoIjEENS_6detail12DenseMapPairIjS7_EEE16setNumTombstonesEj
0000000000007da0 T __ZN4llvm8DenseMapIjNSt3__112basic_stringIcNS1_11char_traitsIcEENS1_9allocatorIcEEEENS_12DenseMapInfoIjEENS_6detail12DenseMapPairIjS7_EEE4initEj
00000000000078b0 T __ZN4llvm8DenseMapIjNSt3__112basic_stringIcNS1_11char_traitsIcEENS1_9allocatorIcEEEENS_12DenseMapInfoIjEENS_6detail12DenseMapPairIjS7_EEEC1Ej
0000000000007d70 T __ZN4llvm8DenseMapIjNSt3__112basic_stringIcNS1_11char_traitsIcEENS1_9allocatorIcEEEENS_12DenseMapInfoIjEENS_6detail12DenseMapPairIjS7_EEEC2Ej
00000000000083d0 T __ZN4llvm8DenseMapIjNSt3__112basic_stringIcNS1_11char_traitsIcEENS1_9allocatorIcEEEENS_12DenseMapInfoIjEENS_6detail12DenseMapPairIjS7_EEED1Ev
0000000000008890 T __ZN4llvm8DenseMapIjNSt3__112basic_stringIcNS1_11char_traitsIcEENS1_9allocatorIcEEEENS_12DenseMapInfoIjEENS_6detail12DenseMapPairIjS7_EEED2Ev
0000000000007cf0 T __ZN4llvm8DenseMapIjNSt3__14pairIllEENS_12DenseMapInfoIjEENS_6detail12DenseMapPairIjS3_EEE13setNumEntriesEj
0000000000007a00 T __ZN4llvm8DenseMapIjNSt3__14pairIllEENS_12DenseMapInfoIjEENS_6detail12DenseMapPairIjS3_EEE15allocateBucketsEj
0000000000007d10 T __ZN4llvm8DenseMapIjNSt3__14pairIllEENS_12DenseMapInfoIjEENS_6detail12DenseMapPairIjS3_EEE16setNumTombstonesEj
0000000000009780 T __ZN4llvm8DenseMapIjNSt3__14pairIllEENS_12DenseMapInfoIjEENS_6detail12DenseMapPairIjS3_EEE4growEj
0000000000007930 T __ZN4llvm8DenseMapIjNSt3__14pairIllEENS_12DenseMapInfoIjEENS_6detail12DenseMapPairIjS3_EEE4initEj
0000000000007880 T __ZN4llvm8DenseMapIjNSt3__14pairIllEENS_12DenseMapInfoIjEENS_6detail12DenseMapPairIjS3_EEEC1Ej
0000000000007900 T __ZN4llvm8DenseMapIjNSt3__14pairIllEENS_12DenseMapInfoIjEENS_6detail12DenseMapPairIjS3_EEEC2Ej
00000000000083f0 T __ZN4llvm8DenseMapIjNSt3__14pairIllEENS_12DenseMapInfoIjEENS_6detail12DenseMapPairIjS3_EEED1Ev
00000000000089c0 T __ZN4llvm8DenseMapIjNSt3__14pairIllEENS_12DenseMapInfoIjEENS_6detail12DenseMapPairIjS3_EEED2Ev
0000000000004b00 T __ZN4llvm9StringRefC1Ev
0000000000004b20 T __ZN4llvm9StringRefC2Ev
0000000000006090 t __ZNK12_GLOBAL__N_116DebugCounterList15printOptionInfoEm
0000000000007120 T __ZNK4llvm12DebugCounter12getCounterIdERKNSt3__112basic_stringIcNS1_11char_traitsIcEENS1_9allocatorIcEEEE
0000000000006f40 T __ZNK4llvm12DebugCounter14getCounterInfoEj
0000000000006f10 T __ZNK4llvm12DebugCounter3endEv
0000000000002df0 T __ZNK4llvm12DebugCounter4dumpEv
0000000000006ee0 T __ZNK4llvm12DebugCounter5beginEv
0000000000002510 T __ZNK4llvm12DebugCounter5printERNS_11raw_ostreamE
0000000000007610 T __ZNK4llvm12DenseMapBaseINS_8DenseMapIjNSt3__112basic_stringIcNS2_11char_traitsIcEENS2_9allocatorIcEEEENS_12DenseMapInfoIjEENS_6detail12DenseMapPairIjS8_EEEEjS8_SA_SD_E10getBucketsEv
0000000000007630 T __ZNK4llvm12DenseMapBaseINS_8DenseMapIjNSt3__112basic_stringIcNS2_11char_traitsIcEENS2_9allocatorIcEEEENS_12DenseMapInfoIjEENS_6detail12DenseMapPairIjS8_EEEEjS8_SA_SD_E13getNumBucketsEv
00000000000073e0 T __ZNK4llvm12DenseMapBaseINS_8DenseMapIjNSt3__112basic_stringIcNS2_11char_traitsIcEENS2_9allocatorIcEEEENS_12DenseMapInfoIjEENS_6detail12DenseMapPairIjS8_EEEEjS8_SA_SD_E15LookupBucketForIjEEbRKT_RPKSD_
00000000000072d0 T __ZNK4llvm12DenseMapBaseINS_8DenseMapIjNSt3__112basic_stringIcNS2_11char_traitsIcEENS2_9allocatorIcEEEENS_12DenseMapInfoIjEENS_6detail12DenseMapPairIjS8_EEEEjS8_SA_SD_E6lookupERKj
0000000000009180 T __ZNK4llvm12DenseMapBaseINS_8DenseMapIjNSt3__14pairIllEENS_12DenseMapInfoIjEENS_6detail12DenseMapPairIjS4_EEEEjS4_S6_S9_E10getBucketsEv
0000000000009b90 T __ZNK4llvm12DenseMapBaseINS_8DenseMapIjNSt3__14pairIllEENS_12DenseMapInfoIjEENS_6detail12DenseMapPairIjS4_EEEEjS4_S6_S9_E13getBucketsEndEv
0000000000007c40 T __ZNK4llvm12DenseMapBaseINS_8DenseMapIjNSt3__14pairIllEENS_12DenseMapInfoIjEENS_6detail12DenseMapPairIjS4_EEEEjS4_S6_S9_E13getNumBucketsEv
0000000000009690 T __ZNK4llvm12DenseMapBaseINS_8DenseMapIjNSt3__14pairIllEENS_12DenseMapInfoIjEENS_6detail12DenseMapPairIjS4_EEEEjS4_S6_S9_E13getNumEntriesEv
0000000000008f70 T __ZNK4llvm12DenseMapBaseINS_8DenseMapIjNSt3__14pairIllEENS_12DenseMapInfoIjEENS_6detail12DenseMapPairIjS4_EEEEjS4_S6_S9_E15LookupBucketForIjEEbRKT_RPKS9_
00000000000096e0 T __ZNK4llvm12DenseMapBaseINS_8DenseMapIjNSt3__14pairIllEENS_12DenseMapInfoIjEENS_6detail12DenseMapPairIjS4_EEEEjS4_S6_S9_E16getNumTombstonesEv
0000000000009ac0 T __ZNK4llvm12DenseMapBaseINS_8DenseMapIjNSt3__14pairIllEENS_12DenseMapInfoIjEENS_6detail12DenseMapPairIjS4_EEEEjS4_S6_S9_E17makeConstIteratorEPKS9_SD_RKNS_14DebugEpochBaseEb
0000000000002990 T __ZNK4llvm12DenseMapBaseINS_8DenseMapIjNSt3__14pairIllEENS_12DenseMapInfoIjEENS_6detail12DenseMapPairIjS4_EEEEjS4_S6_S9_E3endEv
00000000000028a0 T __ZNK4llvm12DenseMapBaseINS_8DenseMapIjNSt3__14pairIllEENS_12DenseMapInfoIjEENS_6detail12DenseMapPairIjS4_EEEEjS4_S6_S9_E5beginEv
0000000000009a90 T __ZNK4llvm12DenseMapBaseINS_8DenseMapIjNSt3__14pairIllEENS_12DenseMapInfoIjEENS_6detail12DenseMapPairIjS4_EEEEjS4_S6_S9_E5emptyEv
0000000000007260 T __ZNK4llvm12UniqueVectorINSt3__112basic_stringIcNS1_11char_traitsIcEENS1_9allocatorIcEEEEE3endEv
0000000000005dc0 T __ZNK4llvm12UniqueVectorINSt3__112basic_stringIcNS1_11char_traitsIcEENS1_9allocatorIcEEEEE4sizeEv
00000000000071f0 T __ZNK4llvm12UniqueVectorINSt3__112basic_stringIcNS1_11char_traitsIcEENS1_9allocatorIcEEEEE5beginEv
0000000000002160 T __ZNK4llvm12UniqueVectorINSt3__112basic_stringIcNS1_11char_traitsIcEENS1_9allocatorIcEEEEE5idForERKS7_
0000000000002c70 T __ZNK4llvm12UniqueVectorINSt3__112basic_stringIcNS1_11char_traitsIcEENS1_9allocatorIcEEEEEixEj
0000000000004be0 T __ZNK4llvm14DebugEpochBase10HandleBase14isHandleInSyncEv
0000000000009f00 T __ZNK4llvm14DebugEpochBase10HandleBase15getEpochAddressEv
0000000000002460 T __ZNK4llvm16DenseMapIteratorIjNSt3__14pairIllEENS_12DenseMapInfoIjEENS_6detail12DenseMapPairIjS3_EELb0EEptEv
0000000000002b70 T __ZNK4llvm16DenseMapIteratorIjNSt3__14pairIllEENS_12DenseMapInfoIjEENS_6detail12DenseMapPairIjS3_EELb1EEdeEv
00000000000029f0 T __ZNK4llvm16DenseMapIteratorIjNSt3__14pairIllEENS_12DenseMapInfoIjEENS_6detail12DenseMapPairIjS3_EELb1EEneERKS9_
                 U __ZNK4llvm17ManagedStaticBase21RegisterManagedStaticEPFPvvEPFvS1_E
00000000000036a0 T __ZNK4llvm19SmallPtrSetImplBase7isSmallEv
0000000000006ad0 T __ZNK4llvm2cl13LocationClassINS_12DebugCounterEE5applyINS0_4listINSt3__112basic_stringIcNS6_11char_traitsIcEENS6_9allocatorIcEEEES2_NS0_6parserISC_EEEEEEvRT_
                 U __ZNK4llvm2cl17basic_parser_impl14getOptionWidthERKNS0_6OptionE
                 U __ZNK4llvm2cl17basic_parser_impl15printOptionInfoERKNS0_6OptionEm
0000000000004ae0 T __ZNK4llvm2cl17basic_parser_impl27getValueExpectedFlagDefaultEv
00000000000068f0 T __ZNK4llvm2cl4desc5applyERNS0_6OptionE
0000000000003370 T __ZNK4llvm2cl4listINSt3__112basic_stringIcNS2_11char_traitsIcEENS2_9allocatorIcEEEENS_12DebugCounterENS0_6parserIS8_EEE14getOptionWidthEv
00000000000033a0 T __ZNK4llvm2cl4listINSt3__112basic_stringIcNS2_11char_traitsIcEENS2_9allocatorIcEEEENS_12DebugCounterENS0_6parserIS8_EEE15printOptionInfoEm
00000000000033d0 T __ZNK4llvm2cl4listINSt3__112basic_stringIcNS2_11char_traitsIcEENS2_9allocatorIcEEEENS_12DebugCounterENS0_6parserIS8_EEE16printOptionValueEmb
00000000000032f0 T __ZNK4llvm2cl4listINSt3__112basic_stringIcNS2_11char_traitsIcEENS2_9allocatorIcEEEENS_12DebugCounterENS0_6parserIS8_EEE27getValueExpectedFlagDefaultEv
0000000000006e00 T __ZNK4llvm5Twine10getLHSKindEv
0000000000006de0 T __ZNK4llvm5Twine10getRHSKindEv
0000000000006e70 T __ZNK4llvm5Twine6isNullEv
0000000000006ea0 T __ZNK4llvm5Twine7isEmptyEv
0000000000006c90 T __ZNK4llvm5Twine7isValidEv
0000000000006e20 T __ZNK4llvm5Twine8isBinaryEv
0000000000006da0 T __ZNK4llvm5Twine9isNullaryEv
00000000000076c0 T __ZNK4llvm6detail12DenseMapPairIjNSt3__112basic_stringIcNS2_11char_traitsIcEENS2_9allocatorIcEEEEE8getFirstEv
00000000000075f0 T __ZNK4llvm6detail12DenseMapPairIjNSt3__112basic_stringIcNS2_11char_traitsIcEENS2_9allocatorIcEEEEE9getSecondEv
00000000000091c0 T __ZNK4llvm6detail12DenseMapPairIjNSt3__14pairIllEEE8getFirstEv
00000000000076e0 T __ZNK4llvm8DenseMapIjNSt3__112basic_stringIcNS1_11char_traitsIcEENS1_9allocatorIcEEEENS_12DenseMapInfoIjEENS_6detail12DenseMapPairIjS7_EEE10getBucketsEv
0000000000007700 T __ZNK4llvm8DenseMapIjNSt3__112basic_stringIcNS1_11char_traitsIcEENS1_9allocatorIcEEEENS_12DenseMapInfoIjEENS_6detail12DenseMapPairIjS7_EEE13getNumBucketsEv
0000000000007d50 T __ZNK4llvm8DenseMapIjNSt3__14pairIllEENS_12DenseMapInfoIjEENS_6detail12DenseMapPairIjS3_EEE10getBucketsEv
0000000000007d30 T __ZNK4llvm8DenseMapIjNSt3__14pairIllEENS_12DenseMapInfoIjEENS_6detail12DenseMapPairIjS3_EEE13getNumBucketsEv
0000000000009760 T __ZNK4llvm8DenseMapIjNSt3__14pairIllEENS_12DenseMapInfoIjEENS_6detail12DenseMapPairIjS3_EEE13getNumEntriesEv
0000000000009a70 T __ZNK4llvm8DenseMapIjNSt3__14pairIllEENS_12DenseMapInfoIjEENS_6detail12DenseMapPairIjS3_EEE16getNumTombstonesEv
0000000000002020 T __ZNK4llvm9StringRef12getAsIntegerIlEENSt3__19enable_ifIXsr3std14numeric_limitsIT_EE9is_signedEbE4typeEjRS4_
0000000000004b40 T __ZNK4llvm9StringRef3endEv
0000000000003af0 T __ZNK4llvm9StringRef3strEv
0000000000001450 T __ZNK4llvm9StringRef5splitEc
00000000000023e0 T __ZNK4llvm9StringRefcvNSt3__112basic_stringIcNS1_11char_traitsIcEENS1_9allocatorIcEEEEEv
                 U __ZNKSt3__120__vector_base_commonILb1EE20__throw_length_errorEv
00000000000055e0 T __ZNKSt3__16__treeINS_12__value_typeINS_12basic_stringIcNS_11char_traitsIcEENS_9allocatorIcEEEEjEENS_19__map_value_compareIS7_S8_NS_4lessIS7_EELb1EEENS5_IS8_EEE13__lower_boundIS7_EENS_21__tree_const_iteratorIS8_PNS_11__tree_nodeIS8_PvEElEERKT_SK_PNS_15__tree_end_nodeIPNS_16__tree_node_baseISI_EEEE
0000000000004c10 T __ZNKSt3__16__treeINS_12__value_typeINS_12basic_stringIcNS_11char_traitsIcEENS_9allocatorIcEEEEjEENS_19__map_value_compareIS7_S8_NS_4lessIS7_EELb1EEENS5_IS8_EEE4findIS7_EENS_21__tree_const_iteratorIS8_PNS_11__tree_nodeIS8_PvEElEERKT_
0000000000004600 T __ZNKSt3__16vectorIjNS_9allocatorIjEEE8max_sizeEv
0000000000003c90 T __ZNSt3__111char_traitsIcE6assignERcRKc
0000000000005d70 T __ZNSt3__111char_traitsIcE7compareEPKcS3_m
                 U __ZNSt3__112basic_stringIcNS_11char_traitsIcEENS_9allocatorIcEEE6__initEPKcm
                 U __ZNSt3__112basic_stringIcNS_11char_traitsIcEENS_9allocatorIcEEE7reserveEm
                 U __ZNSt3__112basic_stringIcNS_11char_traitsIcEENS_9allocatorIcEEEC1ERKS5_
                 U __ZNSt3__112basic_stringIcNS_11char_traitsIcEENS_9allocatorIcEEED1Ev
00000000000084b0 T __ZNSt3__113__vector_baseINS_12basic_stringIcNS_11char_traitsIcEENS_9allocatorIcEEEENS4_IS6_EEED2Ev
0000000000003460 T __ZNSt3__113__vector_baseIjNS_9allocatorIjEEED2Ev
0000000000003fd0 T __ZNSt3__114__split_bufferIjRNS_9allocatorIjEEEC1EmmS3_
00000000000046f0 T __ZNSt3__114__split_bufferIjRNS_9allocatorIjEEEC2EmmS3_
00000000000045e0 T __ZNSt3__114__split_bufferIjRNS_9allocatorIjEEED1Ev
0000000000004910 T __ZNSt3__114__split_bufferIjRNS_9allocatorIjEEED2Ev
0000000000008470 T __ZNSt3__13mapINS_12basic_stringIcNS_11char_traitsIcEENS_9allocatorIcEEEEjNS_4lessIS6_EENS4_INS_4pairIKS6_jEEEEED1Ev
0000000000008670 T __ZNSt3__13mapINS_12basic_stringIcNS_11char_traitsIcEENS_9allocatorIcEEEEjNS_4lessIS6_EENS4_INS_4pairIKS6_jEEEEED2Ev
0000000000008850 T __ZNSt3__14pairIKNS_12basic_stringIcNS_11char_traitsIcEENS_9allocatorIcEEEEjED1Ev
0000000000008870 T __ZNSt3__14pairIKNS_12basic_stringIcNS_11char_traitsIcEENS_9allocatorIcEEEEjED2Ev
00000000000071d0 T __ZNSt3__14pairINS_12basic_stringIcNS_11char_traitsIcEENS_9allocatorIcEEEES6_ED1Ev
0000000000007760 T __ZNSt3__14pairINS_12basic_stringIcNS_11char_traitsIcEENS_9allocatorIcEEEES6_ED2Ev
0000000000008710 T __ZNSt3__16__treeINS_12__value_typeINS_12basic_stringIcNS_11char_traitsIcEENS_9allocatorIcEEEEjEENS_19__map_value_compareIS7_S8_NS_4lessIS7_EELb1EEENS5_IS8_EEE7destroyEPNS_11__tree_nodeIS8_PvEE
00000000000081e0 T __ZNSt3__16__treeINS_12__value_typeINS_12basic_stringIcNS_11char_traitsIcEENS_9allocatorIcEEEEjEENS_19__map_value_compareIS7_S8_NS_4lessIS7_EELb1EEENS5_IS8_EEEC1ERKSC_
0000000000008210 T __ZNSt3__16__treeINS_12__value_typeINS_12basic_stringIcNS_11char_traitsIcEENS_9allocatorIcEEEEjEENS_19__map_value_compareIS7_S8_NS_4lessIS7_EELb1EEENS5_IS8_EEEC2ERKSC_
0000000000008690 T __ZNSt3__16__treeINS_12__value_typeINS_12basic_stringIcNS_11char_traitsIcEENS_9allocatorIcEEEEjEENS_19__map_value_compareIS7_S8_NS_4lessIS7_EELb1EEENS5_IS8_EEED1Ev
00000000000086b0 T __ZNSt3__16__treeINS_12__value_typeINS_12basic_stringIcNS_11char_traitsIcEENS_9allocatorIcEEEEjEENS_19__map_value_compareIS7_S8_NS_4lessIS7_EELb1EEENS5_IS8_EEED2Ev
0000000000008450 T __ZNSt3__16vectorINS_12basic_stringIcNS_11char_traitsIcEENS_9allocatorIcEEEENS4_IS6_EEED1Ev
0000000000008490 T __ZNSt3__16vectorINS_12basic_stringIcNS_11char_traitsIcEENS_9allocatorIcEEEENS4_IS6_EEED2Ev
0000000000003cb0 T __ZNSt3__16vectorIjNS_9allocatorIjEEE21__push_back_slow_pathIRKjEEvOT_
0000000000004010 T __ZNSt3__16vectorIjNS_9allocatorIjEEE26__swap_out_circular_bufferERNS_14__split_bufferIjRS2_EE
0000000000002ec0 T __ZNSt3__16vectorIjNS_9allocatorIjEEED1Ev
0000000000003440 T __ZNSt3__16vectorIjNS_9allocatorIjEEED2Ev
000000000000a950 s __ZTVN12_GLOBAL__N_116DebugCounterListE
000000000000a018 D __ZTVN4llvm2cl4listINSt3__112basic_stringIcNS2_11char_traitsIcEENS2_9allocatorIcEEEENS_12DebugCounterENS0_6parserIS8_EEEE
                 U __ZTVN4llvm2cl6OptionE
                 U __ZTVN4llvm2cl6parserINSt3__112basic_stringIcNS2_11char_traitsIcEENS2_9allocatorIcEEEEEE
                 U __ZdlPv
                 U __Znwm
                 U ___assert_rtn
                 U ___cxa_atexit
0000000000009f10 s ___cxx_global_var_init
                 U ___dso_handle
                 U _abort
                 U _free
                 U _memchr
                 U _memcmp
                 U _memcpy
                 U _memset
                 U _strlen

libLLVMSupport.a(DeltaAlgorithm.o):
00000000000000a0 T __ZN4llvm14DeltaAlgorithm13GetTestResultERKNSt3__13setIjNS1_4lessIjEENS1_9allocatorIjEEEE
0000000000003f50 T __ZN4llvm14DeltaAlgorithm18UpdatedSearchStateERKNSt3__13setIjNS1_4lessIjEENS1_9allocatorIjEEEERKNS1_6vectorIS7_NS5_IS7_EEEE
0000000000003da0 T __ZN4llvm14DeltaAlgorithm3RunERKNSt3__13setIjNS1_4lessIjEENS1_9allocatorIjEEEE
00000000000015d0 T __ZN4llvm14DeltaAlgorithm5DeltaERKNSt3__13setIjNS1_4lessIjEENS1_9allocatorIjEEEERKNS1_6vectorIS7_NS5_IS7_EEEE
0000000000000260 T __ZN4llvm14DeltaAlgorithm5SplitERKNSt3__13setIjNS1_4lessIjEENS1_9allocatorIjEEEERNS1_6vectorIS7_NS5_IS7_EEEE
0000000000002440 T __ZN4llvm14DeltaAlgorithm6SearchERKNSt3__13setIjNS1_4lessIjEENS1_9allocatorIjEEEERKNS1_6vectorIS7_NS5_IS7_EEEERS7_
0000000000000070 T __ZN4llvm14DeltaAlgorithmD0Ev
0000000000000050 T __ZN4llvm14DeltaAlgorithmD1Ev
0000000000000000 T __ZN4llvm14DeltaAlgorithmD2Ev
                 U __ZNKSt3__120__vector_base_commonILb1EE20__throw_length_errorEv
0000000000006c20 T __ZNKSt3__16__treeINS_3setIjNS_4lessIjEENS_9allocatorIjEEEENS2_IS6_EENS4_IS6_EEE10__root_ptrEv
0000000000004500 T __ZNKSt3__16__treeINS_3setIjNS_4lessIjEENS_9allocatorIjEEEENS2_IS6_EENS4_IS6_EEE14__count_uniqueIS6_EEmRKT_
00000000000080c0 T __ZNKSt3__16__treeIjNS_4lessIjEENS_9allocatorIjEEE10__root_ptrEv
00000000000090b0 T __ZNKSt3__16vectorINS_3setIjNS_4lessIjEENS_9allocatorIjEEEENS4_IS6_EEE8max_sizeEv
000000000000dcb0 T __ZNSt3__111__tree_leafIPNS_16__tree_node_baseIPvEEEET_S5_
0000000000004340 T __ZNSt3__113__vector_baseINS_3setIjNS_4lessIjEENS_9allocatorIjEEEENS4_IS6_EEED2Ev
000000000000c430 T __ZNSt3__114__split_bufferINS_3setIjNS_4lessIjEENS_9allocatorIjEEEERNS4_IS6_EEE18__construct_at_endINS_11__wrap_iterIPKS6_EEEENS_9enable_ifIXsr21__is_forward_iteratorIT_EE5valueEvE4typeESG_SG_
0000000000008920 T __ZNSt3__114__split_bufferINS_3setIjNS_4lessIjEENS_9allocatorIjEEEERNS4_IS6_EEEC1EmmS8_
00000000000091a0 T __ZNSt3__114__split_bufferINS_3setIjNS_4lessIjEENS_9allocatorIjEEEERNS4_IS6_EEEC2EmmS8_
0000000000009090 T __ZNSt3__114__split_bufferINS_3setIjNS_4lessIjEENS_9allocatorIjEEEERNS4_IS6_EEED1Ev
00000000000093c0 T __ZNSt3__114__split_bufferINS_3setIjNS_4lessIjEENS_9allocatorIjEEEERNS4_IS6_EEED2Ev
000000000000ad00 T __ZNSt3__116__set_differenceIRNS_6__lessIjjEENS_21__tree_const_iteratorIjPNS_11__tree_nodeIjPvEElEES9_NS_15insert_iteratorINS_3setIjNS_4lessIjEENS_9allocatorIjEEEEEEEET2_T0_SJ_T1_SK_SI_T_
0000000000006ff0 T __ZNSt3__118__tree_left_rotateIPNS_16__tree_node_baseIPvEEEEvT_
00000000000070d0 T __ZNSt3__119__tree_right_rotateIPNS_16__tree_node_baseIPvEEEEvT_
0000000000004e30 T __ZNSt3__125__lexicographical_compareIRNS_6__lessIjjEENS_21__tree_const_iteratorIjPNS_11__tree_nodeIjPvEElEES9_EEbT0_SA_T1_SB_T_
0000000000006c70 T __ZNSt3__127__tree_balance_after_insertIPNS_16__tree_node_baseIPvEEEEvT_S5_
0000000000000030 T __ZNSt3__13setINS0_IjNS_4lessIjEENS_9allocatorIjEEEENS1_IS5_EENS3_IS5_EEED1Ev
0000000000003f70 T __ZNSt3__13setINS0_IjNS_4lessIjEENS_9allocatorIjEEEENS1_IS5_EENS3_IS5_EEED2Ev
00000000000015b0 T __ZNSt3__13setIjNS_4lessIjEENS_9allocatorIjEEED1Ev
0000000000004150 T __ZNSt3__13setIjNS_4lessIjEENS_9allocatorIjEEED2Ev
00000000000055e0 T __ZNSt3__16__treeINS_3setIjNS_4lessIjEENS_9allocatorIjEEEENS2_IS6_EENS4_IS6_EEE12__find_equalIS6_EERPNS_16__tree_node_baseIPvEERPNS_15__tree_end_nodeISE_EERKT_
0000000000006050 T __ZNSt3__16__treeINS_3setIjNS_4lessIjEENS_9allocatorIjEEEENS2_IS6_EENS4_IS6_EEE16__construct_nodeIJRKS6_EEENS_10unique_ptrINS_11__tree_nodeIS6_PvEENS_22__tree_node_destructorINS4_ISG_EEEEEEDpOT_
0000000000006b20 T __ZNSt3__16__treeINS_3setIjNS_4lessIjEENS_9allocatorIjEEEENS2_IS6_EENS4_IS6_EEE16__insert_node_atEPNS_15__tree_end_nodeIPNS_16__tree_node_baseIPvEEEERSE_SE_
0000000000005200 T __ZNSt3__16__treeINS_3setIjNS_4lessIjEENS_9allocatorIjEEEENS2_IS6_EENS4_IS6_EEE25__emplace_unique_key_argsIS6_JRKS6_EEENS_4pairINS_15__tree_iteratorIS6_PNS_11__tree_nodeIS6_PvEElEEbEERKT_DpOT0_
0000000000004010 T __ZNSt3__16__treeINS_3setIjNS_4lessIjEENS_9allocatorIjEEEENS2_IS6_EENS4_IS6_EEE7destroyEPNS_11__tree_nodeIS6_PvEE
0000000000003f90 T __ZNSt3__16__treeINS_3setIjNS_4lessIjEENS_9allocatorIjEEEENS2_IS6_EENS4_IS6_EEED1Ev
0000000000003fb0 T __ZNSt3__16__treeINS_3setIjNS_4lessIjEENS_9allocatorIjEEEENS2_IS6_EENS4_IS6_EEED2Ev
0000000000009b10 T __ZNSt3__16__treeIjNS_4lessIjEENS_9allocatorIjEEE12__find_equalIjEERPNS_16__tree_node_baseIPvEENS_21__tree_const_iteratorIjPNS_11__tree_nodeIjS8_EElEERPNS_15__tree_end_nodeISA_EESB_RKT_
00000000000076f0 T __ZNSt3__16__treeIjNS_4lessIjEENS_9allocatorIjEEE12__find_equalIjEERPNS_16__tree_node_baseIPvEERPNS_15__tree_end_nodeISA_EERKT_
000000000000a950 T __ZNSt3__16__treeIjNS_4lessIjEENS_9allocatorIjEEE13__move_assignERS5_NS_17integral_constantIbLb1EEE
000000000000d5a0 T __ZNSt3__16__treeIjNS_4lessIjEENS_9allocatorIjEEE14__assign_multiINS_21__tree_const_iteratorIjPNS_11__tree_nodeIjPvEElEEEEvT_SD_
000000000000def0 T __ZNSt3__16__treeIjNS_4lessIjEENS_9allocatorIjEEE15__emplace_multiIJRKjEEENS_15__tree_iteratorIjPNS_11__tree_nodeIjPvEElEEDpOT_
00000000000079c0 T __ZNSt3__16__treeIjNS_4lessIjEENS_9allocatorIjEEE16__construct_nodeIJRKjEEENS_10unique_ptrINS_11__tree_nodeIjPvEENS_22__tree_node_destructorINS3_ISC_EEEEEEDpOT_
000000000000dd10 T __ZNSt3__16__treeIjNS_4lessIjEENS_9allocatorIjEEE16__find_leaf_highERPNS_15__tree_end_nodeIPNS_16__tree_node_baseIPvEEEERKj
0000000000007fc0 T __ZNSt3__16__treeIjNS_4lessIjEENS_9allocatorIjEEE16__insert_node_atEPNS_15__tree_end_nodeIPNS_16__tree_node_baseIPvEEEERSA_SA_
000000000000dc20 T __ZNSt3__16__treeIjNS_4lessIjEENS_9allocatorIjEEE19__node_insert_multiEPNS_11__tree_nodeIjPvEE
0000000000007310 T __ZNSt3__16__treeIjNS_4lessIjEENS_9allocatorIjEEE25__emplace_unique_key_argsIjJRKjEEENS_4pairINS_15__tree_iteratorIjPNS_11__tree_nodeIjPvEElEEbEERKT_DpOT0_
00000000000097b0 T __ZNSt3__16__treeIjNS_4lessIjEENS_9allocatorIjEEE30__emplace_hint_unique_key_argsIjJRKjEEENS_15__tree_iteratorIjPNS_11__tree_nodeIjPvEElEENS_21__tree_const_iteratorIjSD_lEERKT_DpOT0_
00000000000041f0 T __ZNSt3__16__treeIjNS_4lessIjEENS_9allocatorIjEEE7destroyEPNS_11__tree_nodeIjPvEE
000000000000db30 T __ZNSt3__16__treeIjNS_4lessIjEENS_9allocatorIjEEE8__detachEPNS_11__tree_nodeIjPvEE
000000000000d9f0 T __ZNSt3__16__treeIjNS_4lessIjEENS_9allocatorIjEEE8__detachEv
000000000000a670 T __ZNSt3__16__treeIjNS_4lessIjEENS_9allocatorIjEEEC1EOS5_
00000000000071b0 T __ZNSt3__16__treeIjNS_4lessIjEENS_9allocatorIjEEEC1ERKS2_
00000000000095a0 T __ZNSt3__16__treeIjNS_4lessIjEENS_9allocatorIjEEEC1ERKS5_
000000000000a6a0 T __ZNSt3__16__treeIjNS_4lessIjEENS_9allocatorIjEEEC2EOS5_
00000000000071e0 T __ZNSt3__16__treeIjNS_4lessIjEENS_9allocatorIjEEEC2ERKS2_
00000000000095d0 T __ZNSt3__16__treeIjNS_4lessIjEENS_9allocatorIjEEEC2ERKS5_
0000000000004170 T __ZNSt3__16__treeIjNS_4lessIjEENS_9allocatorIjEEED1Ev
0000000000004190 T __ZNSt3__16__treeIjNS_4lessIjEENS_9allocatorIjEEED2Ev
000000000000a910 T __ZNSt3__16__treeIjNS_4lessIjEENS_9allocatorIjEEEaSEOS5_
000000000000d3e0 T __ZNSt3__16__treeIjNS_4lessIjEENS_9allocatorIjEEEaSERKS5_
000000000000c160 T __ZNSt3__16vectorINS_3setIjNS_4lessIjEENS_9allocatorIjEEEENS4_IS6_EEE12__move_rangeEPS6_S9_S9_
000000000000ba30 T __ZNSt3__16vectorINS_3setIjNS_4lessIjEENS_9allocatorIjEEEENS4_IS6_EEE18__construct_at_endINS_11__wrap_iterIPKS6_EEEENS_9enable_ifIXsr21__is_forward_iteratorIT_EE5valueEvE4typeESF_SF_m
0000000000008110 T __ZNSt3__16vectorINS_3setIjNS_4lessIjEENS_9allocatorIjEEEENS4_IS6_EEE21__push_back_slow_pathIRKS6_EEvOT_
0000000000008960 T __ZNSt3__16vectorINS_3setIjNS_4lessIjEENS_9allocatorIjEEEENS4_IS6_EEE26__swap_out_circular_bufferERNS_14__split_bufferIS6_RS7_EE
000000000000cab0 T __ZNSt3__16vectorINS_3setIjNS_4lessIjEENS_9allocatorIjEEEENS4_IS6_EEE26__swap_out_circular_bufferERNS_14__split_bufferIS6_RS7_EEPS6_
0000000000003410 T __ZNSt3__16vectorINS_3setIjNS_4lessIjEENS_9allocatorIjEEEENS4_IS6_EEE6insertINS_11__wrap_iterIPKS6_EEEENS_9enable_ifIXaasr21__is_forward_iteratorIT_EE5valuesr16is_constructibleIS6_NS_15iterator_traitsISF_E9referenceEEE5valueENSA_IPS6_EEE4typeESD_SF_SF_
00000000000033f0 T __ZNSt3__16vectorINS_3setIjNS_4lessIjEENS_9allocatorIjEEEENS4_IS6_EEED1Ev
0000000000004320 T __ZNSt3__16vectorINS_3setIjNS_4lessIjEENS_9allocatorIjEEEENS4_IS6_EEED2Ev
000000000000e218 S __ZTVN4llvm14DeltaAlgorithmE
                 U __ZdlPv
                 U __Znwm
                 U ___cxa_pure_virtual
                 U _abort

libLLVMSupport.a(DynamicLibrary.o):
00000000000016d0 T _LLVMAddSymbol
0000000000001640 T _LLVMLoadLibraryPermanently
00000000000016b0 T _LLVMSearchForAddressOfSymbol
00000000000005a0 t __ZL8DoSearchPKc
000000000002c6f8 b __ZN12_GLOBAL__N_1L12SymbolsMutexE
000000000002c728 b __ZN12_GLOBAL__N_1L13OpenedHandlesE
000000000002c710 b __ZN12_GLOBAL__N_1L15ExplicitSymbolsE
0000000000002dc0 T __ZN4llvm10make_rangeINSt3__116reverse_iteratorINS1_11__wrap_iterIPPvEEEEEENS_14iterator_rangeIT_EES9_S9_
0000000000000630 T __ZN4llvm13ManagedStaticINS_3sys10SmartMutexILb1EEENS_14object_creatorIS3_EENS_14object_deleterIS3_EEEdeEv
0000000000000a40 T __ZN4llvm13ManagedStaticINS_3sys14DynamicLibrary9HandleSetENS_14object_creatorIS3_EENS_14object_deleterIS3_EEEdeEv
0000000000001020 T __ZN4llvm13ManagedStaticINS_3sys14DynamicLibrary9HandleSetENS_14object_creatorIS3_EENS_14object_deleterIS3_EEEptEv
00000000000007c0 T __ZN4llvm13ManagedStaticINS_9StringMapIPvNS_15MallocAllocatorEEENS_14object_creatorIS4_EENS_14object_deleterIS4_EEEdeEv
0000000000001370 T __ZN4llvm13ManagedStaticINS_9StringMapIPvNS_15MallocAllocatorEEENS_14object_creatorIS4_EENS_14object_deleterIS4_EEEptEv
                 U __ZN4llvm13StringMapImpl11RehashTableEj
                 U __ZN4llvm13StringMapImpl15LookupBucketForENS_9StringRefE
0000000000003400 T __ZN4llvm13StringMapImpl15getTombstoneValEv
00000000000032b0 T __ZN4llvm13StringMapImplC2Ej
00000000000038b0 T __ZN4llvm14StringMapEntryIPvE6CreateINS_15MallocAllocatorEJEEEPS2_NS_9StringRefERT_DpOT0_
0000000000003420 T __ZN4llvm14StringMapEntryIPvE7DestroyINS_15MallocAllocatorEEEvRT_
0000000000003ab0 T __ZN4llvm14StringMapEntryIPvEC1Ej
0000000000003b00 T __ZN4llvm14StringMapEntryIPvEC2Ej
0000000000002e40 T __ZN4llvm14iterator_rangeINSt3__116reverse_iteratorINS1_11__wrap_iterIPPvEEEEEC1ES7_S7_
0000000000002e80 T __ZN4llvm14iterator_rangeINSt3__116reverse_iteratorINS1_11__wrap_iterIPPvEEEEEC2ES7_S7_
0000000000002ee0 T __ZN4llvm14object_creatorINS_3sys10SmartMutexILb1EEEE4callEv
0000000000003b60 T __ZN4llvm14object_creatorINS_3sys14DynamicLibrary9HandleSetEE4callEv
0000000000003200 T __ZN4llvm14object_creatorINS_9StringMapIPvNS_15MallocAllocatorEEEE4callEv
0000000000002f10 T __ZN4llvm14object_deleterINS_3sys10SmartMutexILb1EEEE4callEPv
0000000000003b90 T __ZN4llvm14object_deleterINS_3sys14DynamicLibrary9HandleSetEE4callEPv
0000000000003230 T __ZN4llvm14object_deleterINS_9StringMapIPvNS_15MallocAllocatorEEEE4callES2_
0000000000003480 T __ZN4llvm15MallocAllocator10DeallocateEPKvm
0000000000003a80 T __ZN4llvm15MallocAllocator8AllocateEmm
0000000000003a00 T __ZN4llvm17StringMapIterBaseINS_17StringMapIteratorIPvEENS_14StringMapEntryIS2_EEE23AdvancePastEmptyBucketsEv
00000000000039c0 T __ZN4llvm17StringMapIterBaseINS_17StringMapIteratorIPvEENS_14StringMapEntryIS2_EEEC2EPPNS_18StringMapEntryBaseEb
0000000000003870 T __ZN4llvm17StringMapIteratorIPvEC1EPPNS_18StringMapEntryBaseEb
0000000000003980 T __ZN4llvm17StringMapIteratorIPvEC2EPPNS_18StringMapEntryBaseEb
0000000000003b40 T __ZN4llvm18StringMapEntryBaseC2Ej
00000000000014b0 T __ZN4llvm20iterator_facade_baseINS_17StringMapIteratorIPvEENSt3__120forward_iterator_tagENS_14StringMapEntryIS2_EElPS7_RS7_EptEv
                 U __ZN4llvm21llvm_is_multithreadedEv
                 U __ZN4llvm22report_bad_alloc_errorEPKcb
                 U __ZN4llvm24DisableABIBreakingChecksE
0000000000003cd8 D __ZN4llvm30VerifyDisableABIBreakingChecksE
0000000000000580 T __ZN4llvm31SearchForAddressOfSpecialSymbolEPKc
0000000000003040 T __ZN4llvm3sys10SmartMutexILb1EE4lockEv
0000000000003130 T __ZN4llvm3sys10SmartMutexILb1EE6unlockEv
0000000000002f50 T __ZN4llvm3sys10SmartMutexILb1EEC1Eb
0000000000002f80 T __ZN4llvm3sys10SmartMutexILb1EEC2Eb
0000000000002fd0 T __ZN4llvm3sys10SmartMutexILb1EED1Ev
0000000000002ff0 T __ZN4llvm3sys10SmartMutexILb1EED2Ev
000000000002c6f0 S __ZN4llvm3sys14DynamicLibrary11SearchOrderE
0000000000001040 T __ZN4llvm3sys14DynamicLibrary18getAddressOfSymbolEPKc
0000000000000f80 T __ZN4llvm3sys14DynamicLibrary19addPermanentLibraryEPvPNSt3__112basic_stringIcNS3_11char_traitsIcEENS3_9allocatorIcEEEE
00000000000009a0 T __ZN4llvm3sys14DynamicLibrary19getPermanentLibraryEPKcPNSt3__112basic_stringIcNS4_11char_traitsIcEENS4_9allocatorIcEEEE
0000000000001670 T __ZN4llvm3sys14DynamicLibrary22LoadLibraryPermanentlyEPKcPNSt3__112basic_stringIcNS4_11char_traitsIcEENS4_9allocatorIcEEEE
00000000000010d0 T __ZN4llvm3sys14DynamicLibrary24SearchForAddressOfSymbolEPKc
000000000002c6f4 S __ZN4llvm3sys14DynamicLibrary7InvalidE
00000000000005b0 T __ZN4llvm3sys14DynamicLibrary9AddSymbolENS_9StringRefEPv
0000000000000ba0 T __ZN4llvm3sys14DynamicLibrary9HandleSet10AddLibraryEPvbb
0000000000001920 T __ZN4llvm3sys14DynamicLibrary9HandleSet4FindEPv
0000000000000550 T __ZN4llvm3sys14DynamicLibrary9HandleSet5DLSymEPvPKc
00000000000004b0 T __ZN4llvm3sys14DynamicLibrary9HandleSet6DLOpenEPKcPNSt3__112basic_stringIcNS5_11char_traitsIcEENS5_9allocatorIcEEEE
00000000000014d0 T __ZN4llvm3sys14DynamicLibrary9HandleSet6LookupEPKcNS1_14SearchOrderingE
0000000000000530 T __ZN4llvm3sys14DynamicLibrary9HandleSet7DLCloseEPv
0000000000002970 T __ZN4llvm3sys14DynamicLibrary9HandleSet9LibLookupEPKcNS1_14SearchOrderingE
0000000000003bd0 T __ZN4llvm3sys14DynamicLibrary9HandleSetC1Ev
0000000000003bf0 T __ZN4llvm3sys14DynamicLibrary9HandleSetC2Ev
0000000000000490 T __ZN4llvm3sys14DynamicLibrary9HandleSetD1Ev
0000000000000000 T __ZN4llvm3sys14DynamicLibrary9HandleSetD2Ev
0000000000000f50 T __ZN4llvm3sys14DynamicLibraryC1EPv
0000000000002950 T __ZN4llvm3sys14DynamicLibraryC2EPv
0000000000000790 T __ZN4llvm3sys15SmartScopedLockILb1EEC1ERNS0_10SmartMutexILb1EEE
0000000000003010 T __ZN4llvm3sys15SmartScopedLockILb1EEC2ERNS0_10SmartMutexILb1EEE
0000000000000980 T __ZN4llvm3sys15SmartScopedLockILb1EED1Ev
0000000000003100 T __ZN4llvm3sys15SmartScopedLockILb1EED2Ev
                 U __ZN4llvm3sys9MutexImpl7acquireEv
                 U __ZN4llvm3sys9MutexImpl7releaseEv
                 U __ZN4llvm3sys9MutexImplC1Eb
                 U __ZN4llvm3sys9MutexImplD1Ev
0000000000000200 T __ZN4llvm7reverseIRNSt3__16vectorIPvNS1_9allocatorIS3_EEEEEEDTcl10make_rangecldtfp_6rbeginEcldtfp_4rendEEEOT_PNS1_9enable_ifIXsr10has_rbeginIS9_EE5valueEvE4typeE
00000000000034b0 T __ZN4llvm9StringMapIPvNS_15MallocAllocatorEE11try_emplaceIJEEENSt3__14pairINS_17StringMapIteratorIS1_EEbEENS_9StringRefEDpOT_
0000000000001470 T __ZN4llvm9StringMapIPvNS_15MallocAllocatorEE3endEv
0000000000001390 T __ZN4llvm9StringMapIPvNS_15MallocAllocatorEE4findENS_9StringRefE
0000000000003270 T __ZN4llvm9StringMapIPvNS_15MallocAllocatorEEC1Ev
0000000000003290 T __ZN4llvm9StringMapIPvNS_15MallocAllocatorEEC2Ev
00000000000032f0 T __ZN4llvm9StringMapIPvNS_15MallocAllocatorEED1Ev
0000000000003310 T __ZN4llvm9StringMapIPvNS_15MallocAllocatorEED2Ev
0000000000000920 T __ZN4llvm9StringMapIPvNS_15MallocAllocatorEEixENS_9StringRefE
00000000000033e0 T __ZNK4llvm13StringMapImpl5emptyEv
                 U __ZNK4llvm13StringMapImpl7FindKeyENS_9StringRefE
0000000000003ae0 T __ZNK4llvm14StringMapEntryIPvE10getKeyDataEv
0000000000000440 T __ZNK4llvm14iterator_rangeINSt3__116reverse_iteratorINS1_11__wrap_iterIPPvEEEEE3endEv
0000000000000410 T __ZNK4llvm14iterator_rangeINSt3__116reverse_iteratorINS1_11__wrap_iterIPPvEEEEE5beginEv
00000000000012c0 T __ZNK4llvm17ManagedStaticBase13isConstructedEv
                 U __ZNK4llvm17ManagedStaticBase21RegisterManagedStaticEPFPvvEPFvS1_E
0000000000003c90 T __ZNK4llvm17StringMapIterBaseINS_17StringMapIteratorIPvEENS_14StringMapEntryIS2_EEEeqERKS3_
0000000000003cc0 T __ZNK4llvm17StringMapIteratorIPvEdeEv
0000000000003470 T __ZNK4llvm18StringMapEntryBase12getKeyLengthEv
0000000000001430 T __ZNK4llvm20iterator_facade_baseINS_17StringMapIteratorIPvEENSt3__120forward_iterator_tagENS_14StringMapEntryIS2_EElPS7_RS7_EneERKS3_
00000000000010a0 T __ZNK4llvm3sys14DynamicLibrary7isValidEv
                 U __ZNKSt3__120__vector_base_commonILb1EE20__throw_length_errorEv
0000000000002470 T __ZNKSt3__16vectorIPvNS_9allocatorIS1_EEE8max_sizeEv
                 U __ZNSt3__112basic_stringIcNS_11char_traitsIcEENS_9allocatorIcEEE6assignEPKc
0000000000001780 T __ZNSt3__113__vector_baseIPvNS_9allocatorIS1_EEED2Ev
0000000000001e40 T __ZNSt3__114__split_bufferIPvRNS_9allocatorIS1_EEEC1EmmS4_
0000000000002560 T __ZNSt3__114__split_bufferIPvRNS_9allocatorIS1_EEEC2EmmS4_
0000000000002450 T __ZNSt3__114__split_bufferIPvRNS_9allocatorIS1_EEED1Ev
0000000000002780 T __ZNSt3__114__split_bufferIPvRNS_9allocatorIS1_EEED2Ev
0000000000001b20 T __ZNSt3__16vectorIPvNS_9allocatorIS1_EEE21__push_back_slow_pathIRKS1_EEvOT_
0000000000001e80 T __ZNSt3__16vectorIPvNS_9allocatorIS1_EEE26__swap_out_circular_bufferERNS_14__split_bufferIS1_RS3_EE
0000000000000470 T __ZNSt3__16vectorIPvNS_9allocatorIS1_EEED1Ev
0000000000001760 T __ZNSt3__16vectorIPvNS_9allocatorIS1_EEED2Ev
                 U __ZdlPv
                 U __Znwm
                 U ___assert_rtn
                 U _abort
                 U _dlclose
                 U _dlerror
                 U _dlopen
                 U _dlsym
                 U _free
                 U _malloc
                 U _memcpy
                 U _strlen

libLLVMSupport.a(Errno.o):
0000000000000030 T __ZN4llvm3sys8StrErrorEi
0000000000000000 T __ZN4llvm3sys8StrErrorEv
                 U __ZNSt3__112basic_stringIcNS_11char_traitsIcEENS_9allocatorIcEEE6assignEPKc
                 U __ZNSt3__112basic_stringIcNS_11char_traitsIcEENS_9allocatorIcEEED1Ev
                 U ___error
                 U ___stack_chk_fail
                 U ___stack_chk_guard
                 U _memset
                 U _strerror_r

libLLVMSupport.a(Error.o):
000000000004c388 b __ZL13ErrorErrorCat
0000000000009540 t __ZN12_GLOBAL__N_118ErrorErrorCategoryC1Ev
0000000000009560 t __ZN12_GLOBAL__N_118ErrorErrorCategoryC2Ev
00000000000095c0 t __ZN12_GLOBAL__N_118ErrorErrorCategoryD0Ev
00000000000095a0 t __ZN12_GLOBAL__N_118ErrorErrorCategoryD1Ev
00000000000097c0 t __ZN12_GLOBAL__N_118ErrorErrorCategoryD2Ev
000000000004c383 S __ZN4llvm11StringError2IDE
0000000000000d10 T __ZN4llvm11StringErrorC1ERKNS_5TwineENSt3__110error_codeE
0000000000000c60 T __ZN4llvm11StringErrorC2ERKNS_5TwineENSt3__110error_codeE
00000000000016b0 T __ZN4llvm11StringErrorD0Ev
0000000000001690 T __ZN4llvm11StringErrorD1Ev
00000000000025d0 T __ZN4llvm11StringErrorD2Ev
0000000000000960 T __ZN4llvm11make_uniqueINS_7ECErrorEJS1_EEENSt3__19enable_ifIXntsr3std8is_arrayIT_EE5valueENS2_10unique_ptrIS4_NS2_14default_deleteIS4_EEEEE4typeEDpOT0_
                 U __ZN4llvm11raw_ostream14flush_nonemptyEv
00000000000020d0 T __ZN4llvm11raw_ostream5flushEv
                 U __ZN4llvm11raw_ostream5writeEPKcm
0000000000001d60 T __ZN4llvm11raw_ostreamC2Eb
0000000000002510 T __ZN4llvm11raw_ostreamlsENS_9StringRefE
0000000000002470 T __ZN4llvm11raw_ostreamlsEPKc
0000000000000d80 T __ZN4llvm11raw_ostreamlsERKNSt3__112basic_stringIcNS1_11char_traitsIcEENS1_9allocatorIcEEEE
0000000000001900 T __ZN4llvm12ErrorSuccessC1Ev
0000000000001920 T __ZN4llvm12ErrorSuccessC2Ev
0000000000000940 T __ZN4llvm12ErrorSuccessD1Ev
0000000000001980 T __ZN4llvm12ErrorSuccessD2Ev
00000000000098f0 t __ZN4llvm12handleErrorsIJZNS_16errorToErrorCodeENS_5ErrorEE3$_1EEES1_S1_DpOT_
0000000000002670 t __ZN4llvm12handleErrorsIJZNS_21logAllUnhandledErrorsENS_5ErrorERNS_11raw_ostreamENS_5TwineEE3$_0EEES1_S1_DpOT_
000000000004c380 S __ZN4llvm13ErrorInfoBase2IDE
0000000000000000 T __ZN4llvm13ErrorInfoBase6anchorEv
0000000000002110 T __ZN4llvm13ErrorInfoBase7classIDEv
00000000000098d0 T __ZN4llvm13ErrorInfoBaseC2ERKS0_
0000000000001b60 T __ZN4llvm13ErrorInfoBaseC2Ev
00000000000011e0 T __ZN4llvm13ErrorInfoBaseD0Ev
00000000000011c0 T __ZN4llvm13ErrorInfoBaseD1Ev
0000000000001bf0 T __ZN4llvm13ErrorInfoBaseD2Ev
0000000000000220 t __ZN4llvm13ManagedStaticIN12_GLOBAL__N_118ErrorErrorCategoryENS_14object_creatorIS2_EENS_14object_deleterIS2_EEEdeEv
00000000000094c0 t __ZN4llvm14object_creatorIN12_GLOBAL__N_118ErrorErrorCategoryEE4callEv
0000000000009500 t __ZN4llvm14object_deleterIN12_GLOBAL__N_118ErrorErrorCategoryEE4callEPv
0000000000000c00 t __ZN4llvm15handleAllErrorsIJZNS_16errorToErrorCodeENS_5ErrorEE3$_1EEEvS1_DpOT_
0000000000000110 t __ZN4llvm15handleAllErrorsIJZNS_21logAllUnhandledErrorsENS_5ErrorERNS_11raw_ostreamENS_5TwineEE3$_0EEEvS1_DpOT_
00000000000091d0 T __ZN4llvm15handleErrorImplENSt3__110unique_ptrINS_13ErrorInfoBaseENS0_14default_deleteIS2_EEEE
000000000000a2c0 t __ZN4llvm15handleErrorImplIZNS_16errorToErrorCodeENS_5ErrorEE3$_1JEEES1_NSt3__110unique_ptrINS_13ErrorInfoBaseENS3_14default_deleteIS5_EEEEOT_DpOT0_
00000000000048b0 t __ZN4llvm15handleErrorImplIZNS_21logAllUnhandledErrorsENS_5ErrorERNS_11raw_ostreamENS_5TwineEE3$_0JEEES1_NSt3__110unique_ptrINS_13ErrorInfoBaseENS6_14default_deleteIS8_EEEEOT_DpOT0_
00000000000003e0 T __ZN4llvm16errorCodeToErrorENSt3__110error_codeE
0000000000000ab0 T __ZN4llvm16errorToErrorCodeENS_5ErrorE
000000000000a840 t __ZN4llvm18ErrorHandlerTraitsIRFvRNS_13ErrorInfoBaseEEE5applyIZNS_16errorToErrorCodeENS_5ErrorEE3$_1EES7_OT_NSt3__110unique_ptrIS1_NSB_14default_deleteIS1_EEEE
00000000000090e0 t __ZN4llvm18ErrorHandlerTraitsIRFvRNS_13ErrorInfoBaseEEE5applyIZNS_21logAllUnhandledErrorsENS_5ErrorERNS_11raw_ostreamENS_5TwineEE3$_0EES7_OT_NSt3__110unique_ptrIS1_NSE_14default_deleteIS1_EEEE
00000000000090c0 T __ZN4llvm18ErrorHandlerTraitsIRFvRNS_13ErrorInfoBaseEEE9appliesToERKS1_
00000000000020a0 T __ZN4llvm18raw_string_ostream3strEv
0000000000001160 T __ZN4llvm18raw_string_ostreamC1ERNSt3__112basic_stringIcNS1_11char_traitsIcEENS1_9allocatorIcEEEE
0000000000001d10 T __ZN4llvm18raw_string_ostreamC2ERNSt3__112basic_stringIcNS1_11char_traitsIcEENS1_9allocatorIcEEEE
                 U __ZN4llvm18raw_string_ostreamD1Ev
0000000000000fa0 T __ZN4llvm18report_fatal_errorENS_5ErrorEb
                 U __ZN4llvm18report_fatal_errorERKNSt3__112basic_stringIcNS0_11char_traitsIcEENS0_9allocatorIcEEEEb
0000000000000010 T __ZN4llvm21logAllUnhandledErrorsENS_5ErrorERNS_11raw_ostreamENS_5TwineE
0000000000000380 T __ZN4llvm22inconvertibleErrorCodeEv
000000000004c37c S __ZN4llvm24DisableABIBreakingChecksE
                 U __ZN4llvm25llvm_unreachable_internalEPKcS1_j
000000000000a990 D __ZN4llvm30VerifyDisableABIBreakingChecksE
0000000000001760 T __ZN4llvm5Error10setCheckedEb
0000000000003040 T __ZN4llvm5Error11takePayloadEv
0000000000001880 T __ZN4llvm5Error15assertIsCheckedEv
0000000000001890 T __ZN4llvm5Error6setPtrEPNS_13ErrorInfoBaseE
0000000000000900 T __ZN4llvm5Error7successEv
0000000000000a70 T __ZN4llvm5ErrorC1ENSt3__110unique_ptrINS_13ErrorInfoBaseENS1_14default_deleteIS3_EEEE
0000000000000170 T __ZN4llvm5ErrorC1EOS0_
0000000000003280 T __ZN4llvm5ErrorC1Ev
0000000000001c10 T __ZN4llvm5ErrorC2ENSt3__110unique_ptrINS_13ErrorInfoBaseENS1_14default_deleteIS3_EEEE
00000000000017c0 T __ZN4llvm5ErrorC2EOS0_
0000000000001940 T __ZN4llvm5ErrorC2Ev
00000000000001a0 T __ZN4llvm5ErrorD1Ev
00000000000018b0 T __ZN4llvm5ErrorD2Ev
0000000000001810 T __ZN4llvm5ErroraSEOS0_
0000000000000090 T __ZN4llvm5ErrorcvbEv
0000000000001190 T __ZN4llvm5TwineC1EPKc
0000000000001db0 T __ZN4llvm5TwineC2EPKc
000000000004c382 S __ZN4llvm7ECError2IDE
0000000000000a40 T __ZN4llvm7ECErrorC1ENSt3__110error_codeE
0000000000009800 T __ZN4llvm7ECErrorC1EOS0_
00000000000019a0 T __ZN4llvm7ECErrorC2ENSt3__110error_codeE
0000000000009830 T __ZN4llvm7ECErrorC2EOS0_
0000000000001a30 T __ZN4llvm7ECErrorD0Ev
0000000000000a90 T __ZN4llvm7ECErrorD1Ev
0000000000001c80 T __ZN4llvm7ECErrorD2Ev
0000000000002620 T __ZN4llvm8cantFailENS_5ErrorEPKc
000000000000a980 T __ZN4llvm9ErrorInfoINS_11StringErrorENS_13ErrorInfoBaseEE7classIDEv
0000000000000cd0 T __ZN4llvm9ErrorInfoINS_11StringErrorENS_13ErrorInfoBaseEEC2Ev
0000000000001cc0 T __ZN4llvm9ErrorInfoINS_11StringErrorENS_13ErrorInfoBaseEED0Ev
0000000000001ca0 T __ZN4llvm9ErrorInfoINS_11StringErrorENS_13ErrorInfoBaseEED1Ev
0000000000001cf0 T __ZN4llvm9ErrorInfoINS_11StringErrorENS_13ErrorInfoBaseEED2Ev
0000000000001c00 T __ZN4llvm9ErrorInfoINS_7ECErrorENS_13ErrorInfoBaseEE7classIDEv
0000000000009890 T __ZN4llvm9ErrorInfoINS_7ECErrorENS_13ErrorInfoBaseEEC2EOS3_
00000000000019f0 T __ZN4llvm9ErrorInfoINS_7ECErrorENS_13ErrorInfoBaseEEC2Ev
0000000000001ba0 T __ZN4llvm9ErrorInfoINS_7ECErrorENS_13ErrorInfoBaseEED0Ev
0000000000001b80 T __ZN4llvm9ErrorInfoINS_7ECErrorENS_13ErrorInfoBaseEED1Ev
0000000000001bd0 T __ZN4llvm9ErrorInfoINS_7ECErrorENS_13ErrorInfoBaseEED2Ev
0000000000004e30 T __ZN4llvm9ErrorInfoINS_9ErrorListENS_13ErrorInfoBaseEE7classIDEv
0000000000009030 T __ZN4llvm9ErrorInfoINS_9ErrorListENS_13ErrorInfoBaseEEC2Ev
0000000000009090 T __ZN4llvm9ErrorInfoINS_9ErrorListENS_13ErrorInfoBaseEED0Ev
0000000000009070 T __ZN4llvm9ErrorInfoINS_9ErrorListENS_13ErrorInfoBaseEED1Ev
0000000000002190 T __ZN4llvm9ErrorInfoINS_9ErrorListENS_13ErrorInfoBaseEED2Ev
000000000004c381 S __ZN4llvm9ErrorList2IDE
00000000000032a0 T __ZN4llvm9ErrorList4joinENS_5ErrorES1_
00000000000057a0 T __ZN4llvm9ErrorListC1ENSt3__110unique_ptrINS_13ErrorInfoBaseENS1_14default_deleteIS3_EEEES6_
00000000000087b0 T __ZN4llvm9ErrorListC2ENSt3__110unique_ptrINS_13ErrorInfoBaseENS1_14default_deleteIS3_EEEES6_
00000000000013a0 T __ZN4llvm9ErrorListD0Ev
0000000000001380 T __ZN4llvm9ErrorListD1Ev
0000000000002120 T __ZN4llvm9ErrorListD2Ev
00000000000000e0 T __ZN4llvmlsERNS_11raw_ostreamERKNS_5TwineE
00000000000095f0 t __ZNK12_GLOBAL__N_118ErrorErrorCategory4nameEv
0000000000009610 t __ZNK12_GLOBAL__N_118ErrorErrorCategory7messageEi
0000000000000f70 T __ZNK4llvm11StringError18convertToErrorCodeEv
0000000000000d50 T __ZNK4llvm11StringError3logERNS_11raw_ostreamE
0000000000001340 T __ZNK4llvm13ErrorInfoBase3isAEPKv
0000000000003240 T __ZNK4llvm13ErrorInfoBase3isAINS_9ErrorListEEEbv
0000000000009430 T __ZNK4llvm13ErrorInfoBase3isAIS0_EEbv
0000000000001210 T __ZNK4llvm13ErrorInfoBase7messageEv
                 U __ZNK4llvm17ManagedStaticBase21RegisterManagedStaticEPFPvvEPFvS1_E
0000000000004e40 T __ZNK4llvm5Error3isAINS_9ErrorListEEEbv
00000000000017a0 T __ZNK4llvm5Error6getPtrEv
0000000000001fd0 T __ZNK4llvm5Twine10getLHSKindEv
0000000000001fb0 T __ZNK4llvm5Twine10getRHSKindEv
                 U __ZNK4llvm5Twine3strEv
                 U __ZNK4llvm5Twine5printERNS_11raw_ostreamE
0000000000002040 T __ZNK4llvm5Twine6isNullEv
0000000000002070 T __ZNK4llvm5Twine7isEmptyEv
0000000000001e60 T __ZNK4llvm5Twine7isValidEv
0000000000001ff0 T __ZNK4llvm5Twine8isBinaryEv
0000000000001f70 T __ZNK4llvm5Twine9isNullaryEv
0000000000001ab0 T __ZNK4llvm7ECError18convertToErrorCodeEv
0000000000001a60 T __ZNK4llvm7ECError3logERNS_11raw_ostreamE
00000000000016e0 T __ZNK4llvm9ErrorInfoINS_11StringErrorENS_13ErrorInfoBaseEE14dynamicClassIDEv
0000000000001700 T __ZNK4llvm9ErrorInfoINS_11StringErrorENS_13ErrorInfoBaseEE3isAEPKv
0000000000001ae0 T __ZNK4llvm9ErrorInfoINS_7ECErrorENS_13ErrorInfoBaseEE14dynamicClassIDEv
0000000000001b00 T __ZNK4llvm9ErrorInfoINS_7ECErrorENS_13ErrorInfoBaseEE3isAEPKv
0000000000001610 T __ZNK4llvm9ErrorInfoINS_9ErrorListENS_13ErrorInfoBaseEE14dynamicClassIDEv
0000000000001630 T __ZNK4llvm9ErrorInfoINS_9ErrorListENS_13ErrorInfoBaseEE3isAEPKv
00000000000001c0 T __ZNK4llvm9ErrorList18convertToErrorCodeEv
00000000000013d0 T __ZNK4llvm9ErrorList3logERNS_11raw_ostreamE
                 U __ZNKSt3__110error_code7messageEv
                 U __ZNKSt3__114error_category10equivalentERKNS_10error_codeEi
                 U __ZNKSt3__114error_category10equivalentEiRKNS_15error_conditionE
                 U __ZNKSt3__114error_category23default_error_conditionEi
                 U __ZNKSt3__120__vector_base_commonILb1EE20__throw_length_errorEv
0000000000006490 T __ZNKSt3__16vectorINS_10unique_ptrIN4llvm13ErrorInfoBaseENS_14default_deleteIS3_EEEENS_9allocatorIS6_EEE8max_sizeEv
00000000000097e0 T __ZNSt3__111char_traitsIcE6lengthEPKc
                 U __ZNSt3__112basic_stringIcNS_11char_traitsIcEENS_9allocatorIcEEE6__initEPKcm
                 U __ZNSt3__112basic_stringIcNS_11char_traitsIcEENS_9allocatorIcEEEC1ERKS5_
                 U __ZNSt3__112basic_stringIcNS_11char_traitsIcEENS_9allocatorIcEEED1Ev
00000000000021d0 T __ZNSt3__113__vector_baseINS_10unique_ptrIN4llvm13ErrorInfoBaseENS_14default_deleteIS3_EEEENS_9allocatorIS6_EEED2Ev
00000000000084d0 T __ZNSt3__114__split_bufferINS_10unique_ptrIN4llvm13ErrorInfoBaseENS_14default_deleteIS3_EEEERNS_9allocatorIS6_EEE18__construct_at_endINS_13move_iteratorIPS6_EEEENS_9enable_ifIXsr21__is_forward_iteratorIT_EE5valueEvE4typeESG_SG_
0000000000006fc0 T __ZNSt3__114__split_bufferINS_10unique_ptrIN4llvm13ErrorInfoBaseENS_14default_deleteIS3_EEEERNS_9allocatorIS6_EEE9push_backEOS6_
0000000000005c40 T __ZNSt3__114__split_bufferINS_10unique_ptrIN4llvm13ErrorInfoBaseENS_14default_deleteIS3_EEEERNS_9allocatorIS6_EEEC1EmmS9_
0000000000006580 T __ZNSt3__114__split_bufferINS_10unique_ptrIN4llvm13ErrorInfoBaseENS_14default_deleteIS3_EEEERNS_9allocatorIS6_EEEC2EmmS9_
0000000000006470 T __ZNSt3__114__split_bufferINS_10unique_ptrIN4llvm13ErrorInfoBaseENS_14default_deleteIS3_EEEERNS_9allocatorIS6_EEED1Ev
00000000000067a0 T __ZNSt3__114__split_bufferINS_10unique_ptrIN4llvm13ErrorInfoBaseENS_14default_deleteIS3_EEEERNS_9allocatorIS6_EEED2Ev
                 U __ZNSt3__114error_categoryD2Ev
                 U __ZNSt3__115system_categoryEv
0000000000006a60 T __ZNSt3__16vectorINS_10unique_ptrIN4llvm13ErrorInfoBaseENS_14default_deleteIS3_EEEENS_9allocatorIS6_EEE12__move_rangeEPS6_SA_SA_
00000000000057c0 T __ZNSt3__16vectorINS_10unique_ptrIN4llvm13ErrorInfoBaseENS_14default_deleteIS3_EEEENS_9allocatorIS6_EEE21__push_back_slow_pathIS6_EEvOT_
0000000000005c80 T __ZNSt3__16vectorINS_10unique_ptrIN4llvm13ErrorInfoBaseENS_14default_deleteIS3_EEEENS_9allocatorIS6_EEE26__swap_out_circular_bufferERNS_14__split_bufferIS6_RS8_EE
00000000000079d0 T __ZNSt3__16vectorINS_10unique_ptrIN4llvm13ErrorInfoBaseENS_14default_deleteIS3_EEEENS_9allocatorIS6_EEE26__swap_out_circular_bufferERNS_14__split_bufferIS6_RS8_EEPS6_
0000000000004eb0 T __ZNSt3__16vectorINS_10unique_ptrIN4llvm13ErrorInfoBaseENS_14default_deleteIS3_EEEENS_9allocatorIS6_EEE6insertENS_11__wrap_iterIPKS6_EEOS6_
0000000000002170 T __ZNSt3__16vectorINS_10unique_ptrIN4llvm13ErrorInfoBaseENS_14default_deleteIS3_EEEENS_9allocatorIS6_EEED1Ev
00000000000021b0 T __ZNSt3__16vectorINS_10unique_ptrIN4llvm13ErrorInfoBaseENS_14default_deleteIS3_EEEENS_9allocatorIS6_EEED2Ev
000000000000abc8 s __ZTVN12_GLOBAL__N_118ErrorErrorCategoryE
000000000000aad8 S __ZTVN4llvm11StringErrorE
                 U __ZTVN4llvm11raw_ostreamE
000000000000ab28 S __ZTVN4llvm13ErrorInfoBaseE
                 U __ZTVN4llvm18raw_string_ostreamE
000000000000a998 D __ZTVN4llvm7ECErrorE
000000000000aa38 D __ZTVN4llvm9ErrorInfoINS_11StringErrorENS_13ErrorInfoBaseEEE
000000000000a9e8 D __ZTVN4llvm9ErrorInfoINS_7ECErrorENS_13ErrorInfoBaseEEE
000000000000aa88 D __ZTVN4llvm9ErrorInfoINS_9ErrorListENS_13ErrorInfoBaseEEE
000000000000ab78 S __ZTVN4llvm9ErrorListE
                 U __ZTVNSt3__114error_categoryE
000000000000a930 t __ZZN4llvm16errorToErrorCodeENS_5ErrorEENK3$_1clERKNS_13ErrorInfoBaseE
0000000000009470 t __ZZN4llvm21logAllUnhandledErrorsENS_5ErrorERNS_11raw_ostreamENS_5TwineEENK3$_0clERKNS_13ErrorInfoBaseE
                 U __ZdlPv
                 U __Znwm
                 U ___assert_rtn
                 U ___cxa_pure_virtual
                 U _abort
                 U _memcpy
                 U _memset
                 U _strlen

libLLVMSupport.a(ErrorHandling.o):
00000000000018b0 s L__ZZN4llvm22report_bad_alloc_errorEPKcbE10OOMMessage
0000000000000af0 T _LLVMInstallFatalErrorHandler
0000000000000c30 T _LLVMResetFatalErrorHandler
0000000000001630 s __GLOBAL__sub_I_ErrorHandling.cpp
000000000001a970 b __ZL12ErrorHandler
0000000000001648 d __ZL17ErrorHandlerMutex
000000000001a980 b __ZL20BadAllocErrorHandler
000000000001a978 b __ZL20ErrorHandlerUserData
0000000000000b20 t __ZL20bindingsErrorHandlerPvRKNSt3__112basic_stringIcNS0_11char_traitsIcEENS0_9allocatorIcEEEEb
0000000000001688 d __ZL25BadAllocErrorHandlerMutex
000000000001a988 b __ZL28BadAllocErrorHandlerUserData
0000000000000470 T __ZN4llvm11SmallVectorIcLj64EEC1Ev
00000000000014a0 T __ZN4llvm11SmallVectorIcLj64EEC2Ev
0000000000000650 T __ZN4llvm11SmallVectorIcLj64EED1Ev
00000000000013d0 T __ZN4llvm11SmallVectorIcLj64EED2Ev
0000000000001200 T __ZN4llvm11raw_ostream10resetColorEv
00000000000011d0 T __ZN4llvm11raw_ostream11changeColorENS0_6ColorsEbb
0000000000001210 T __ZN4llvm11raw_ostream12reverseColorEv
00000000000010f0 T __ZN4llvm11raw_ostream13SetUnbufferedEv
                 U __ZN4llvm11raw_ostream14flush_nonemptyEv
                 U __ZN4llvm11raw_ostream16SetBufferAndModeEPcmNS0_10BufferKindE
0000000000001290 T __ZN4llvm11raw_ostream5flushEv
                 U __ZN4llvm11raw_ostream5writeEPKcm
                 U __ZN4llvm11raw_ostream6handleEv
0000000000001130 T __ZN4llvm11raw_ostreamC2Eb
                 U __ZN4llvm11raw_ostreamD2Ev
00000000000012d0 T __ZN4llvm11raw_ostreamlsENS_9StringRefE
00000000000004f0 T __ZN4llvm11raw_ostreamlsEPKc
0000000000000ac0 T __ZN4llvm11raw_ostreamlsEj
                 U __ZN4llvm11raw_ostreamlsEm
0000000000001550 T __ZN4llvm15SmallVectorBaseC2EPvm
00000000000014c0 T __ZN4llvm15SmallVectorImplIcEC2Ej
00000000000013f0 T __ZN4llvm15SmallVectorImplIcED2Ev
00000000000010a0 T __ZN4llvm17raw_pwrite_streamC2Eb
00000000000011a0 T __ZN4llvm17raw_pwrite_streamD0Ev
0000000000001180 T __ZN4llvm17raw_pwrite_streamD1Ev
0000000000001270 T __ZN4llvm17raw_pwrite_streamD2Ev
0000000000000400 T __ZN4llvm18report_fatal_errorENS_9StringRefEb
0000000000000160 T __ZN4llvm18report_fatal_errorEPKcb
00000000000001a0 T __ZN4llvm18report_fatal_errorERKNS_5TwineEb
0000000000000390 T __ZN4llvm18report_fatal_errorERKNSt3__112basic_stringIcNS0_11char_traitsIcEENS0_9allocatorIcEEEEb
0000000000000590 T __ZN4llvm19raw_svector_ostream3strEv
0000000000000490 T __ZN4llvm19raw_svector_ostreamC1ERNS_15SmallVectorImplIcEE
0000000000001050 T __ZN4llvm19raw_svector_ostreamC2ERNS_15SmallVectorImplIcEE
0000000000000630 T __ZN4llvm19raw_svector_ostreamD1Ev
00000000000013b0 T __ZN4llvm19raw_svector_ostreamD2Ev
00000000000007d0 T __ZN4llvm22report_bad_alloc_errorEPKcb
0000000000001460 T __ZN4llvm23SmallVectorTemplateBaseIcLb1EE13destroy_rangeEPcS2_
00000000000014f0 T __ZN4llvm23SmallVectorTemplateBaseIcLb1EEC2Em
                 U __ZN4llvm24DisableABIBreakingChecksE
0000000000001390 T __ZN4llvm25SmallVectorTemplateCommonIcvE4dataEv
0000000000001520 T __ZN4llvm25SmallVectorTemplateCommonIcvEC2Em
0000000000000a00 T __ZN4llvm25llvm_unreachable_internalEPKcS1_j
00000000000000e0 T __ZN4llvm26remove_fatal_error_handlerEv
0000000000000000 T __ZN4llvm27install_fatal_error_handlerEPFvPvRKNSt3__112basic_stringIcNS1_11char_traitsIcEENS1_9allocatorIcEEEEbES0_
0000000000001640 D __ZN4llvm30VerifyDisableABIBreakingChecksE
0000000000000750 T __ZN4llvm30remove_bad_alloc_error_handlerEv
0000000000000670 T __ZN4llvm31install_bad_alloc_error_handlerEPFvPvRKNSt3__112basic_stringIcNS1_11char_traitsIcEENS1_9allocatorIcEEEEbES0_
                 U __ZN4llvm3sys20RunInterruptHandlersEv
                 U __ZN4llvm4dbgsEv
0000000000000360 T __ZN4llvm5TwineC1EPKc
0000000000000440 T __ZN4llvm5TwineC1ERKNS_9StringRefE
00000000000003d0 T __ZN4llvm5TwineC1ERKNSt3__112basic_stringIcNS1_11char_traitsIcEENS1_9allocatorIcEEEE
0000000000000c40 T __ZN4llvm5TwineC2EPKc
0000000000000fc0 T __ZN4llvm5TwineC2ERKNS_9StringRefE
0000000000000f30 T __ZN4llvm5TwineC2ERKNSt3__112basic_stringIcNS1_11char_traitsIcEENS1_9allocatorIcEEEE
00000000000004c0 T __ZN4llvmlsERNS_11raw_ostreamERKNS_5TwineE
0000000000001240 T __ZNK4llvm11raw_ostream10has_colorsEv
0000000000001220 T __ZNK4llvm11raw_ostream12is_displayedEv
                 U __ZNK4llvm11raw_ostream21preferred_buffer_sizeEv
0000000000001470 T __ZNK4llvm25SmallVectorTemplateCommonIcvE7isSmallEv
0000000000000e60 T __ZNK4llvm5Twine10getLHSKindEv
0000000000000e40 T __ZNK4llvm5Twine10getRHSKindEv
                 U __ZNK4llvm5Twine3strEv
                 U __ZNK4llvm5Twine5printERNS_11raw_ostreamE
0000000000000ed0 T __ZNK4llvm5Twine6isNullEv
0000000000000f00 T __ZNK4llvm5Twine7isEmptyEv
0000000000000cf0 T __ZNK4llvm5Twine7isValidEv
0000000000000e80 T __ZNK4llvm5Twine8isBinaryEv
0000000000000e00 T __ZNK4llvm5Twine9isNullaryEv
0000000000001590 T __ZNSt3__111char_traitsIcE6lengthEPKc
                 U __ZNSt3__112basic_stringIcNS_11char_traitsIcEENS_9allocatorIcEEE6__initEPKcm
                 U __ZNSt3__112basic_stringIcNS_11char_traitsIcEENS_9allocatorIcEEED1Ev
                 U __ZNSt3__15mutex4lockEv
                 U __ZNSt3__15mutex6unlockEv
                 U __ZNSt3__15mutexD1Ev
                 U __ZTVN4llvm11raw_ostreamE
00000000000016c8 D __ZTVN4llvm17raw_pwrite_streamE
                 U __ZTVN4llvm19raw_svector_ostreamE
                 U __ZdlPv
                 U ___assert_rtn
                 U ___cxa_atexit
                 U ___cxa_pure_virtual
00000000000015b0 s ___cxx_global_var_init
00000000000015f0 s ___cxx_global_var_init.1
                 U ___dso_handle
                 U _abort
                 U _exit
                 U _free
                 U _memcpy
                 U _memset
                 U _strlen
                 U _write

libLLVMSupport.a(FileOutputBuffer.o):
0000000000000220 T __ZN4llvm11SmallStringILj128EEC1ENS_9StringRefE
0000000000001310 T __ZN4llvm11SmallStringILj128EEC1Ev
00000000000022e0 T __ZN4llvm11SmallStringILj128EEC2ENS_9StringRefE
0000000000001d10 T __ZN4llvm11SmallStringILj128EEC2Ev
00000000000004f0 T __ZN4llvm11SmallStringILj128EED1Ev
0000000000001b30 T __ZN4llvm11SmallStringILj128EED2Ev
0000000000001d30 T __ZN4llvm11SmallVectorIcLj128EEC2Ev
0000000000002370 T __ZN4llvm11SmallVectorIcLj128EEC2IPKcvEET_S5_
0000000000001b50 T __ZN4llvm11SmallVectorIcLj128EED2Ev
00000000000013f0 T __ZN4llvm11make_uniqueINS_3sys2fs18mapped_file_regionEJRiNS3_7mapmodeERmiRNSt3__110error_codeEEEENS7_9enable_ifIXntsr3std8is_arrayIT_EE5valueENS7_10unique_ptrISB_NS7_14default_deleteISB_EEEEE4typeEDpOT0_
                 U __ZN4llvm15SmallVectorBase8grow_podEPvmm
0000000000001de0 T __ZN4llvm15SmallVectorBaseC2EPvm
00000000000023c0 T __ZN4llvm15SmallVectorImplIcE6appendIPKcvEEvT_S5_
0000000000001d50 T __ZN4llvm15SmallVectorImplIcEC2Ej
0000000000001b70 T __ZN4llvm15SmallVectorImplIcED2Ev
00000000000026b0 T __ZN4llvm15make_error_codeENS_4errcE
0000000000001580 T __ZN4llvm16FileOutputBuffer6commitEv
0000000000000530 T __ZN4llvm16FileOutputBuffer6createENS_9StringRefEmj
0000000000000250 T __ZN4llvm16FileOutputBufferC1ENSt3__110unique_ptrINS_3sys2fs18mapped_file_regionENS1_14default_deleteIS5_EEEENS_9StringRefES9_b
0000000000000000 T __ZN4llvm16FileOutputBufferC2ENSt3__110unique_ptrINS_3sys2fs18mapped_file_regionENS1_14default_deleteIS5_EEEENS_9StringRefES9_b
0000000000000510 T __ZN4llvm16FileOutputBufferD1Ev
00000000000002a0 T __ZN4llvm16FileOutputBufferD2Ev
0000000000001be0 T __ZN4llvm23SmallVectorTemplateBaseIcLb1EE13destroy_rangeEPcS2_
0000000000002530 T __ZN4llvm23SmallVectorTemplateBaseIcLb1EE18uninitialized_copyIKccEEvPT_S5_PT0_PNSt3__19enable_ifIXsr3std7is_sameINS8_12remove_constIS4_E4typeES6_EE5valueEvE4typeE
00000000000024f0 T __ZN4llvm23SmallVectorTemplateBaseIcLb1EE4growEm
0000000000001d80 T __ZN4llvm23SmallVectorTemplateBaseIcLb1EEC2Em
00000000000024d0 T __ZN4llvm25SmallVectorTemplateCommonIcvE12capacity_ptrEv
0000000000002580 T __ZN4llvm25SmallVectorTemplateCommonIcvE6setEndEPc
00000000000025a0 T __ZN4llvm25SmallVectorTemplateCommonIcvE8grow_podEmm
0000000000001db0 T __ZN4llvm25SmallVectorTemplateCommonIcvEC2Em
                 U __ZN4llvm3sys18RemoveFileOnSignalENS_9StringRefEPNSt3__112basic_stringIcNS2_11char_traitsIcEENS2_9allocatorIcEEEE
                 U __ZN4llvm3sys22DontRemoveFileOnSignalENS_9StringRefE
0000000000001240 T __ZN4llvm3sys2fs11file_statusC1Ev
0000000000001c20 T __ZN4llvm3sys2fs11file_statusC2Ev
                 U __ZN4llvm3sys2fs11resize_fileEiy
                 U __ZN4llvm3sys2fs16createUniqueFileERKNS_5TwineERiRNS_15SmallVectorImplIcEEj
                 U __ZN4llvm3sys2fs18mapped_file_regionC1EiNS2_7mapmodeEyyRNSt3__110error_codeE
                 U __ZN4llvm3sys2fs18mapped_file_regionD1Ev
                 U __ZN4llvm3sys2fs19createTemporaryFileERKNS_5TwineENS_9StringRefERiRNS_15SmallVectorImplIcEE
                 U __ZN4llvm3sys2fs6removeERKNS_5TwineEb
                 U __ZN4llvm3sys2fs6renameERKNS_5TwineES4_
                 U __ZN4llvm3sys2fs6statusERKNS_5TwineERNS1_11file_statusEb
                 U __ZN4llvm3sys2fs9copy_fileERKNS_5TwineES4_
0000000000001330 T __ZN4llvm3sys2fsorENS1_5permsES2_
                 U __ZN4llvm3sys4path8filenameENS_9StringRefENS1_5StyleE
0000000000002030 T __ZN4llvm5TwineC1ENS0_5ChildENS0_8NodeKindES1_S2_
0000000000001fb0 T __ZN4llvm5TwineC1ENS0_8NodeKindE
0000000000001390 T __ZN4llvm5TwineC1EPKc
00000000000004c0 T __ZN4llvm5TwineC1ERKNS_15SmallVectorImplIcEE
0000000000001260 T __ZN4llvm5TwineC1ERKNS_9StringRefE
0000000000002100 T __ZN4llvm5TwineC2ENS0_5ChildENS0_8NodeKindES1_S2_
0000000000002080 T __ZN4llvm5TwineC2ENS0_8NodeKindE
00000000000021b0 T __ZN4llvm5TwineC2EPKc
0000000000001860 T __ZN4llvm5TwineC2ERKNS_15SmallVectorImplIcEE
0000000000001c80 T __ZN4llvm5TwineC2ERKNS_9StringRefE
00000000000028c0 T __ZN4llvm7ErrorOrINSt3__110unique_ptrINS_16FileOutputBufferENS1_14default_deleteIS3_EEEEE10getStorageEv
0000000000002630 T __ZN4llvm7ErrorOrINSt3__110unique_ptrINS_16FileOutputBufferENS1_14default_deleteIS3_EEEEE15getErrorStorageEv
00000000000012e0 T __ZN4llvm7ErrorOrINSt3__110unique_ptrINS_16FileOutputBufferENS1_14default_deleteIS3_EEEEEC1ENS1_10error_codeE
00000000000012b0 T __ZN4llvm7ErrorOrINSt3__110unique_ptrINS_16FileOutputBufferENS1_14default_deleteIS3_EEEEEC1INS_4errcEEET_NS1_9enable_ifIXoosr3std18is_error_code_enumISA_EE5valuesr3std23is_error_condition_enumISA_EE5valueEPvE4typeE
0000000000001550 T __ZN4llvm7ErrorOrINSt3__110unique_ptrINS_16FileOutputBufferENS1_14default_deleteIS3_EEEEEC1IS6_EEOT_PNS1_9enable_ifIXsr3std14is_convertibleIS9_S6_EE5valueEvE4typeE
0000000000002710 T __ZN4llvm7ErrorOrINSt3__110unique_ptrINS_16FileOutputBufferENS1_14default_deleteIS3_EEEEEC2ENS1_10error_codeE
00000000000025e0 T __ZN4llvm7ErrorOrINSt3__110unique_ptrINS_16FileOutputBufferENS1_14default_deleteIS3_EEEEEC2INS_4errcEEET_NS1_9enable_ifIXoosr3std18is_error_code_enumISA_EE5valuesr3std23is_error_condition_enumISA_EE5valueEPvE4typeE
0000000000002750 T __ZN4llvm7ErrorOrINSt3__110unique_ptrINS_16FileOutputBufferENS1_14default_deleteIS3_EEEEEC2IS6_EEOT_PNS1_9enable_ifIXsr3std14is_convertibleIS9_S6_EE5valueEvE4typeE
0000000000001360 T __ZN4llvmplERKNS_5TwineES2_
0000000000002260 T __ZNK4llvm11SmallStringILj128EE3strEv
00000000000013c0 T __ZNK4llvm11SmallStringILj128EEcvNS_9StringRefEEv
0000000000001bf0 T __ZNK4llvm25SmallVectorTemplateCommonIcvE7isSmallEv
0000000000001290 T __ZNK4llvm3sys2fs11file_status4typeEv
0000000000001a60 T __ZNK4llvm5Twine10getLHSKindEv
0000000000001a40 T __ZNK4llvm5Twine10getRHSKindEv
0000000000001e20 T __ZNK4llvm5Twine6concatERKS0_
0000000000001ad0 T __ZNK4llvm5Twine6isNullEv
0000000000001b00 T __ZNK4llvm5Twine7isEmptyEv
0000000000001fe0 T __ZNK4llvm5Twine7isUnaryEv
00000000000018f0 T __ZNK4llvm5Twine7isValidEv
0000000000001a80 T __ZNK4llvm5Twine8isBinaryEv
0000000000001a00 T __ZNK4llvm5Twine9isNullaryEv
0000000000002350 T __ZNK4llvm9StringRef3endEv
0000000000002330 T __ZNK4llvm9StringRef5beginEv
                 U __ZNSt3__115system_categoryEv
                 U __ZNSt3__116generic_categoryEv
                 U __ZdlPv
                 U __Znwm
                 U ___assert_rtn
                 U ___error
                 U _close
                 U _free
                 U _memcpy
                 U _strlen

libLLVMSupport.a(FileUtilities.o):
                 U __DefaultRuneLocale
00000000000021a0 T __Z7isasciii
0000000000001f30 T __Z7isspacei
0000000000002120 T __Z8__istypeim
0000000000001f50 t __ZL11EndOfNumberPKc
0000000000000eb0 t __ZL12BackupNumberPKcS0_
0000000000001b20 t __ZL12isNumberCharc
0000000000001e90 t __ZL12isSignedCharc
0000000000000fb0 t __ZL14CompareNumbersRPKcS1_S0_S0_ddPNSt3__112basic_stringIcNS2_11char_traitsIcEENS2_9allocatorIcEEEE
0000000000001ed0 t __ZL14isExponentCharc
0000000000001f90 T __ZN4llvm11SmallStringILj200EEC1IPKcEET_S5_
00000000000021c0 T __ZN4llvm11SmallStringILj200EEC2IPKcEET_S5_
0000000000001fc0 T __ZN4llvm11SmallStringILj200EED1Ev
0000000000002540 T __ZN4llvm11SmallStringILj200EED2Ev
0000000000002200 T __ZN4llvm11SmallVectorIcLj200EEC2IPKcvEET_S5_
0000000000002560 T __ZN4llvm11SmallVectorIcLj200EED2Ev
                 U __ZN4llvm11raw_ostream5writeEPKcm
                 U __ZN4llvm11raw_ostream5writeEh
0000000000002680 T __ZN4llvm11raw_ostreamC2Eb
00000000000026d0 T __ZN4llvm11raw_ostreamlsENS_9StringRefE
0000000000002010 T __ZN4llvm11raw_ostreamlsEPKc
00000000000020b0 T __ZN4llvm11raw_ostreamlsEc
                 U __ZN4llvm11raw_ostreamlsEd
                 U __ZN4llvm12MemoryBuffer7getFileERKNS_5TwineExbb
                 U __ZN4llvm15SmallVectorBase8grow_podEPvmm
00000000000023f0 T __ZN4llvm15SmallVectorBaseC2EPvm
0000000000002280 T __ZN4llvm15SmallVectorImplIcE6appendIPKcvEEvT_S5_
0000000000002250 T __ZN4llvm15SmallVectorImplIcEC2Ej
0000000000002580 T __ZN4llvm15SmallVectorImplIcED2Ev
0000000000001fe0 T __ZN4llvm18raw_string_ostreamC1ERNSt3__112basic_stringIcNS1_11char_traitsIcEENS1_9allocatorIcEEEE
0000000000002630 T __ZN4llvm18raw_string_ostreamC2ERNSt3__112basic_stringIcNS1_11char_traitsIcEENS1_9allocatorIcEEEE
                 U __ZN4llvm18raw_string_ostreamD1Ev
0000000000000000 T __ZN4llvm22DiffFilesWithToleranceENS_9StringRefES0_ddPNSt3__112basic_stringIcNS1_11char_traitsIcEENS1_9allocatorIcEEEE
00000000000025f0 T __ZN4llvm23SmallVectorTemplateBaseIcLb1EE13destroy_rangeEPcS2_
0000000000002490 T __ZN4llvm23SmallVectorTemplateBaseIcLb1EE18uninitialized_copyIKccEEvPT_S5_PT0_PNSt3__19enable_ifIXsr3std7is_sameINS8_12remove_constIS4_E4typeES6_EE5valueEvE4typeE
0000000000002450 T __ZN4llvm23SmallVectorTemplateBaseIcLb1EE4growEm
0000000000002390 T __ZN4llvm23SmallVectorTemplateBaseIcLb1EEC2Em
0000000000002430 T __ZN4llvm25SmallVectorTemplateCommonIcvE12capacity_ptrEv
00000000000024e0 T __ZN4llvm25SmallVectorTemplateCommonIcvE6setEndEPc
0000000000002500 T __ZN4llvm25SmallVectorTemplateCommonIcvE8grow_podEmm
00000000000023c0 T __ZN4llvm25SmallVectorTemplateCommonIcvEC2Em
0000000000000d80 T __ZN4llvm5TwineC1ERKNS_9StringRefE
0000000000001bc0 T __ZN4llvm5TwineC2ERKNS_9StringRefE
00000000000028a0 T __ZN4llvm7ErrorOrINSt3__110unique_ptrINS_12MemoryBufferENS1_14default_deleteIS3_EEEEE10getStorageEv
0000000000002940 T __ZN4llvm7ErrorOrINSt3__110unique_ptrINS_12MemoryBufferENS1_14default_deleteIS3_EEEEE15getErrorStorageEv
0000000000000e30 T __ZN4llvm7ErrorOrINSt3__110unique_ptrINS_12MemoryBufferENS1_14default_deleteIS3_EEEEE3getEv
0000000000001ba0 T __ZN4llvm7ErrorOrINSt3__110unique_ptrINS_12MemoryBufferENS1_14default_deleteIS3_EEEEED1Ev
00000000000027b0 T __ZN4llvm7ErrorOrINSt3__110unique_ptrINS_12MemoryBufferENS1_14default_deleteIS3_EEEEED2Ev
0000000000000e70 T __ZNK4llvm12MemoryBuffer12getBufferEndEv
0000000000000e90 T __ZNK4llvm12MemoryBuffer13getBufferSizeEv
0000000000000e50 T __ZNK4llvm12MemoryBuffer14getBufferStartEv
0000000000002600 T __ZNK4llvm25SmallVectorTemplateCommonIcvE7isSmallEv
0000000000001dc0 T __ZNK4llvm5Twine10getLHSKindEv
0000000000001da0 T __ZNK4llvm5Twine10getRHSKindEv
0000000000001e30 T __ZNK4llvm5Twine6isNullEv
0000000000001e60 T __ZNK4llvm5Twine7isEmptyEv
0000000000001c50 T __ZNK4llvm5Twine7isValidEv
0000000000001de0 T __ZNK4llvm5Twine8isBinaryEv
0000000000001d60 T __ZNK4llvm5Twine9isNullaryEv
0000000000002920 T __ZNK4llvm7ErrorOrINSt3__110unique_ptrINS_12MemoryBufferENS1_14default_deleteIS3_EEEEE15getErrorStorageEv
0000000000000db0 T __ZNK4llvm7ErrorOrINSt3__110unique_ptrINS_12MemoryBufferENS1_14default_deleteIS3_EEEEE8getErrorEv
                 U __ZNKSt3__110error_code7messageEv
0000000000002790 T __ZNSt3__111char_traitsIcE6assignERcRKc
                 U __ZNSt3__112basic_stringIcNS_11char_traitsIcEENS_9allocatorIcEEE6appendEPKc
                 U __ZNSt3__112basic_stringIcNS_11char_traitsIcEENS_9allocatorIcEEE6assignEPKc
                 U __ZNSt3__112basic_stringIcNS_11char_traitsIcEENS_9allocatorIcEEE7reserveEm
                 U __ZNSt3__112basic_stringIcNS_11char_traitsIcEENS_9allocatorIcEEE9push_backEc
                 U __ZNSt3__112basic_stringIcNS_11char_traitsIcEENS_9allocatorIcEEED1Ev
                 U __ZNSt3__115system_categoryEv
                 U __ZTVN4llvm11raw_ostreamE
                 U __ZTVN4llvm18raw_string_ostreamE
                 U ___assert_rtn
                 U ___maskrune
                 U ___stack_chk_fail
                 U ___stack_chk_guard
                 U _free
                 U _memcmp
                 U _memcpy
                 U _strlen
                 U _strtod

libLLVMSupport.a(FoldingSet.o):
0000000000003ce0 D __ZGVZN4llvm7hashing6detail18get_execution_seedEvE4seed
00000000000011f0 t __ZL10GetNextPtrPv
00000000000013d0 t __ZL12GetBucketForjPPvj
00000000000017b0 t __ZL12GetBucketPtrPv
0000000000000d30 t __ZL15AllocateBucketsj
0000000000001bc0 T __ZN4llvm11SmallVectorIjLj32EEC1Ev
0000000000001be0 T __ZN4llvm11SmallVectorIjLj32EEC2Ev
0000000000001d50 T __ZN4llvm11SmallVectorIjLj32EED1Ev
0000000000001d70 T __ZN4llvm11SmallVectorIjLj32EED2Ev
0000000000002e10 T __ZN4llvm13AllocatorBaseINS_20BumpPtrAllocatorImplINS_15MallocAllocatorELm4096ELm4096EEEE8AllocateEmm
0000000000000bd0 T __ZN4llvm13AllocatorBaseINS_20BumpPtrAllocatorImplINS_15MallocAllocatorELm4096ELm4096EEEE8AllocateIjEEPT_m
00000000000014f0 T __ZN4llvm13PowerOf2FloorEy
0000000000001190 T __ZN4llvm13isPowerOf2_32Ej
0000000000003570 T __ZN4llvm13isPowerOf2_64Ey
0000000000001270 T __ZN4llvm14FoldingSetBase10InsertNodeEPNS0_4NodeEPv
00000000000016a0 T __ZN4llvm14FoldingSetBase10RemoveNodeEPNS0_4NodeE
0000000000001450 T __ZN4llvm14FoldingSetBase13GrowHashTableEv
0000000000001830 T __ZN4llvm14FoldingSetBase15GetOrInsertNodeEPNS0_4NodeE
0000000000000f20 T __ZN4llvm14FoldingSetBase15GrowBucketCountEj
0000000000001550 T __ZN4llvm14FoldingSetBase19FindNodeOrInsertPosERKNS_16FoldingSetNodeIDERPv
0000000000001250 T __ZN4llvm14FoldingSetBase4Node15SetNextInBucketEPv
0000000000000ec0 T __ZN4llvm14FoldingSetBase5clearEv
0000000000000c60 T __ZN4llvm14FoldingSetBase6anchorEv
0000000000001480 T __ZN4llvm14FoldingSetBase7reserveEj
00000000000014d0 T __ZN4llvm14FoldingSetBase8capacityEv
0000000000000d90 T __ZN4llvm14FoldingSetBaseC2EOS0_
0000000000000c70 T __ZN4llvm14FoldingSetBaseC2Ej
0000000000000ea0 T __ZN4llvm14FoldingSetBaseD1Ev
0000000000000e70 T __ZN4llvm14FoldingSetBaseD2Ev
0000000000000e00 T __ZN4llvm14FoldingSetBaseaSEOS0_
0000000000003290 T __ZN4llvm15MallocAllocator8AllocateEmm
                 U __ZN4llvm15SmallVectorBase8grow_podEPvmm
0000000000001c90 T __ZN4llvm15SmallVectorBaseC2EPvm
0000000000001cd0 T __ZN4llvm15SmallVectorImplIjE5clearEv
0000000000000600 T __ZN4llvm15SmallVectorImplIjE6appendIPKjvEEvT_S5_
0000000000001c00 T __ZN4llvm15SmallVectorImplIjEC2Ej
0000000000001d90 T __ZN4llvm15SmallVectorImplIjED2Ev
0000000000000210 T __ZN4llvm16FoldingSetNodeID10AddIntegerEi
00000000000002c0 T __ZN4llvm16FoldingSetNodeID10AddIntegerEj
00000000000002f0 T __ZN4llvm16FoldingSetNodeID10AddIntegerEl
00000000000001e0 T __ZN4llvm16FoldingSetNodeID10AddIntegerEm
0000000000000370 T __ZN4llvm16FoldingSetNodeID10AddIntegerEx
0000000000000320 T __ZN4llvm16FoldingSetNodeID10AddIntegerEy
00000000000001b0 T __ZN4llvm16FoldingSetNodeID10AddPointerEPKv
0000000000001410 T __ZN4llvm16FoldingSetNodeID5clearEv
00000000000007b0 T __ZN4llvm16FoldingSetNodeID9AddNodeIDERKS0_
00000000000003a0 T __ZN4llvm16FoldingSetNodeID9AddStringENS_9StringRefE
00000000000011d0 T __ZN4llvm16FoldingSetNodeIDC1Ev
0000000000001ba0 T __ZN4llvm16FoldingSetNodeIDC2Ev
0000000000001430 T __ZN4llvm16FoldingSetNodeIDD1Ev
0000000000001d30 T __ZN4llvm16FoldingSetNodeIDD2Ev
0000000000001e30 T __ZN4llvm17countLeadingZerosIyEEmT_NS_12ZeroBehaviorE
0000000000000050 T __ZN4llvm18hash_combine_rangeIPKjEENS_9hash_codeET_S4_
0000000000000890 T __ZN4llvm19FoldingSetNodeIDRefC1EPKjm
0000000000001b70 T __ZN4llvm19FoldingSetNodeIDRefC2EPKjm
0000000000003260 T __ZN4llvm19alignmentAdjustmentEPKvm
0000000000003430 T __ZN4llvm20BumpPtrAllocatorImplINS_15MallocAllocatorELm4096ELm4096EE12StartNewSlabEv
00000000000035b0 T __ZN4llvm20BumpPtrAllocatorImplINS_15MallocAllocatorELm4096ELm4096EE15computeSlabSizeEj
0000000000002e50 T __ZN4llvm20BumpPtrAllocatorImplINS_15MallocAllocatorELm4096ELm4096EE8AllocateEmm
0000000000001a00 T __ZN4llvm22FoldingSetIteratorImpl7advanceEv
00000000000019d0 T __ZN4llvm22FoldingSetIteratorImplC1EPPv
0000000000001930 T __ZN4llvm22FoldingSetIteratorImplC2EPPv
                 U __ZN4llvm22report_bad_alloc_errorEPKcb
00000000000034d0 T __ZN4llvm23SmallVectorTemplateBaseINSt3__14pairIPvmEELb1EE4growEm
00000000000032c0 T __ZN4llvm23SmallVectorTemplateBaseINSt3__14pairIPvmEELb1EE9push_backERKS4_
00000000000036d0 T __ZN4llvm23SmallVectorTemplateBaseIPvLb1EE4growEm
0000000000003650 T __ZN4llvm23SmallVectorTemplateBaseIPvLb1EE9push_backERKS1_
0000000000001d20 T __ZN4llvm23SmallVectorTemplateBaseIjLb1EE13destroy_rangeEPjS2_
0000000000002db0 T __ZN4llvm23SmallVectorTemplateBaseIjLb1EE18uninitialized_copyIKjjEEvPT_S5_PT0_PNSt3__19enable_ifIXsr3std7is_sameINS8_12remove_constIS4_E4typeES6_EE5valueEvE4typeE
0000000000002cf0 T __ZN4llvm23SmallVectorTemplateBaseIjLb1EE4growEm
0000000000000240 T __ZN4llvm23SmallVectorTemplateBaseIjLb1EE9push_backERKj
0000000000001c30 T __ZN4llvm23SmallVectorTemplateBaseIjLb1EEC2Em
0000000000003510 T __ZN4llvm25SmallVectorTemplateCommonINSt3__14pairIPvmEEvE6setEndEPS4_
0000000000003530 T __ZN4llvm25SmallVectorTemplateCommonINSt3__14pairIPvmEEvE8grow_podEmm
0000000000003710 T __ZN4llvm25SmallVectorTemplateCommonIPvvE6setEndEPS1_
0000000000003730 T __ZN4llvm25SmallVectorTemplateCommonIPvvE8grow_podEmm
0000000000002d90 T __ZN4llvm25SmallVectorTemplateCommonIjvE12capacity_ptrEv
0000000000002d30 T __ZN4llvm25SmallVectorTemplateCommonIjvE6setEndEPj
0000000000002d50 T __ZN4llvm25SmallVectorTemplateCommonIjvE8grow_podEmm
0000000000001c60 T __ZN4llvm25SmallVectorTemplateCommonIjvEC2Em
0000000000001b40 T __ZN4llvm28FoldingSetBucketIteratorImplC1EPPv
0000000000001ad0 T __ZN4llvm28FoldingSetBucketIteratorImplC2EPPv
0000000000001e60 T __ZN4llvm6detail19LeadingZerosCounterIyLm8EE5countEyNS_12ZeroBehaviorE
0000000000002090 T __ZN4llvm7hashing6detail10hash_shortEPKcmy
0000000000002c10 T __ZN4llvm7hashing6detail10hash_state12mix_32_bytesEPKcRyS5_
00000000000022a0 T __ZN4llvm7hashing6detail10hash_state3mixEPKc
00000000000021d0 T __ZN4llvm7hashing6detail10hash_state6createEPKcy
00000000000024a0 T __ZN4llvm7hashing6detail10hash_state8finalizeEm
0000000000002ae0 T __ZN4llvm7hashing6detail13hash_16_bytesEyy
00000000000029f0 T __ZN4llvm7hashing6detail15hash_1to3_bytesEPKcmy
0000000000002550 T __ZN4llvm7hashing6detail15hash_4to8_bytesEPKcmy
00000000000025c0 T __ZN4llvm7hashing6detail16hash_9to16_bytesEPKcmy
0000000000002630 T __ZN4llvm7hashing6detail17hash_17to32_bytesEPKcmy
0000000000002750 T __ZN4llvm7hashing6detail17hash_33to64_bytesEPKcmy
0000000000001ff0 T __ZN4llvm7hashing6detail18get_execution_seedEv
                 U __ZN4llvm7hashing6detail19fixed_seed_overrideE
0000000000001eb0 T __ZN4llvm7hashing6detail23hash_combine_range_implIKjEENSt3__19enable_ifIXsr16is_hashable_dataIT_EE5valueENS_9hash_codeEE4typeEPS6_SA_
0000000000002b70 T __ZN4llvm7hashing6detail6rotateEym
0000000000002ac0 T __ZN4llvm7hashing6detail7fetch32EPKc
0000000000002b50 T __ZN4llvm7hashing6detail7fetch64EPKc
0000000000002bd0 T __ZN4llvm7hashing6detail9shift_mixEy
0000000000003340 T __ZN4llvm9alignAddrEPKvm
00000000000021a0 T __ZN4llvm9hash_codeC1Em
0000000000002bf0 T __ZN4llvm9hash_codeC2Em
0000000000001230 T __ZNK4llvm14FoldingSetBase4Node15getNextInBucketEv
0000000000000800 T __ZNK4llvm16FoldingSetNodeID11ComputeHashEv
0000000000000b00 T __ZNK4llvm16FoldingSetNodeID6InternERNS_20BumpPtrAllocatorImplINS_15MallocAllocatorELm4096ELm4096EEE
0000000000000940 T __ZNK4llvm16FoldingSetNodeIDeqENS_19FoldingSetNodeIDRefE
00000000000008c0 T __ZNK4llvm16FoldingSetNodeIDeqERKS0_
0000000000000a60 T __ZNK4llvm16FoldingSetNodeIDltENS_19FoldingSetNodeIDRefE
00000000000009e0 T __ZNK4llvm16FoldingSetNodeIDltERKS0_
0000000000000000 T __ZNK4llvm19FoldingSetNodeIDRef11ComputeHashEv
00000000000000a0 T __ZNK4llvm19FoldingSetNodeIDRefeqES0_
0000000000000120 T __ZNK4llvm19FoldingSetNodeIDRefltES0_
0000000000000870 T __ZNK4llvm25SmallVectorTemplateCommonIjvE4dataEv
0000000000001e00 T __ZNK4llvm25SmallVectorTemplateCommonIjvE7isSmallEv
0000000000000720 T __ZNK4llvm9StringRefixEm
0000000000000080 T __ZNK4llvm9hash_codecvmEv
0000000000000c00 T __ZNSt3__118uninitialized_copyIPKjPjEET0_T_S5_S4_
0000000000003770 S __ZTVN4llvm14FoldingSetBaseE
0000000000003cd8 D __ZZN4llvm7hashing6detail18get_execution_seedEvE4seed
                 U ___assert_rtn
                 U ___cxa_guard_acquire
                 U ___cxa_guard_release
                 U ___cxa_pure_virtual
                 U _calloc
                 U _free
                 U _malloc
                 U _memcmp
                 U _memcpy
                 U _memset

libLLVMSupport.a(FormatVariadic.o):
0000000000000760 t __ZL16translateLocCharc
0000000000005430 T __ZN4llvm12function_refIFbcEE11callback_fnIZNKS_9StringRef11find_if_notES2_mEUlcE_EEblc
0000000000005860 t __ZN4llvm12function_refIFbcEE11callback_fnIZNS_19formatv_object_base26splitLiteralAndReplacementENS_9StringRefEE3$_0EEblc
0000000000005390 T __ZN4llvm12function_refIFbcEEC1IZNKS_9StringRef11find_if_notES2_mEUlcE_EEOT_PNSt3__19enable_ifIXntsr3std7is_sameINS8_16remove_referenceIS6_E4typeES2_EE5valueEvE4typeE
00000000000042a0 t __ZN4llvm12function_refIFbcEEC1IZNS_19formatv_object_base26splitLiteralAndReplacementENS_9StringRefEE3$_0EEOT_PNSt3__19enable_ifIXntsr3std7is_sameINS9_16remove_referenceIS7_E4typeES2_EE5valueEvE4typeE
0000000000005400 T __ZN4llvm12function_refIFbcEEC2IZNKS_9StringRef11find_if_notES2_mEUlcE_EEOT_PNSt3__19enable_ifIXntsr3std7is_sameINS8_16remove_referenceIS6_E4typeES2_EE5valueEvE4typeE
0000000000005830 t __ZN4llvm12function_refIFbcEEC2IZNS_19formatv_object_base26splitLiteralAndReplacementENS_9StringRefEE3$_0EEOT_PNSt3__19enable_ifIXntsr3std7is_sameINS9_16remove_referenceIS7_E4typeES2_EE5valueEvE4typeE
0000000000004270 T __ZN4llvm15ReplacementItemC1ENS_9StringRefE
0000000000001830 T __ZN4llvm15ReplacementItemC1ENS_9StringRefEmmNS_10AlignStyleEcS1_
00000000000049e0 T __ZN4llvm15ReplacementItemC1Ev
0000000000005330 T __ZN4llvm15ReplacementItemC2ENS_9StringRefE
00000000000052b0 T __ZN4llvm15ReplacementItemC2ENS_9StringRefEmmNS_10AlignStyleEcS1_
00000000000054a0 T __ZN4llvm15ReplacementItemC2Ev
0000000000004370 T __ZN4llvm19formatv_object_base17parseFormatStringENS_9StringRefE
0000000000000000 T __ZN4llvm19formatv_object_base18consumeFieldLayoutERNS_9StringRefERNS_10AlignStyleERmRc
00000000000009c0 T __ZN4llvm19formatv_object_base20parseReplacementItemENS_9StringRefE
00000000000018d0 T __ZN4llvm19formatv_object_base26splitLiteralAndReplacementENS_9StringRefE
                 U __ZN4llvm22consumeUnsignedIntegerERNS_9StringRefEjRy
0000000000005720 T __ZN4llvm8OptionalINS_10AlignStyleEE10getPointerEv
00000000000056e0 T __ZN4llvm8OptionalINS_10AlignStyleEE5resetEv
0000000000004a50 T __ZN4llvm8OptionalINS_10AlignStyleEEC1ENS_8NoneTypeE
0000000000004a20 T __ZN4llvm8OptionalINS_10AlignStyleEEC1EOS1_
0000000000004ab0 T __ZN4llvm8OptionalINS_10AlignStyleEEC2ENS_8NoneTypeE
0000000000004a80 T __ZN4llvm8OptionalINS_10AlignStyleEEC2EOS1_
0000000000000930 T __ZN4llvm8OptionalINS_10AlignStyleEED1Ev
00000000000056c0 T __ZN4llvm8OptionalINS_10AlignStyleEED2Ev
00000000000058c0 T __ZN4llvm8OptionalINS_15ReplacementItemEE10getPointerEv
00000000000057f0 T __ZN4llvm8OptionalINS_15ReplacementItemEE5resetEv
00000000000018a0 T __ZN4llvm8OptionalINS_15ReplacementItemEEC1EOS1_
0000000000005780 T __ZN4llvm8OptionalINS_15ReplacementItemEEC2EOS1_
0000000000004350 T __ZN4llvm8OptionalINS_15ReplacementItemEED1Ev
00000000000057d0 T __ZN4llvm8OptionalINS_15ReplacementItemEED2Ev
0000000000000950 T __ZN4llvm9StringRef14consumeIntegerImEENSt3__19enable_ifIXntsr3std14numeric_limitsIT_EE9is_signedEbE4typeEjRS4_
00000000000017a0 T __ZN4llvm9StringRefC1Ev
0000000000005290 T __ZN4llvm9StringRefC2Ev
00000000000053c0 T __ZNK4llvm12function_refIFbcEEclEc
00000000000008b0 T __ZNK4llvm8OptionalINS_10AlignStyleEEcvbEv
00000000000042d0 T __ZNK4llvm8OptionalINS_15ReplacementItemEE8hasValueEv
00000000000040e0 T __ZNK4llvm9StringRef13find_first_ofEcm
                 U __ZNK4llvm9StringRef16find_last_not_ofES0_m
                 U __ZNK4llvm9StringRef17find_first_not_ofES0_m
0000000000001720 T __ZNK4llvm9StringRef4trimES0_
00000000000017c0 T __ZNK4llvm9StringRef5frontEv
0000000000004ad0 T __ZNK4llvm9StringRef5ltrimES0_
0000000000004ea0 T __ZNK4llvm9StringRef5rtrimES0_
0000000000000820 T __ZNK4llvm9StringRefixEm
                 U __ZNKSt3__120__vector_base_commonILb1EE20__throw_length_errorEv
0000000000006290 T __ZNKSt3__16vectorIN4llvm15ReplacementItemENS_9allocatorIS2_EEE8max_sizeEv
00000000000008d0 T __ZNR4llvm8OptionalINS_10AlignStyleEEdeEv
00000000000042f0 T __ZNR4llvm8OptionalINS_15ReplacementItemEEdeEv
0000000000005520 T __ZNSt3__113__vector_baseIN4llvm15ReplacementItemENS_9allocatorIS2_EEED2Ev
0000000000005c60 T __ZNSt3__114__split_bufferIN4llvm15ReplacementItemERNS_9allocatorIS2_EEEC1EmmS5_
0000000000006380 T __ZNSt3__114__split_bufferIN4llvm15ReplacementItemERNS_9allocatorIS2_EEEC2EmmS5_
0000000000006270 T __ZNSt3__114__split_bufferIN4llvm15ReplacementItemERNS_9allocatorIS2_EEED1Ev
00000000000065a0 T __ZNSt3__114__split_bufferIN4llvm15ReplacementItemERNS_9allocatorIS2_EEED2Ev
0000000000005920 T __ZNSt3__16vectorIN4llvm15ReplacementItemENS_9allocatorIS2_EEE21__push_back_slow_pathIRKS2_EEvOT_
0000000000005ca0 T __ZNSt3__16vectorIN4llvm15ReplacementItemENS_9allocatorIS2_EEE26__swap_out_circular_bufferERNS_14__split_bufferIS2_RS4_EE
0000000000004a00 T __ZNSt3__16vectorIN4llvm15ReplacementItemENS_9allocatorIS2_EEED1Ev
0000000000005500 T __ZNSt3__16vectorIN4llvm15ReplacementItemENS_9allocatorIS2_EEED2Ev
00000000000058a0 t __ZZN4llvm19formatv_object_base26splitLiteralAndReplacementENS_9StringRefEENK3$_0clEc
0000000000005470 T __ZZNK4llvm9StringRef11find_if_notENS_12function_refIFbcEEEmENKUlcE_clEc
                 U __ZdlPv
                 U __Znwm
                 U ___assert_rtn
                 U ___stack_chk_fail
                 U ___stack_chk_guard
                 U _abort
                 U _memchr
                 U _memcpy
                 U _memset
                 U _strlen

libLLVMSupport.a(FormattedStream.o):
00000000000152c8 b __ZGVZN4llvm5fdbgsEvE1S
0000000000015280 b __ZGVZN4llvm5ferrsEvE1S
0000000000015238 b __ZGVZN4llvm5foutsEvE1S
00000000000000a0 t __ZL14UpdatePositionRNSt3__14pairIjjEEPKcm
0000000000000930 T __ZN4llvm11raw_ostream13SetBufferSizeEm
0000000000000980 T __ZN4llvm11raw_ostream13SetUnbufferedEv
                 U __ZN4llvm11raw_ostream14flush_nonemptyEv
                 U __ZN4llvm11raw_ostream16SetBufferAndModeEPcmNS0_10BufferKindE
00000000000009c0 T __ZN4llvm11raw_ostream5flushEv
                 U __ZN4llvm11raw_ostream5writeEPKcm
                 U __ZN4llvm11raw_ostream6handleEv
                 U __ZN4llvm11raw_ostream6indentEj
0000000000000780 T __ZN4llvm11raw_ostreamC2Eb
                 U __ZN4llvm11raw_ostreamD2Ev
00000000000005c0 T __ZN4llvm21formatted_raw_ostream10resetColorEv
00000000000002e0 T __ZN4llvm21formatted_raw_ostream10write_implEPKcm
0000000000000180 T __ZN4llvm21formatted_raw_ostream11PadToColumnEj
0000000000000550 T __ZN4llvm21formatted_raw_ostream11changeColorENS_11raw_ostream6ColorsEbb
0000000000000600 T __ZN4llvm21formatted_raw_ostream12reverseColorEv
0000000000000860 T __ZN4llvm21formatted_raw_ostream13releaseStreamEv
0000000000000000 T __ZN4llvm21formatted_raw_ostream15ComputePositionEPKcm
00000000000002c0 T __ZN4llvm21formatted_raw_ostream9getColumnEv
00000000000007d0 T __ZN4llvm21formatted_raw_ostream9setStreamERNS_11raw_ostreamE
00000000000003d0 T __ZN4llvm21formatted_raw_ostreamC1ERNS_11raw_ostreamE
00000000000006c0 T __ZN4llvm21formatted_raw_ostreamC2ERNS_11raw_ostreamE
0000000000000520 T __ZN4llvm21formatted_raw_ostreamD0Ev
0000000000000400 T __ZN4llvm21formatted_raw_ostreamD1Ev
0000000000000a00 T __ZN4llvm21formatted_raw_ostreamD2Ev
                 U __ZN4llvm4dbgsEv
                 U __ZN4llvm4errsEv
                 U __ZN4llvm4outsEv
00000000000004a0 T __ZN4llvm5fdbgsEv
0000000000000420 T __ZN4llvm5ferrsEv
0000000000000350 T __ZN4llvm5foutsEv
0000000000000670 T __ZNK4llvm11raw_ostream10has_colorsEv
00000000000008d0 T __ZNK4llvm11raw_ostream13GetBufferSizeEv
0000000000000280 T __ZNK4llvm11raw_ostream14getBufferStartEv
00000000000002a0 T __ZNK4llvm11raw_ostream19GetNumBytesInBufferEv
                 U __ZNK4llvm11raw_ostream21preferred_buffer_sizeEv
0000000000000a50 T __ZNK4llvm11raw_ostream4tellEv
00000000000006a0 T __ZNK4llvm21formatted_raw_ostream11current_posEv
0000000000000640 T __ZNK4llvm21formatted_raw_ostream12is_displayedEv
                 U __ZTVN4llvm11raw_ostreamE
0000000000000a88 S __ZTVN4llvm21formatted_raw_ostreamE
0000000000015288 b __ZZN4llvm5fdbgsEvE1S
0000000000015240 b __ZZN4llvm5ferrsEvE1S
00000000000151f8 b __ZZN4llvm5foutsEvE1S
                 U __ZdlPv
                 U __Znam
                 U ___cxa_atexit
                 U ___cxa_guard_acquire
                 U ___cxa_guard_release
                 U ___dso_handle

libLLVMSupport.a(GlobPattern.o):
00000000000013f0 t __ZL11hasWildcardN4llvm9StringRefE
00000000000015c0 t __ZL4scanRN4llvm9StringRefES0_
00000000000042e0 t __ZL6expandN4llvm9StringRefES0_
0000000000003de0 T __ZN4llvm10make_errorINS_11StringErrorEJNS_5TwineENS_4errcEEEENS_5ErrorEDpOT0_
0000000000000000 T __ZN4llvm11GlobPattern6createENS_9StringRefE
00000000000067b0 T __ZN4llvm11GlobPatternC1EOS0_
00000000000013d0 T __ZN4llvm11GlobPatternC1Ev
00000000000067e0 T __ZN4llvm11GlobPatternC2EOS0_
0000000000003c00 T __ZN4llvm11GlobPatternC2Ev
0000000000002dd0 T __ZN4llvm11GlobPatternD1Ev
0000000000006040 T __ZN4llvm11GlobPatternD2Ev
                 U __ZN4llvm11StringErrorC1ERKNS_5TwineENSt3__110error_codeE
0000000000005430 T __ZN4llvm11make_uniqueINS_11StringErrorEJNS_5TwineENS_4errcEEEENSt3__19enable_ifIXntsr3std8is_arrayIT_EE5valueENS4_10unique_ptrIS6_NS4_14default_deleteIS6_EEEEE4typeEDpOT0_
0000000000006580 T __ZN4llvm12ErrorSuccessC1Ev
00000000000065a0 T __ZN4llvm12ErrorSuccessC2Ev
0000000000006560 T __ZN4llvm12ErrorSuccessD1Ev
00000000000066c0 T __ZN4llvm12ErrorSuccessD2Ev
0000000000005060 T __ZN4llvm15MutableArrayRefImEC1EPmm
0000000000004c50 T __ZN4llvm15MutableArrayRefImEC1Ev
0000000000005090 T __ZN4llvm15MutableArrayRefImEC2EPmm
0000000000004c70 T __ZN4llvm15MutableArrayRefImEC2Ev
00000000000055f0 T __ZN4llvm15make_error_codeENS_4errcE
                 U __ZN4llvm24DisableABIBreakingChecksE
0000000000007dc8 D __ZN4llvm30VerifyDisableABIBreakingChecksE
00000000000056e0 T __ZN4llvm5Error10setCheckedEb
0000000000005ba0 T __ZN4llvm5Error11takePayloadEv
0000000000006030 T __ZN4llvm5Error15assertIsCheckedEv
00000000000056c0 T __ZN4llvm5Error6setPtrEPNS_13ErrorInfoBaseE
00000000000064f0 T __ZN4llvm5Error7successEv
00000000000055d0 T __ZN4llvm5ErrorC1ENSt3__110unique_ptrINS_13ErrorInfoBaseENS1_14default_deleteIS3_EEEE
0000000000006530 T __ZN4llvm5ErrorC1EOS0_
0000000000005650 T __ZN4llvm5ErrorC2ENSt3__110unique_ptrINS_13ErrorInfoBaseENS1_14default_deleteIS3_EEEE
0000000000006600 T __ZN4llvm5ErrorC2EOS0_
00000000000065c0 T __ZN4llvm5ErrorC2Ev
0000000000002d60 T __ZN4llvm5ErrorD1Ev
0000000000005fe0 T __ZN4llvm5ErrorD2Ev
0000000000006650 T __ZN4llvm5ErroraSEOS0_
0000000000005ad0 T __ZN4llvm5ErrorcvbEv
0000000000005720 T __ZN4llvm5TwineC1EPKcRKNS_9StringRefE
0000000000005750 T __ZN4llvm5TwineC2EPKcRKNS_9StringRefE
0000000000007d70 T __ZN4llvm8ArrayRefINS_9BitVectorEEC1EPKS1_m
0000000000003950 T __ZN4llvm8ArrayRefINS_9BitVectorEEC1INSt3__19allocatorIS1_EEEERKNS4_6vectorIS1_T_EE
0000000000007da0 T __ZN4llvm8ArrayRefINS_9BitVectorEEC2EPKS1_m
0000000000007c10 T __ZN4llvm8ArrayRefINS_9BitVectorEEC2INSt3__19allocatorIS1_EEEERKNS4_6vectorIS1_T_EE
00000000000050d0 T __ZN4llvm8ArrayRefImEC2EPKmm
0000000000004cb0 T __ZN4llvm8ArrayRefImEC2Ev
0000000000006730 T __ZN4llvm8ExpectedINS_11GlobPatternEE10getStorageEv
0000000000006ba0 T __ZN4llvm8ExpectedINS_11GlobPatternEE15getErrorStorageEv
0000000000002d40 T __ZN4llvm8ExpectedINS_11GlobPatternEEC1ENS_5ErrorE
0000000000001510 T __ZN4llvm8ExpectedINS_11GlobPatternEEC1IS1_EEOT_PNSt3__19enable_ifIXsr3std14is_convertibleIS4_S1_EE5valueEvE4typeE
0000000000006b00 T __ZN4llvm8ExpectedINS_11GlobPatternEEC2ENS_5ErrorE
00000000000066e0 T __ZN4llvm8ExpectedINS_11GlobPatternEEC2IS1_EEOT_PNSt3__19enable_ifIXsr3std14is_convertibleIS4_S1_EE5valueEvE4typeE
0000000000004d20 T __ZN4llvm8ExpectedINS_9BitVectorEE10getStorageEv
0000000000005de0 T __ZN4llvm8ExpectedINS_9BitVectorEE15assertIsCheckedEv
0000000000005b20 T __ZN4llvm8ExpectedINS_9BitVectorEE15getErrorStorageEv
0000000000002a10 T __ZN4llvm8ExpectedINS_9BitVectorEE9takeErrorEv
0000000000005df0 T __ZN4llvm8ExpectedINS_9BitVectorEE9toPointerEPS1_
00000000000042c0 T __ZN4llvm8ExpectedINS_9BitVectorEEC1ENS_5ErrorE
0000000000004ae0 T __ZN4llvm8ExpectedINS_9BitVectorEEC1IRS1_EEOT_PNSt3__19enable_ifIXsr3std14is_convertibleIS5_S1_EE5valueEvE4typeE
0000000000003d60 T __ZN4llvm8ExpectedINS_9BitVectorEEC1IS1_EEOT_PNSt3__19enable_ifIXsr3std14is_convertibleIS4_S1_EE5valueEvE4typeE
0000000000005a30 T __ZN4llvm8ExpectedINS_9BitVectorEEC2ENS_5ErrorE
0000000000005e10 T __ZN4llvm8ExpectedINS_9BitVectorEEC2IRS1_EEOT_PNSt3__19enable_ifIXsr3std14is_convertibleIS5_S1_EE5valueEvE4typeE
0000000000004cd0 T __ZN4llvm8ExpectedINS_9BitVectorEEC2IS1_EEOT_PNSt3__19enable_ifIXsr3std14is_convertibleIS4_S1_EE5valueEvE4typeE
0000000000002db0 T __ZN4llvm8ExpectedINS_9BitVectorEED1Ev
00000000000063e0 T __ZN4llvm8ExpectedINS_9BitVectorEED2Ev
00000000000029f0 T __ZN4llvm8ExpectedINS_9BitVectorEEcvbEv
0000000000002d80 T __ZN4llvm8ExpectedINS_9BitVectorEEdeEv
0000000000004a10 T __ZN4llvm8ExpectedINS_9BitVectorEEptEv
00000000000061a0 T __ZN4llvm8OptionalINS_9StringRefEE10getPointerEv
0000000000006100 T __ZN4llvm8OptionalINS_9StringRefEE5resetEv
0000000000006a50 T __ZN4llvm8OptionalINS_9StringRefEEC1EOS2_
0000000000003ce0 T __ZN4llvm8OptionalINS_9StringRefEEC1Ev
0000000000006a80 T __ZN4llvm8OptionalINS_9StringRefEEC2EOS2_
0000000000003d00 T __ZN4llvm8OptionalINS_9StringRefEEC2Ev
00000000000060a0 T __ZN4llvm8OptionalINS_9StringRefEED1Ev
00000000000060e0 T __ZN4llvm8OptionalINS_9StringRefEED2Ev
0000000000001540 T __ZN4llvm8OptionalINS_9StringRefEEaSEOS1_
00000000000014a0 T __ZN4llvm8OptionalINS_9StringRefEEaSERKS1_
0000000000004fc0 T __ZN4llvm9BitVector10init_wordsENS_15MutableArrayRefImEEb
0000000000005120 T __ZN4llvm9BitVector15set_unused_bitsEb
0000000000005040 T __ZN4llvm9BitVector17clear_unused_bitsEv
0000000000004a50 T __ZN4llvm9BitVector4flipEv
0000000000004f70 T __ZN4llvm9BitVector8allocateEm
0000000000005f60 T __ZN4llvm9BitVector9referenceC1ERS0_j
0000000000005f90 T __ZN4llvm9BitVector9referenceC2ERS0_j
0000000000004ba0 T __ZN4llvm9BitVector9referenceaSEb
0000000000004da0 T __ZN4llvm9BitVectorC1EOS0_
0000000000005e60 T __ZN4llvm9BitVectorC1ERKS0_
0000000000003db0 T __ZN4llvm9BitVectorC1Ejb
0000000000003d40 T __ZN4llvm9BitVectorC1Ev
0000000000004dd0 T __ZN4llvm9BitVectorC2EOS0_
0000000000005e90 T __ZN4llvm9BitVectorC2ERKS0_
0000000000004ea0 T __ZN4llvm9BitVectorC2Ejb
0000000000004c20 T __ZN4llvm9BitVectorC2Ev
0000000000003d90 T __ZN4llvm9BitVectorD1Ev
0000000000004e30 T __ZN4llvm9BitVectorD2Ev
0000000000004b10 T __ZN4llvm9BitVectorixEj
0000000000004290 T __ZN4llvmplEPKcRKNS_9StringRefE
0000000000002df0 T __ZNK4llvm11GlobPattern5matchENS_9StringRefE
0000000000003290 T __ZNK4llvm11GlobPattern8matchOneENS_8ArrayRefINS_9BitVectorEEENS_9StringRefE
0000000000005220 T __ZNK4llvm15MutableArrayRefImE10drop_frontEm
0000000000004e60 T __ZNK4llvm15MutableArrayRefImE4dataEv
0000000000005370 T __ZNK4llvm15MutableArrayRefImE5sliceEmm
00000000000052d0 T __ZNK4llvm15MutableArrayRefImEixEm
0000000000005da0 T __ZNK4llvm5Error6getPtrEv
0000000000005960 T __ZNK4llvm5Twine10getLHSKindEv
0000000000005940 T __ZNK4llvm5Twine10getRHSKindEv
00000000000059d0 T __ZNK4llvm5Twine6isNullEv
0000000000005a00 T __ZNK4llvm5Twine7isEmptyEv
00000000000057f0 T __ZNK4llvm5Twine7isValidEv
0000000000005980 T __ZNK4llvm5Twine8isBinaryEv
0000000000005900 T __ZNK4llvm5Twine9isNullaryEv
0000000000007d50 T __ZNK4llvm8ArrayRefINS_9BitVectorEE4dataEv
0000000000007d30 T __ZNK4llvm8ArrayRefINS_9BitVectorEE4sizeEv
0000000000003980 T __ZNK4llvm8ArrayRefINS_9BitVectorEE5emptyEv
0000000000003a50 T __ZNK4llvm8ArrayRefINS_9BitVectorEE5sliceEm
0000000000007c70 T __ZNK4llvm8ArrayRefINS_9BitVectorEE5sliceEmm
00000000000039a0 T __ZNK4llvm8ArrayRefINS_9BitVectorEEixEm
0000000000004e80 T __ZNK4llvm8ArrayRefImE4dataEv
0000000000005100 T __ZNK4llvm8ArrayRefImE4sizeEv
0000000000007bb0 T __ZNK4llvm8OptionalINS_9StringRefEE10getPointerEv
0000000000003210 T __ZNK4llvm8OptionalINS_9StringRefEEcvbEv
0000000000004f50 T __ZNK4llvm9BitVector11NumBitWordsEj
0000000000003a30 T __ZNK4llvm9BitVector4sizeEv
0000000000003ab0 T __ZNK4llvm9BitVectorixEj
                 U __ZNK4llvm9StringRef13find_first_ofES0_m
0000000000003d20 T __ZNK4llvm9StringRef3endEv
0000000000005dc0 T __ZNK4llvm9StringRef5beginEv
0000000000003b70 T __ZNK4llvm9StringRefixEm
0000000000003230 T __ZNKR4llvm8OptionalINS_9StringRefEEdeEv
                 U __ZNKSt3__120__vector_base_commonILb1EE20__throw_length_errorEv
00000000000076c0 T __ZNKSt3__16vectorIN4llvm9BitVectorENS_9allocatorIS2_EEE8max_sizeEv
0000000000006140 T __ZNR4llvm8OptionalINS_9StringRefEEdeEv
0000000000006220 T __ZNSt3__113__vector_baseIN4llvm9BitVectorENS_9allocatorIS2_EEED2Ev
0000000000006f70 T __ZNSt3__114__split_bufferIN4llvm9BitVectorERNS_9allocatorIS2_EEEC1EmmS5_
00000000000077b0 T __ZNSt3__114__split_bufferIN4llvm9BitVectorERNS_9allocatorIS2_EEEC2EmmS5_
00000000000076a0 T __ZNSt3__114__split_bufferIN4llvm9BitVectorERNS_9allocatorIS2_EEED1Ev
00000000000079d0 T __ZNSt3__114__split_bufferIN4llvm9BitVectorERNS_9allocatorIS2_EEED2Ev
                 U __ZNSt3__116generic_categoryEv
0000000000006c20 T __ZNSt3__16vectorIN4llvm9BitVectorENS_9allocatorIS2_EEE21__push_back_slow_pathIRKS2_EEvOT_
0000000000006fb0 T __ZNSt3__16vectorIN4llvm9BitVectorENS_9allocatorIS2_EEE26__swap_out_circular_bufferERNS_14__split_bufferIS2_RS4_EE
00000000000060c0 T __ZNSt3__16vectorIN4llvm9BitVectorENS_9allocatorIS2_EEED1Ev
0000000000006200 T __ZNSt3__16vectorIN4llvm9BitVectorENS_9allocatorIS2_EEED2Ev
                 U __ZdlPv
                 U __Znwm
                 U ___assert_rtn
                 U ___stack_chk_fail
                 U ___stack_chk_guard
                 U _abort
                 U _free
                 U _malloc
                 U _memchr
                 U _memcmp
                 U _memcpy
                 U _memset
                 U _strlen

libLLVMSupport.a(GraphWriter.o):
000000000000f290 s __GLOBAL__sub_I_GraphWriter.cpp
0000000000053770 b __ZL14ViewBackground
000000000000c100 t __ZL14getProgramNameN4llvm12GraphProgram4NameE
000000000000be60 t __ZL15ExecGraphViewerN4llvm9StringRefERNSt3__16vectorIPKcNS1_9allocatorIS4_EEEES0_bRNS1_12basic_stringIcNS1_11char_traitsIcEENS5_IcEEEE
000000000000bbb0 t __ZN12_GLOBAL__N_112GraphSession14TryFindProgramEN4llvm9StringRefERNSt3__112basic_stringIcNS3_11char_traitsIcEENS3_9allocatorIcEEEE
000000000000bb70 t __ZN12_GLOBAL__N_112GraphSessionC1Ev
000000000000cbd0 t __ZN12_GLOBAL__N_112GraphSessionC2Ev
000000000000c5f0 t __ZN12_GLOBAL__N_112GraphSessionD1Ev
000000000000da30 t __ZN12_GLOBAL__N_112GraphSessionD2Ev
000000000000dd50 T __ZN4llvm11SmallPtrSetIPNS_2cl10SubCommandELj4EEC1Ev
000000000000dd90 T __ZN4llvm11SmallPtrSetIPNS_2cl10SubCommandELj4EEC2Ev
000000000000c690 T __ZN4llvm11SmallPtrSetIPNS_2cl10SubCommandELj4EED1Ev
000000000000c6b0 T __ZN4llvm11SmallPtrSetIPNS_2cl10SubCommandELj4EED2Ev
0000000000001790 T __ZN4llvm11SmallStringILj128EEC1Ev
000000000000c750 T __ZN4llvm11SmallStringILj128EEC2Ev
0000000000001b60 T __ZN4llvm11SmallStringILj128EED1Ev
000000000000cae0 T __ZN4llvm11SmallStringILj128EED2Ev
000000000000ccb0 T __ZN4llvm11SmallVectorINS_9StringRefELj8EEC1Ev
000000000000ce20 T __ZN4llvm11SmallVectorINS_9StringRefELj8EEC2Ev
000000000000cd60 T __ZN4llvm11SmallVectorINS_9StringRefELj8EED1Ev
000000000000cfb0 T __ZN4llvm11SmallVectorINS_9StringRefELj8EED2Ev
000000000000c770 T __ZN4llvm11SmallVectorIcLj128EEC2Ev
000000000000cb00 T __ZN4llvm11SmallVectorIcLj128EED2Ev
                 U __ZN4llvm11raw_ostream5writeEPKcm
000000000000cdd0 T __ZN4llvm11raw_ostreamC2Eb
000000000000c860 T __ZN4llvm11raw_ostreamlsENS_9StringRefE
00000000000017b0 T __ZN4llvm11raw_ostreamlsEPKc
0000000000001a40 T __ZN4llvm11raw_ostreamlsERKNS_15SmallVectorImplIcEE
0000000000001850 T __ZN4llvm11raw_ostreamlsERKNSt3__112basic_stringIcNS1_11char_traitsIcEENS1_9allocatorIcEEEE
0000000000001b80 T __ZN4llvm12DisplayGraphENS_9StringRefEbNS_12GraphProgram4NameE
000000000000ddd0 T __ZN4llvm15SmallPtrSetImplIPNS_2cl10SubCommandEEC2EPPKvj
000000000000c6d0 T __ZN4llvm15SmallPtrSetImplIPNS_2cl10SubCommandEED2Ev
000000000000c820 T __ZN4llvm15SmallVectorBaseC2EPvm
000000000000ce40 T __ZN4llvm15SmallVectorImplINS_9StringRefEEC2Ej
000000000000cfd0 T __ZN4llvm15SmallVectorImplINS_9StringRefEED2Ev
000000000000c790 T __ZN4llvm15SmallVectorImplIcEC2Ej
000000000000cb20 T __ZN4llvm15SmallVectorImplIcED2Ev
000000000000cc80 T __ZN4llvm18raw_string_ostreamC1ERNSt3__112basic_stringIcNS1_11char_traitsIcEENS1_9allocatorIcEEEE
000000000000cd80 T __ZN4llvm18raw_string_ostreamC2ERNSt3__112basic_stringIcNS1_11char_traitsIcEENS1_9allocatorIcEEEE
                 U __ZN4llvm18raw_string_ostreamD1Ev
000000000000de10 T __ZN4llvm19SmallPtrSetImplBaseC2EPPKvj
000000000000c6f0 T __ZN4llvm19SmallPtrSetImplBaseD2Ev
00000000000014e0 T __ZN4llvm19createGraphFilenameERKNS_5TwineERi
000000000000d040 T __ZN4llvm23SmallVectorTemplateBaseINS_9StringRefELb1EE13destroy_rangeEPS1_S3_
000000000000ce70 T __ZN4llvm23SmallVectorTemplateBaseINS_9StringRefELb1EEC2Em
000000000000cb90 T __ZN4llvm23SmallVectorTemplateBaseIcLb1EE13destroy_rangeEPcS2_
000000000000c7c0 T __ZN4llvm23SmallVectorTemplateBaseIcLb1EEC2Em
                 U __ZN4llvm24DisableABIBreakingChecksE
000000000000cea0 T __ZN4llvm25SmallVectorTemplateCommonINS_9StringRefEvEC2Em
000000000000c7f0 T __ZN4llvm25SmallVectorTemplateCommonIcvEC2Em
                 U __ZN4llvm25llvm_unreachable_internalEPKcS1_j
000000000000e1b0 T __ZN4llvm2cl10applicatorIA16_cE3optINS0_3optIbLb0ENS0_6parserIbEEEEEEvNS_9StringRefERT_
000000000000e240 T __ZN4llvm2cl10applicatorINS0_12OptionHiddenEE3optES2_RNS0_6OptionE
000000000000e2d0 T __ZN4llvm2cl10applicatorINS0_4descEE3optINS0_3optIbLb0ENS0_6parserIbEEEEEEvRKS2_RT_
000000000000dec0 T __ZN4llvm2cl11OptionValueIbEC1ERKb
000000000000def0 T __ZN4llvm2cl11OptionValueIbEC2ERKb
000000000000dc20 T __ZN4llvm2cl11opt_storageIbLb0ELb0EEC2Ev
                 U __ZN4llvm2cl12basic_parserIbEC2ERNS0_6OptionE
                 U __ZN4llvm2cl15GeneralCategoryE
000000000000df40 T __ZN4llvm2cl15OptionValueBaseIbLb0EEC2Ev
000000000000df80 T __ZN4llvm2cl15OptionValueCopyIbE8setValueERKb
000000000000e020 T __ZN4llvm2cl15OptionValueCopyIbEC2Ev
                 U __ZN4llvm2cl18GenericOptionValue6anchorEv
000000000000e060 T __ZN4llvm2cl18GenericOptionValueC2Ev
                 U __ZN4llvm2cl3optIbLb0ENS0_6parserIbEEE4doneEv
0000000000000030 T __ZN4llvm2cl3optIbLb0ENS0_6parserIbEEEC1IJA16_cNS0_12OptionHiddenENS0_4descEEEEDpRKT_
000000000000da90 T __ZN4llvm2cl3optIbLb0ENS0_6parserIbEEEC2IJA16_cNS0_12OptionHiddenENS0_4descEEEEDpRKT_
0000000000000070 T __ZN4llvm2cl3optIbLb0ENS0_6parserIbEEED1Ev
000000000000c640 T __ZN4llvm2cl3optIbLb0ENS0_6parserIbEEED2Ev
0000000000000000 T __ZN4llvm2cl4descC1ENS_9StringRefE
000000000000c610 T __ZN4llvm2cl4descC2ENS_9StringRefE
000000000000dc80 T __ZN4llvm2cl5applyINS0_3optIbLb0ENS0_6parserIbEEEEA16_cJNS0_12OptionHiddenENS0_4descEEEEvPT_RKT0_DpRKT1_
000000000000e200 T __ZN4llvm2cl5applyINS0_3optIbLb0ENS0_6parserIbEEEENS0_12OptionHiddenEJNS0_4descEEEEvPT_RKT0_DpRKT1_
000000000000e270 T __ZN4llvm2cl5applyINS0_3optIbLb0ENS0_6parserIbEEEENS0_4descEEEvPT_RKT0_
000000000000e2a0 T __ZN4llvm2cl6Option13setHiddenFlagENS0_12OptionHiddenE
000000000000e340 T __ZN4llvm2cl6Option14setDescriptionENS_9StringRefE
                 U __ZN4llvm2cl6Option9setArgStrENS_9StringRefE
000000000000db20 T __ZN4llvm2cl6OptionC2ENS0_18NumOccurrencesFlagENS0_12OptionHiddenE
000000000000c660 T __ZN4llvm2cl6OptionD2Ev
000000000000dc50 T __ZN4llvm2cl6parserIbEC1ERNS0_6OptionE
000000000000e170 T __ZN4llvm2cl6parserIbEC2ERNS0_6OptionE
000000000000f2a0 D __ZN4llvm30VerifyDisableABIBreakingChecksE
0000000000000090 T __ZN4llvm3DOT12EscapeStringERKNSt3__112basic_stringIcNS1_11char_traitsIcEENS1_9allocatorIcEEEE
0000000000001430 T __ZN4llvm3DOT14getColorStringEj
                 U __ZN4llvm3sys13ExecuteNoWaitENS_9StringRefEPPKcS4_PPKS1_jPNSt3__112basic_stringIcNS8_11char_traitsIcEENS8_9allocatorIcEEEEPb
                 U __ZN4llvm3sys14ExecuteAndWaitENS_9StringRefEPPKcS4_PPKS1_jjPNSt3__112basic_stringIcNS8_11char_traitsIcEENS8_9allocatorIcEEEEPb
                 U __ZN4llvm3sys17findProgramByNameENS_9StringRefENS_8ArrayRefIS1_EE
                 U __ZN4llvm3sys2fs19createTemporaryFileERKNS_5TwineENS_9StringRefERiRNS_15SmallVectorImplIcEE
                 U __ZN4llvm3sys2fs6removeERKNS_5TwineEb
                 U __ZN4llvm4errsEv
000000000000d750 T __ZN4llvm5TwineC1ENS0_5ChildENS0_8NodeKindES1_S2_
000000000000d6d0 T __ZN4llvm5TwineC1ENS0_8NodeKindE
000000000000d080 T __ZN4llvm5TwineC1ERKNS_9StringRefE
000000000000d8d0 T __ZN4llvm5TwineC1ERKNS_9StringRefEPKc
000000000000c5c0 T __ZN4llvm5TwineC1ERKNSt3__112basic_stringIcNS1_11char_traitsIcEENS1_9allocatorIcEEEE
000000000000d820 T __ZN4llvm5TwineC2ENS0_5ChildENS0_8NodeKindES1_S2_
000000000000d7a0 T __ZN4llvm5TwineC2ENS0_8NodeKindE
000000000000d0b0 T __ZN4llvm5TwineC2ERKNS_9StringRefE
000000000000d900 T __ZN4llvm5TwineC2ERKNS_9StringRefEPKc
000000000000d9a0 T __ZN4llvm5TwineC2ERKNSt3__112basic_stringIcNS1_11char_traitsIcEENS1_9allocatorIcEEEE
000000000000cef0 T __ZN4llvm7ErrorOrINSt3__112basic_stringIcNS1_11char_traitsIcEENS1_9allocatorIcEEEEE10getStorageEv
000000000000cd40 T __ZN4llvm7ErrorOrINSt3__112basic_stringIcNS1_11char_traitsIcEENS1_9allocatorIcEEEEED1Ev
000000000000cf70 T __ZN4llvm7ErrorOrINSt3__112basic_stringIcNS1_11char_traitsIcEENS1_9allocatorIcEEEEED2Ev
000000000000cd20 T __ZN4llvm7ErrorOrINSt3__112basic_stringIcNS1_11char_traitsIcEENS1_9allocatorIcEEEEEdeEv
000000000000ccd0 T __ZN4llvm8ArrayRefINS_9StringRefEEC1ENS_8NoneTypeE
000000000000ced0 T __ZN4llvm8ArrayRefINS_9StringRefEEC2ENS_8NoneTypeE
000000000000dd30 T __ZN4llvm9StringRefC1Ev
000000000000dd70 T __ZN4llvm9StringRefC2Ev
000000000000c560 T __ZN4llvmplERKNS_5TwineES2_
000000000000c590 T __ZN4llvmplERKNS_9StringRefEPKc
0000000000001ab0 T __ZNK4llvm11SmallStringILj128EE3strEv
000000000000c730 T __ZNK4llvm19SmallPtrSetImplBase7isSmallEv
000000000000d050 T __ZNK4llvm25SmallVectorTemplateCommonINS_9StringRefEvE7isSmallEv
000000000000c920 T __ZNK4llvm25SmallVectorTemplateCommonIcvE4dataEv
000000000000cba0 T __ZNK4llvm25SmallVectorTemplateCommonIcvE7isSmallEv
000000000000e370 T __ZNK4llvm2cl11opt_storageIbLb0ELb0EE8getValueEv
000000000000bb90 T __ZNK4llvm2cl11opt_storageIbLb0ELb0EEcvbEv
000000000000dfb0 T __ZNK4llvm2cl15OptionValueCopyIbE7compareERKNS0_18GenericOptionValueE
000000000000e0a0 T __ZNK4llvm2cl15OptionValueCopyIbE7compareERKb
000000000000e0f0 T __ZNK4llvm2cl15OptionValueCopyIbE8getValueEv
000000000000e080 T __ZNK4llvm2cl15OptionValueCopyIbE8hasValueEv
000000000000e300 T __ZNK4llvm2cl4desc5applyERNS0_6OptionE
000000000000d2b0 T __ZNK4llvm5Twine10getLHSKindEv
000000000000d290 T __ZNK4llvm5Twine10getRHSKindEv
                 U __ZNK4llvm5Twine3strEv
000000000000d540 T __ZNK4llvm5Twine6concatERKS0_
000000000000d320 T __ZNK4llvm5Twine6isNullEv
000000000000d350 T __ZNK4llvm5Twine7isEmptyEv
000000000000d700 T __ZNK4llvm5Twine7isUnaryEv
000000000000d140 T __ZNK4llvm5Twine7isValidEv
000000000000d2d0 T __ZNK4llvm5Twine8isBinaryEv
000000000000d250 T __ZNK4llvm5Twine9isNullaryEv
000000000000cd00 T __ZNK4llvm7ErrorOrINSt3__112basic_stringIcNS1_11char_traitsIcEENS1_9allocatorIcEEEEEcvbEv
000000000000c940 T __ZNK4llvm9StringRef3strEv
                 U __ZNK4llvm9StringRef5splitERNS_15SmallVectorImplIS0_EEcib
0000000000001b30 T __ZNK4llvm9StringRefcvNSt3__112basic_stringIcNS1_11char_traitsIcEENS1_9allocatorIcEEEEEv
                 U __ZNKSt3__110error_code7messageEv
                 U __ZNKSt3__120__vector_base_commonILb1EE20__throw_length_errorEv
000000000000ece0 T __ZNKSt3__16vectorIPKcNS_9allocatorIS2_EEE8max_sizeEv
000000000000da70 T __ZNSt3__111char_traitsIcE6assignERcRKc
000000000000da50 T __ZNSt3__111char_traitsIcE6lengthEPKc
                 U __ZNSt3__112basic_stringIcNS_11char_traitsIcEENS_9allocatorIcEEE5eraseEmm
                 U __ZNSt3__112basic_stringIcNS_11char_traitsIcEENS_9allocatorIcEEE6__initEPKcm
                 U __ZNSt3__112basic_stringIcNS_11char_traitsIcEENS_9allocatorIcEEE6__initEPKcmm
                 U __ZNSt3__112basic_stringIcNS_11char_traitsIcEENS_9allocatorIcEEE6appendEPKcm
                 U __ZNSt3__112basic_stringIcNS_11char_traitsIcEENS_9allocatorIcEEE6insertENS_11__wrap_iterIPKcEEc
                 U __ZNSt3__112basic_stringIcNS_11char_traitsIcEENS_9allocatorIcEEE7reserveEm
                 U __ZNSt3__112basic_stringIcNS_11char_traitsIcEENS_9allocatorIcEEEC1ERKS5_
                 U __ZNSt3__112basic_stringIcNS_11char_traitsIcEENS_9allocatorIcEEED1Ev
                 U __ZNSt3__112basic_stringIcNS_11char_traitsIcEENS_9allocatorIcEEEaSERKS5_
000000000000d3a0 T __ZNSt3__113__vector_baseIPKcNS_9allocatorIS2_EEED2Ev
000000000000e6b0 T __ZNSt3__114__split_bufferIPKcRNS_9allocatorIS2_EEEC1EmmS5_
000000000000edd0 T __ZNSt3__114__split_bufferIPKcRNS_9allocatorIS2_EEEC2EmmS5_
000000000000ecc0 T __ZNSt3__114__split_bufferIPKcRNS_9allocatorIS2_EEED1Ev
000000000000eff0 T __ZNSt3__114__split_bufferIPKcRNS_9allocatorIS2_EEED2Ev
000000000000e390 T __ZNSt3__16vectorIPKcNS_9allocatorIS2_EEE21__push_back_slow_pathIS2_EEvOT_
000000000000e6f0 T __ZNSt3__16vectorIPKcNS_9allocatorIS2_EEE26__swap_out_circular_bufferERNS_14__split_bufferIS2_RS4_EE
000000000000c0e0 T __ZNSt3__16vectorIPKcNS_9allocatorIS2_EEED1Ev
000000000000d380 T __ZNSt3__16vectorIPKcNS_9allocatorIS2_EEED2Ev
000000000000c1c0 T __ZNSt3__1plIcNS_11char_traitsIcEENS_9allocatorIcEEEENS_12basic_stringIT_T0_T1_EERKS9_PKS6_
                 U __ZTVN4llvm11raw_ostreamE
                 U __ZTVN4llvm18raw_string_ostreamE
000000000000f350 D __ZTVN4llvm2cl11OptionValueIbEE
000000000000f370 D __ZTVN4llvm2cl15OptionValueBaseIbLb0EEE
000000000000f390 D __ZTVN4llvm2cl15OptionValueCopyIbEE
                 U __ZTVN4llvm2cl18GenericOptionValueE
                 U __ZTVN4llvm2cl3optIbLb0ENS0_6parserIbEEEE
                 U __ZTVN4llvm2cl6OptionE
                 U __ZTVN4llvm2cl6parserIbEE
000000000000f2b0 d __ZZN4llvm3DOT14getColorStringEjE6Colors
000000000000f9a8 s __ZZN4llvm3DOT14getColorStringEjE9NumColors
                 U __ZdlPv
                 U __Znwm
                 U ___assert_rtn
                 U ___cxa_atexit
000000000000f1c0 s ___cxx_global_var_init
                 U ___dso_handle
                 U ___stack_chk_fail
                 U ___stack_chk_guard
                 U _abort
                 U _free
                 U _memcpy
                 U _memset
                 U _strlen

libLLVMSupport.a(Hashing.o):
0000000000000000 T __ZN4llvm29set_fixed_execution_hash_seedEm
0000000000004f40 S __ZN4llvm7hashing6detail19fixed_seed_overrideE

libLLVMSupport.a(Host.o):
0000000000042780 b __ZGVZN4llvm3sys23getHostNumPhysicalCoresEvE8NumCores
000000000000eab0 t __ZL10getX86XCR0PjS_
000000000000f300 t __ZL12getOSVersionv
0000000000009bd0 t __ZL16isCpuIdSupportedv
0000000000009be0 t __ZL18getX86CpuIDAndInfojPjS_S_S_
0000000000009c50 t __ZL20detectX86FamilyModeljPjS_
0000000000009cd0 t __ZL20getAvailableFeaturesjjjPjS_
000000000000eaf0 t __ZL20getX86CpuIDAndInfoExjjPjS_S_S_
0000000000000330 t __ZL21updateTripleOSVersionNSt3__112basic_stringIcNS_11char_traitsIcEENS_9allocatorIcEEEE
000000000000af30 t __ZL27computeHostNumPhysicalCoresv
000000000000abf0 t __ZL29getAMDProcessorTypeAndSubtypejjjPjS_
000000000000a380 t __ZL31getIntelProcessorTypeAndSubtypejjjjjPjS_
0000000000005b30 T __ZN4llvm11SmallVectorINS_9StringRefELj32EEC1Ev
000000000000faf0 T __ZN4llvm11SmallVectorINS_9StringRefELj32EEC2Ev
0000000000005f40 T __ZN4llvm11SmallVectorINS_9StringRefELj32EED1Ev
000000000000f710 T __ZN4llvm11SmallVectorINS_9StringRefELj32EED2Ev
                 U __ZN4llvm13StringMapImpl11RehashTableEj
                 U __ZN4llvm13StringMapImpl15LookupBucketForENS_9StringRefE
000000000000ffc0 T __ZN4llvm13StringMapImpl15getTombstoneValEv
0000000000010020 T __ZN4llvm14StringMapEntryIbE6CreateINS_15MallocAllocatorEJEEEPS1_NS_9StringRefERT_DpOT0_
0000000000010220 T __ZN4llvm14StringMapEntryIbEC1Ej
0000000000010270 T __ZN4llvm14StringMapEntryIbEC2Ej
00000000000101f0 T __ZN4llvm15MallocAllocator8AllocateEmm
000000000000fba0 T __ZN4llvm15SmallVectorBaseC2EPvm
000000000000fb10 T __ZN4llvm15SmallVectorImplINS_9StringRefEEC2Ej
000000000000f730 T __ZN4llvm15SmallVectorImplINS_9StringRefEED2Ev
0000000000010170 T __ZN4llvm17StringMapIterBaseINS_17StringMapIteratorIbEENS_14StringMapEntryIbEEE23AdvancePastEmptyBucketsEv
0000000000010130 T __ZN4llvm17StringMapIterBaseINS_17StringMapIteratorIbEENS_14StringMapEntryIbEEEC2EPPNS_18StringMapEntryBaseEb
000000000000ffe0 T __ZN4llvm17StringMapIteratorIbEC1EPPNS_18StringMapEntryBaseEb
00000000000100f0 T __ZN4llvm17StringMapIteratorIbEC2EPPNS_18StringMapEntryBaseEb
00000000000102b0 T __ZN4llvm18StringMapEntryBaseC2Ej
                 U __ZN4llvm20getAsUnsignedIntegerENS_9StringRefEjRy
000000000000ffa0 T __ZN4llvm20iterator_facade_baseINS_17StringMapIteratorIbEENSt3__120forward_iterator_tagENS_14StringMapEntryIbEElPS6_RS6_EptEv
                 U __ZN4llvm22report_bad_alloc_errorEPKcb
000000000000f7a0 T __ZN4llvm23SmallVectorTemplateBaseINS_9StringRefELb1EE13destroy_rangeEPS1_S3_
000000000000fb40 T __ZN4llvm23SmallVectorTemplateBaseINS_9StringRefELb1EEC2Em
                 U __ZN4llvm24DisableABIBreakingChecksE
000000000000fb70 T __ZN4llvm25SmallVectorTemplateCommonINS_9StringRefEvEC2Em
                 U __ZN4llvm25llvm_unreachable_internalEPKcS1_j
00000000000102e8 D __ZN4llvm30VerifyDisableABIBreakingChecksE
0000000000007970 T __ZN4llvm3sys14getHostCPUNameEv
000000000000eb60 T __ZN4llvm3sys16getProcessTripleEv
000000000000b010 T __ZN4llvm3sys18getHostCPUFeaturesERNS_9StringMapIbNS_15MallocAllocatorEEE
0000000000000000 T __ZN4llvm3sys22getDefaultTargetTripleEv
000000000000aee0 T __ZN4llvm3sys23getHostNumPhysicalCoresEv
0000000000002690 T __ZN4llvm3sys6detail20getHostCPUNameForARMERKNS_9StringRefE
00000000000078e0 T __ZN4llvm3sys6detail20getHostCPUNameForBPFEv
0000000000005f60 T __ZN4llvm3sys6detail22getHostCPUNameForS390xERKNS_9StringRefE
0000000000001160 T __ZN4llvm3sys6detail24getHostCPUNameForPowerPCERKNS_9StringRefE
000000000000ef40 T __ZN4llvm5TwineC1ERKNSt3__112basic_stringIcNS1_11char_traitsIcEENS1_9allocatorIcEEEE
000000000000f7e0 T __ZN4llvm5TwineC2ERKNSt3__112basic_stringIcNS1_11char_traitsIcEENS1_9allocatorIcEEEE
                 U __ZN4llvm6Triple9normalizeENS_9StringRefE
                 U __ZN4llvm6TripleC1ERKNS_5TwineE
000000000000f2d0 T __ZN4llvm6TripleD1Ev
000000000000fad0 T __ZN4llvm6TripleD2Ev
000000000000ef70 T __ZN4llvm6TripleaSEOS0_
000000000000fbe0 T __ZN4llvm9StringMapIbNS_15MallocAllocatorEE11try_emplaceIJEEENSt3__14pairINS_17StringMapIteratorIbEEbEENS_9StringRefEDpOT_
000000000000ea50 T __ZN4llvm9StringMapIbNS_15MallocAllocatorEEixENS_9StringRefE
0000000000005b50 T __ZN4llvm9StringRefC1Ev
000000000000f6f0 T __ZN4llvm9StringRefC2Ev
0000000000010250 T __ZNK4llvm14StringMapEntryIbE10getKeyDataEv
00000000000102d0 T __ZNK4llvm17StringMapIteratorIbEdeEv
000000000000f7b0 T __ZNK4llvm25SmallVectorTemplateCommonINS_9StringRefEvE7isSmallEv
000000000000f9e0 T __ZNK4llvm5Twine10getLHSKindEv
000000000000f9c0 T __ZNK4llvm5Twine10getRHSKindEv
000000000000fa50 T __ZNK4llvm5Twine6isNullEv
000000000000fa80 T __ZNK4llvm5Twine7isEmptyEv
000000000000f870 T __ZNK4llvm5Twine7isValidEv
000000000000fa00 T __ZNK4llvm5Twine8isBinaryEv
000000000000f980 T __ZNK4llvm5Twine9isNullaryEv
                 U __ZNK4llvm6Triple11isArch32BitEv
                 U __ZNK4llvm6Triple19get64BitArchVariantEv
000000000000f2f0 T __ZNK4llvm6Triple3strEv
0000000000007860 T __ZNK4llvm9StringRef12getAsIntegerIjEENSt3__19enable_ifIXntsr3std14numeric_limitsIT_EE9is_signedEbE4typeEjRS4_
                 U __ZNK4llvm9StringRef17find_first_not_ofES0_m
0000000000002670 T __ZNK4llvm9StringRef3endEv
                 U __ZNK4llvm9StringRef4findES0_m
0000000000002650 T __ZNK4llvm9StringRef5beginEv
0000000000005b70 T __ZNK4llvm9StringRef5ltrimES0_
                 U __ZNK4llvm9StringRef5splitERNS_15SmallVectorImplIS0_EES0_ib
                 U __ZNK4llvm9StringRef5splitERNS_15SmallVectorImplIS0_EEcib
000000000000f6e0 T __ZNSt3__111char_traitsIcE11to_int_typeEc
000000000000f630 T __ZNSt3__111char_traitsIcE4findEPKcmRS2_
000000000000fab0 T __ZNSt3__111char_traitsIcE6assignERcRKc
000000000000f4f0 T __ZNSt3__111char_traitsIcE6lengthEPKc
000000000000f690 T __ZNSt3__111char_traitsIcE7compareEPKcS3_m
                 U __ZNSt3__112basic_stringIcNS_11char_traitsIcEENS_9allocatorIcEEE6__initEPKcm
                 U __ZNSt3__112basic_stringIcNS_11char_traitsIcEENS_9allocatorIcEEE6appendEPKc
                 U __ZNSt3__112basic_stringIcNS_11char_traitsIcEENS_9allocatorIcEEE6appendEPKcm
                 U __ZNSt3__112basic_stringIcNS_11char_traitsIcEENS_9allocatorIcEEE6resizeEmc
                 U __ZNSt3__112basic_stringIcNS_11char_traitsIcEENS_9allocatorIcEEE7reserveEm
                 U __ZNSt3__112basic_stringIcNS_11char_traitsIcEENS_9allocatorIcEEEC1ERKS5_
                 U __ZNSt3__112basic_stringIcNS_11char_traitsIcEENS_9allocatorIcEEED1Ev
000000000000f510 T __ZNSt3__118__search_substringIcNS_11char_traitsIcEEEEPKT_S5_S5_S5_S5_
0000000000042778 b __ZZN4llvm3sys23getHostNumPhysicalCoresEvE8NumCores
                 U ___assert_rtn
                 U ___cxa_guard_acquire
                 U ___cxa_guard_release
                 U ___stack_chk_fail
                 U ___stack_chk_guard
                 U _free
                 U _malloc
                 U _memchr
                 U _memcmp
                 U _memcpy
                 U _memset
                 U _strlen
                 U _sysctl
                 U _sysctlbyname
                 U _uname

libLLVMSupport.a(IntEqClasses.o):
0000000000001180 T __ZN4llvm11SmallVectorIjLj8EEC1Ev
0000000000001290 T __ZN4llvm11SmallVectorIjLj8EEC2Ev
00000000000011a0 T __ZN4llvm11SmallVectorIjLj8EED1Ev
00000000000011c0 T __ZN4llvm11SmallVectorIjLj8EED2Ev
0000000000000c90 T __ZN4llvm12IntEqClasses10uncompressEv
0000000000000000 T __ZN4llvm12IntEqClasses4growEj
00000000000001c0 T __ZN4llvm12IntEqClasses4joinEjj
00000000000008e0 T __ZN4llvm12IntEqClasses8compressEv
                 U __ZN4llvm15SmallVectorBase8grow_podEPvmm
0000000000001340 T __ZN4llvm15SmallVectorBaseC2EPvm
0000000000000100 T __ZN4llvm15SmallVectorImplIjE7reserveEm
00000000000012b0 T __ZN4llvm15SmallVectorImplIjEC2Ej
00000000000011e0 T __ZN4llvm15SmallVectorImplIjED2Ev
0000000000001250 T __ZN4llvm23SmallVectorTemplateBaseIjLb1EE13destroy_rangeEPjS2_
00000000000013c0 T __ZN4llvm23SmallVectorTemplateBaseIjLb1EE4growEm
0000000000000140 T __ZN4llvm23SmallVectorTemplateBaseIjLb1EE9push_backERKj
00000000000012e0 T __ZN4llvm23SmallVectorTemplateBaseIjLb1EEC2Em
0000000000001460 T __ZN4llvm25SmallVectorTemplateCommonIjvE6setEndEPj
0000000000001420 T __ZN4llvm25SmallVectorTemplateCommonIjvE8grow_podEmm
0000000000001310 T __ZN4llvm25SmallVectorTemplateCommonIjvEC2Em
0000000000000710 T __ZNK4llvm12IntEqClasses10findLeaderEj
0000000000001400 T __ZNK4llvm25SmallVectorTemplateCommonIjvE12capacity_ptrEv
0000000000001260 T __ZNK4llvm25SmallVectorTemplateCommonIjvE7isSmallEv
0000000000001380 T __ZNK4llvm25SmallVectorTemplateCommonIjvE8capacityEv
                 U ___assert_rtn
                 U _free

libLLVMSupport.a(IntervalMap.o):
0000000000002400 T __ZN4llvm14PointerIntPairIPvLj6EjNS_15IntervalMapImpl7NodeRef25CacheAlignedPointerTraitsENS_18PointerIntPairInfoIS1_Lj6ES4_EEEC1Ev
0000000000002420 T __ZN4llvm14PointerIntPairIPvLj6EjNS_15IntervalMapImpl7NodeRef25CacheAlignedPointerTraitsENS_18PointerIntPairInfoIS1_Lj6ES4_EEEC2Ev
0000000000001cf0 T __ZN4llvm15IntervalMapImpl10distributeEjjjPKjPjjb
0000000000000000 T __ZN4llvm15IntervalMapImpl4Path11replaceRootEPvjNSt3__14pairIjjEE
0000000000000730 T __ZN4llvm15IntervalMapImpl4Path5EntryC1ENS0_7NodeRefEj
0000000000000130 T __ZN4llvm15IntervalMapImpl4Path5EntryC1EPvjj
0000000000002390 T __ZN4llvm15IntervalMapImpl4Path5EntryC2ENS0_7NodeRefEj
0000000000002360 T __ZN4llvm15IntervalMapImpl4Path5EntryC2EPvjj
0000000000000c60 T __ZN4llvm15IntervalMapImpl4Path8moveLeftEj
0000000000001840 T __ZN4llvm15IntervalMapImpl4Path9moveRightEj
0000000000002480 T __ZN4llvm15IntervalMapImpl7NodeRef25CacheAlignedPointerTraits18getFromVoidPointerEPv
0000000000000bc0 T __ZN4llvm15IntervalMapImpl7NodeRefC1Ev
00000000000023e0 T __ZN4llvm15IntervalMapImpl7NodeRefC2Ev
                 U __ZN4llvm15SmallVectorBase8grow_podEPvmm
00000000000001d0 T __ZN4llvm15SmallVectorImplINS_15IntervalMapImpl4Path5EntryEE6insertEPS3_OS3_
0000000000001290 T __ZN4llvm15SmallVectorImplINS_15IntervalMapImpl4Path5EntryEE6resizeEmRKS3_
0000000000002460 T __ZN4llvm18PointerIntPairInfoIPvLj6ENS_15IntervalMapImpl7NodeRef25CacheAlignedPointerTraitsEE10getPointerEl
00000000000024c0 T __ZN4llvm18PointerIntPairInfoIPvLj6ENS_15IntervalMapImpl7NodeRef25CacheAlignedPointerTraitsEE6getIntEl
00000000000026f0 T __ZN4llvm23SmallVectorTemplateBaseINS_15IntervalMapImpl4Path5EntryELb1EE13destroy_rangeEPS3_S5_
00000000000025d0 T __ZN4llvm23SmallVectorTemplateBaseINS_15IntervalMapImpl4Path5EntryELb1EE4growEm
0000000000002550 T __ZN4llvm23SmallVectorTemplateBaseINS_15IntervalMapImpl4Path5EntryELb1EE9push_backERKS3_
                 U __ZN4llvm24DisableABIBreakingChecksE
0000000000002610 T __ZN4llvm25SmallVectorTemplateCommonINS_15IntervalMapImpl4Path5EntryEvE4backEv
0000000000000160 T __ZN4llvm25SmallVectorTemplateCommonINS_15IntervalMapImpl4Path5EntryEvE5frontEv
0000000000002690 T __ZN4llvm25SmallVectorTemplateCommonINS_15IntervalMapImpl4Path5EntryEvE6setEndEPS3_
00000000000026b0 T __ZN4llvm25SmallVectorTemplateCommonINS_15IntervalMapImpl4Path5EntryEvE8grow_podEmm
00000000000027a8 D __ZN4llvm30VerifyDisableABIBreakingChecksE
0000000000002440 T __ZNK4llvm14PointerIntPairIPvLj6EjNS_15IntervalMapImpl7NodeRef25CacheAlignedPointerTraitsENS_18PointerIntPairInfoIS1_Lj6ES4_EEE10getPointerEv
0000000000002490 T __ZNK4llvm14PointerIntPairIPvLj6EjNS_15IntervalMapImpl7NodeRef25CacheAlignedPointerTraitsENS_18PointerIntPairInfoIS1_Lj6ES4_EEE6getIntEv
00000000000016c0 T __ZNK4llvm15IntervalMapImpl4Path11atLastEntryEj
0000000000000760 T __ZNK4llvm15IntervalMapImpl4Path14getLeftSiblingEj
0000000000001420 T __ZNK4llvm15IntervalMapImpl4Path15getRightSiblingEj
0000000000000be0 T __ZNK4llvm15IntervalMapImpl4Path5Entry7subtreeEj
00000000000011e0 T __ZNK4llvm15IntervalMapImpl4Path5validEv
0000000000001250 T __ZNK4llvm15IntervalMapImpl4Path6heightEv
00000000000005c0 T __ZNK4llvm15IntervalMapImpl4Path7subtreeEj
0000000000000c40 T __ZNK4llvm15IntervalMapImpl7NodeRef4sizeEv
0000000000000c10 T __ZNK4llvm15IntervalMapImpl7NodeRef7subtreeEj
0000000000000110 T __ZNK4llvm15SmallVectorBase5emptyEv
0000000000002790 T __ZNK4llvm25SmallVectorTemplateCommonINS_15IntervalMapImpl4Path5EntryEvE12capacity_ptrEv
00000000000024e0 T __ZNK4llvm25SmallVectorTemplateCommonINS_15IntervalMapImpl4Path5EntryEvE5frontEv
0000000000002700 T __ZNK4llvm25SmallVectorTemplateCommonINS_15IntervalMapImpl4Path5EntryEvE8capacityEv
0000000000002740 T __ZNSt3__118uninitialized_fillIPN4llvm15IntervalMapImpl4Path5EntryES4_EEvT_S6_RKT0_
                 U ___assert_rtn
                 U _memmove
                 U _memset

libLLVMSupport.a(JamCRC.o):
00000000000000e0 s __ZL8CRCTable
0000000000000000 T __ZN4llvm6JamCRC6updateENS_8ArrayRefIcEE
00000000000000c0 T __ZNK4llvm8ArrayRefIcE3endEv
00000000000000a0 T __ZNK4llvm8ArrayRefIcE5beginEv

libLLVMSupport.a(KnownBits.o):
0000000000001410 T __ZN4llvm5APInt10setSignBitEv
0000000000000d10 T __ZN4llvm5APInt11flipAllBitsEv
0000000000000e50 T __ZN4llvm5APInt11getNumWordsEj
                 U __ZN4llvm5APInt12initSlowCaseERKS0_
0000000000000d90 T __ZN4llvm5APInt15clearUnusedBitsEv
                 U __ZN4llvm5APInt16OrAssignSlowCaseERKS0_
                 U __ZN4llvm5APInt17AndAssignSlowCaseERKS0_
                 U __ZN4llvm5APInt17XorAssignSlowCaseERKS0_
                 U __ZN4llvm5APInt19flipAllBitsSlowCaseEv
0000000000001440 T __ZN4llvm5APInt6setBitEj
0000000000001320 T __ZN4llvm5APInt7maskBitEj
00000000000013d0 T __ZN4llvm5APInt8whichBitEj
00000000000013f0 T __ZN4llvm5APInt9whichWordEj
0000000000000930 T __ZN4llvm5APIntC1EOS0_
00000000000007f0 T __ZN4llvm5APIntC1ERKS0_
0000000000001210 T __ZN4llvm5APIntC1Ev
00000000000010e0 T __ZN4llvm5APIntC2EOS0_
0000000000000e70 T __ZN4llvm5APIntC2ERKS0_
0000000000001230 T __ZN4llvm5APIntC2Ev
0000000000000820 T __ZN4llvm5APIntD1Ev
0000000000000ed0 T __ZN4llvm5APIntD2Ev
0000000000001120 T __ZN4llvm5APIntaNERKS0_
0000000000000aa0 T __ZN4llvm5APIntaSEOS0_
0000000000000f60 T __ZN4llvm5APInteOERKS0_
0000000000001020 T __ZN4llvm5APIntoRERKS0_
                 U __ZN4llvm5APIntpLERKS0_
                 U __ZN4llvm5APIntpLEy
0000000000000c70 T __ZN4llvm9KnownBits12makeNegativeEv
0000000000000bc0 T __ZN4llvm9KnownBits15makeNonNegativeEv
0000000000000000 T __ZN4llvm9KnownBits16computeForAddSubEbbRKS0_S0_
0000000000000a80 T __ZN4llvm9KnownBitsC1Ev
00000000000011e0 T __ZN4llvm9KnownBitsC2Ev
0000000000000cf0 T __ZN4llvm9KnownBitsD1Ev
0000000000001520 T __ZN4llvm9KnownBitsD2Ev
0000000000000960 T __ZN4llvmanENS_5APIntERKS0_
00000000000007b0 T __ZN4llvmcoENS_5APIntE
0000000000000890 T __ZN4llvmeoENS_5APIntERKS0_
00000000000008e0 T __ZN4llvmorENS_5APIntERKS0_
0000000000000840 T __ZN4llvmplENS_5APIntERKS0_
0000000000000710 T __ZN4llvmplENS_5APIntEy
0000000000000760 T __ZN4llvmplERKNS_5APIntEOS0_
0000000000001300 T __ZNK4llvm5APInt11getBitWidthEv
0000000000000e30 T __ZNK4llvm5APInt11getNumWordsEv
0000000000000b70 T __ZNK4llvm5APInt12isSignBitSetEv
0000000000000d70 T __ZNK4llvm5APInt12isSingleWordEv
0000000000000f30 T __ZNK4llvm5APInt12needsCleanupEv
                 U __ZNK4llvm5APInt13EqualSlowCaseERKS0_
0000000000001360 T __ZNK4llvm5APInt7getWordEj
00000000000009b0 T __ZNK4llvm5APInteqERKS0_
0000000000001250 T __ZNK4llvm5APIntixEj
0000000000000c40 T __ZNK4llvm9KnownBits10isNegativeEv
0000000000000ba0 T __ZNK4llvm9KnownBits13isNonNegativeEv
                 U __ZdaPv
                 U ___assert_rtn

libLLVMSupport.a(LEB128.o):
0000000000000040 T __ZN4llvm14getSLEB128SizeEx
0000000000000000 T __ZN4llvm14getULEB128SizeEy

libLLVMSupport.a(LineIterator.o):
00000000000001f0 t __ZL11isAtLineEndPKc
0000000000000640 t __ZL15skipIfAtLineEndRPKc
0000000000000250 T __ZN4llvm13line_iterator7advanceEv
00000000000005e0 T __ZN4llvm13line_iteratorC1ERKNS_12MemoryBufferEbc
0000000000000000 T __ZN4llvm13line_iteratorC2ERKNS_12MemoryBufferEbc
00000000000006c0 T __ZN4llvm9StringRefC1Ev
00000000000006e0 T __ZN4llvm9StringRefC2Ev
00000000000001d0 T __ZNK4llvm12MemoryBuffer12getBufferEndEv
0000000000000190 T __ZNK4llvm12MemoryBuffer13getBufferSizeEv
00000000000001b0 T __ZNK4llvm12MemoryBuffer14getBufferStartEv
0000000000000620 T __ZNK4llvm9StringRef3endEv
                 U ___assert_rtn
                 U _memset

libLLVMSupport.a(Locale.o):
0000000000000000 T __ZN4llvm3sys6locale11columnWidthENS_9StringRefE
0000000000000040 T __ZN4llvm3sys6locale7isPrintEi
                 U __ZN4llvm3sys7unicode11isPrintableEi
                 U __ZN4llvm3sys7unicode15columnWidthUTF8ENS_9StringRefE

libLLVMSupport.a(LockFileManager.o):
0000000000007288 s L__ZZL9getHostIDRN4llvm15SmallVectorImplIcEEE4wait
0000000000001180 t __ZL9getHostIDRN4llvm15SmallVectorImplIcEE
00000000000042c0 t __ZN12_GLOBAL__N_128RemoveUniqueLockFileOnSignal12lockAcquiredEv
0000000000004290 t __ZN12_GLOBAL__N_128RemoveUniqueLockFileOnSignalC1EN4llvm9StringRefE
00000000000063e0 t __ZN12_GLOBAL__N_128RemoveUniqueLockFileOnSignalC2EN4llvm9StringRefE
00000000000044e0 t __ZN12_GLOBAL__N_128RemoveUniqueLockFileOnSignalD1Ev
00000000000064e0 t __ZN12_GLOBAL__N_128RemoveUniqueLockFileOnSignalD2Ev
00000000000051c0 T __ZN4llvm11SmallStringILj128EE5c_strEv
0000000000006aa0 T __ZN4llvm11SmallStringILj128EE6appendIPKcEEvT_S5_
0000000000003a70 T __ZN4llvm11SmallStringILj128EEC1Ev
0000000000005c80 T __ZN4llvm11SmallStringILj128EEC2Ev
0000000000004c40 T __ZN4llvm11SmallStringILj128EED1Ev
0000000000006550 T __ZN4llvm11SmallStringILj128EED2Ev
0000000000003ad0 T __ZN4llvm11SmallStringILj128EEaSENS_9StringRefE
0000000000003f30 T __ZN4llvm11SmallStringILj128EEaSERKS1_
0000000000003f70 T __ZN4llvm11SmallStringILj128EEpLENS_9StringRefE
0000000000001160 T __ZN4llvm11SmallStringILj256EEC1Ev
00000000000057d0 T __ZN4llvm11SmallStringILj256EEC2Ev
00000000000013e0 T __ZN4llvm11SmallStringILj256EED1Ev
0000000000005ba0 T __ZN4llvm11SmallStringILj256EED2Ev
0000000000005ca0 T __ZN4llvm11SmallVectorIcLj128EEC2Ev
0000000000006570 T __ZN4llvm11SmallVectorIcLj128EED2Ev
0000000000005e10 T __ZN4llvm11SmallVectorIcLj128EEaSERKS1_
00000000000057f0 T __ZN4llvm11SmallVectorIcLj256EEC2Ev
0000000000005bc0 T __ZN4llvm11SmallVectorIcLj256EED2Ev
                 U __ZN4llvm11raw_ostream14flush_nonemptyEv
0000000000004aa0 T __ZN4llvm11raw_ostream5flushEv
                 U __ZN4llvm11raw_ostream5writeEPKcm
                 U __ZN4llvm11raw_ostream5writeEh
0000000000006490 T __ZN4llvm11raw_ostreamC2Eb
0000000000004310 T __ZN4llvm11raw_ostreamlsENS_9StringRefE
00000000000043d0 T __ZN4llvm11raw_ostreamlsEPKc
0000000000004100 T __ZN4llvm11raw_ostreamlsERKNS_15SmallVectorImplIcEE
00000000000048b0 T __ZN4llvm11raw_ostreamlsERKNSt3__112basic_stringIcNS1_11char_traitsIcEENS1_9allocatorIcEEEE
0000000000004170 T __ZN4llvm11raw_ostreamlsEc
00000000000041e0 T __ZN4llvm11raw_ostreamlsEi
                 U __ZN4llvm11raw_ostreamlsEl
                 U __ZN4llvm12MemoryBuffer7getFileERKNS_5TwineExbb
                 U __ZN4llvm14raw_fd_ostream5closeEv
                 U __ZN4llvm14raw_fd_ostreamC1Eibb
                 U __ZN4llvm14raw_fd_ostreamD1Ev
0000000000000000 T __ZN4llvm15LockFileManager12readLockFileENS_9StringRefE
0000000000004c80 T __ZN4llvm15LockFileManager13waitForUnlockEv
00000000000052a0 T __ZN4llvm15LockFileManager20unsafeRemoveLockFileEv
0000000000000ed0 T __ZN4llvm15LockFileManager21processStillExecutingENS_9StringRefEi
0000000000003ba0 T __ZN4llvm15LockFileManager8setErrorERNSt3__110error_codeENS_9StringRefE
0000000000004500 T __ZN4llvm15LockFileManagerC1ENS_9StringRefE
0000000000001400 T __ZN4llvm15LockFileManagerC2ENS_9StringRefE
0000000000004c60 T __ZN4llvm15LockFileManagerD1Ev
0000000000004ae0 T __ZN4llvm15LockFileManagerD2Ev
                 U __ZN4llvm15SmallVectorBase8grow_podEPvmm
00000000000058a0 T __ZN4llvm15SmallVectorBaseC2EPvm
00000000000058e0 T __ZN4llvm15SmallVectorImplIcE5clearEv
0000000000005930 T __ZN4llvm15SmallVectorImplIcE6appendIPKcvEEvT_S5_
0000000000005810 T __ZN4llvm15SmallVectorImplIcEC2Ej
0000000000005be0 T __ZN4llvm15SmallVectorImplIcED2Ev
0000000000005e50 T __ZN4llvm15SmallVectorImplIcEaSERKS1_
0000000000004230 T __ZN4llvm15make_error_codeENS_4errcE
                 U __ZN4llvm18getAsSignedIntegerENS_9StringRefEjRx
0000000000004470 T __ZN4llvm18raw_string_ostream3strEv
00000000000042e0 T __ZN4llvm18raw_string_ostreamC1ERNSt3__112basic_stringIcNS1_11char_traitsIcEENS1_9allocatorIcEEEE
0000000000006440 T __ZN4llvm18raw_string_ostreamC2ERNSt3__112basic_stringIcNS1_11char_traitsIcEENS1_9allocatorIcEEEE
                 U __ZN4llvm18raw_string_ostreamD1Ev
0000000000005a80 T __ZN4llvm23SmallVectorTemplateBaseIcLb1EE13destroy_rangeEPcS2_
0000000000005af0 T __ZN4llvm23SmallVectorTemplateBaseIcLb1EE18uninitialized_copyIKccEEvPT_S5_PT0_PNSt3__19enable_ifIXsr3std7is_sameINS8_12remove_constIS4_E4typeES6_EE5valueEvE4typeE
0000000000005ab0 T __ZN4llvm23SmallVectorTemplateBaseIcLb1EE4growEm
0000000000006fc0 T __ZN4llvm23SmallVectorTemplateBaseIcLb1EE8pop_backEv
0000000000006f40 T __ZN4llvm23SmallVectorTemplateBaseIcLb1EE9push_backERKc
0000000000005840 T __ZN4llvm23SmallVectorTemplateBaseIcLb1EEC2Em
0000000000005a90 T __ZN4llvm25SmallVectorTemplateCommonIcvE12capacity_ptrEv
0000000000007000 T __ZN4llvm25SmallVectorTemplateCommonIcvE4dataEv
0000000000005b40 T __ZN4llvm25SmallVectorTemplateCommonIcvE6setEndEPc
0000000000005b60 T __ZN4llvm25SmallVectorTemplateCommonIcvE8grow_podEmm
0000000000005870 T __ZN4llvm25SmallVectorTemplateCommonIcvEC2Em
                 U __ZN4llvm3sys18RemoveFileOnSignalENS_9StringRefEPNSt3__112basic_stringIcNS2_11char_traitsIcEENS2_9allocatorIcEEEE
                 U __ZN4llvm3sys22DontRemoveFileOnSignalENS_9StringRefE
                 U __ZN4llvm3sys2fs11create_linkERKNS_5TwineES4_
                 U __ZN4llvm3sys2fs13make_absoluteERNS_15SmallVectorImplIcEE
                 U __ZN4llvm3sys2fs16createUniqueFileERKNS_5TwineERiRNS_15SmallVectorImplIcEEj
                 U __ZN4llvm3sys2fs6accessERKNS_5TwineENS1_10AccessModeE
00000000000044a0 T __ZN4llvm3sys2fs6existsERKNS_5TwineE
                 U __ZN4llvm3sys2fs6removeERKNS_5TwineEb
00000000000040d0 T __ZN4llvm3sys2fsorENS1_5permsES2_
0000000000005210 T __ZN4llvm5TwineC1EPKc
00000000000040a0 T __ZN4llvm5TwineC1ERKNS_15SmallVectorImplIcEE
0000000000000cf0 T __ZN4llvm5TwineC1ERKNS_9StringRefE
0000000000006590 T __ZN4llvm5TwineC2EPKc
0000000000006330 T __ZN4llvm5TwineC2ERKNS_15SmallVectorImplIcEE
0000000000005300 T __ZN4llvm5TwineC2ERKNS_9StringRefE
0000000000006730 T __ZN4llvm7ErrorOrINSt3__110unique_ptrINS_12MemoryBufferENS1_14default_deleteIS3_EEEEE10getStorageEv
0000000000000d70 T __ZN4llvm7ErrorOrINSt3__110unique_ptrINS_12MemoryBufferENS1_14default_deleteIS3_EEEEE3getEv
0000000000001140 T __ZN4llvm7ErrorOrINSt3__110unique_ptrINS_12MemoryBufferENS1_14default_deleteIS3_EEEEED1Ev
0000000000006640 T __ZN4llvm7ErrorOrINSt3__110unique_ptrINS_12MemoryBufferENS1_14default_deleteIS3_EEEEED2Ev
0000000000005d90 T __ZN4llvm8OptionalINSt3__110error_codeEE10getPointerEv
0000000000006a40 T __ZN4llvm8OptionalINSt3__110error_codeEE5resetEv
0000000000003ab0 T __ZN4llvm8OptionalINSt3__110error_codeEEC1Ev
0000000000006a00 T __ZN4llvm8OptionalINSt3__110error_codeEEC2Ev
0000000000004c20 T __ZN4llvm8OptionalINSt3__110error_codeEED1Ev
0000000000006a20 T __ZN4llvm8OptionalINSt3__110error_codeEED2Ev
0000000000005cc0 T __ZN4llvm8OptionalINSt3__110error_codeEEaSERKS2_
0000000000007020 T __ZN4llvm8OptionalINSt3__14pairINS1_12basic_stringIcNS1_11char_traitsIcEENS1_9allocatorIcEEEEiEEE10getPointerEv
00000000000067f0 T __ZN4llvm8OptionalINSt3__14pairINS1_12basic_stringIcNS1_11char_traitsIcEENS1_9allocatorIcEEEEiEEE5resetEv
0000000000000d40 T __ZN4llvm8OptionalINSt3__14pairINS1_12basic_stringIcNS1_11char_traitsIcEENS1_9allocatorIcEEEEiEEEC1ENS_8NoneTypeE
00000000000010f0 T __ZN4llvm8OptionalINSt3__14pairINS1_12basic_stringIcNS1_11char_traitsIcEENS1_9allocatorIcEEEEiEEEC1EOS9_
0000000000003a90 T __ZN4llvm8OptionalINSt3__14pairINS1_12basic_stringIcNS1_11char_traitsIcEENS1_9allocatorIcEEEEiEEEC1Ev
00000000000067b0 T __ZN4llvm8OptionalINSt3__14pairINS1_12basic_stringIcNS1_11char_traitsIcEENS1_9allocatorIcEEEEiEEEC2ENS_8NoneTypeE
0000000000006830 T __ZN4llvm8OptionalINSt3__14pairINS1_12basic_stringIcNS1_11char_traitsIcEENS1_9allocatorIcEEEEiEEEC2EOS9_
00000000000069e0 T __ZN4llvm8OptionalINSt3__14pairINS1_12basic_stringIcNS1_11char_traitsIcEENS1_9allocatorIcEEEEiEEEC2Ev
0000000000004080 T __ZN4llvm8OptionalINSt3__14pairINS1_12basic_stringIcNS1_11char_traitsIcEENS1_9allocatorIcEEEEiEEED1Ev
00000000000067d0 T __ZN4llvm8OptionalINSt3__14pairINS1_12basic_stringIcNS1_11char_traitsIcEENS1_9allocatorIcEEEEiEEED2Ev
0000000000006ae0 T __ZN4llvm8OptionalINSt3__14pairINS1_12basic_stringIcNS1_11char_traitsIcEENS1_9allocatorIcEEEEiEEEaSEOS9_
0000000000003ff0 T __ZN4llvm8OptionalINSt3__14pairINS1_12basic_stringIcNS1_11char_traitsIcEENS1_9allocatorIcEEEEiEEEaSEOSA_
                 U __ZN4llvm8getTokenENS_9StringRefES0_
0000000000000d90 T __ZN4llvm9StringRefC1Ev
00000000000055d0 T __ZN4llvm9StringRefC2Ev
0000000000003b20 T __ZNK4llvm11SmallStringILj128EE3strEv
0000000000003fc0 T __ZNK4llvm11SmallStringILj128EEcvNS_9StringRefEEv
0000000000006960 T __ZNK4llvm11SmallStringILj256EE3strEv
00000000000013b0 T __ZNK4llvm11SmallStringILj256EEcvNS_9StringRefEEv
00000000000055f0 T __ZNK4llvm12MemoryBuffer13getBufferSizeEv
0000000000000db0 T __ZNK4llvm12MemoryBuffer9getBufferEv
0000000000004210 T __ZNK4llvm14raw_fd_ostream9has_errorEv
00000000000045d0 T __ZNK4llvm15LockFileManager15getErrorMessageEv
0000000000004530 T __ZNK4llvm15LockFileManager8getStateEv
0000000000006310 T __ZNK4llvm25SmallVectorTemplateCommonIcvE12capacity_ptrEv
00000000000063c0 T __ZNK4llvm25SmallVectorTemplateCommonIcvE4dataEv
0000000000005c50 T __ZNK4llvm25SmallVectorTemplateCommonIcvE7isSmallEv
00000000000062d0 T __ZNK4llvm25SmallVectorTemplateCommonIcvE8capacityEv
0000000000005500 T __ZNK4llvm5Twine10getLHSKindEv
00000000000054e0 T __ZNK4llvm5Twine10getRHSKindEv
0000000000005570 T __ZNK4llvm5Twine6isNullEv
00000000000055a0 T __ZNK4llvm5Twine7isEmptyEv
0000000000005390 T __ZNK4llvm5Twine7isValidEv
0000000000005520 T __ZNK4llvm5Twine8isBinaryEv
00000000000054a0 T __ZNK4llvm5Twine9isNullaryEv
0000000000000d20 T __ZNK4llvm7ErrorOrINSt3__110unique_ptrINS_12MemoryBufferENS1_14default_deleteIS3_EEEEEcvbEv
0000000000006ee0 T __ZNK4llvm8OptionalINSt3__110error_codeEE10getPointerEv
00000000000045b0 T __ZNK4llvm8OptionalINSt3__110error_codeEEcvbEv
0000000000004890 T __ZNK4llvm8OptionalINSt3__110error_codeEEptEv
0000000000004060 T __ZNK4llvm8OptionalINSt3__14pairINS1_12basic_stringIcNS1_11char_traitsIcEENS1_9allocatorIcEEEEiEEEcvbEv
0000000000000e20 T __ZNK4llvm9StringRef12getAsIntegerIiEENSt3__19enable_ifIXsr3std14numeric_limitsIT_EE9is_signedEbE4typeEjRS4_
                 U __ZNK4llvm9StringRef17find_first_not_ofES0_m
0000000000005a60 T __ZNK4llvm9StringRef3endEv
0000000000005610 T __ZNK4llvm9StringRef3strEv
0000000000005a40 T __ZNK4llvm9StringRef5beginEv
0000000000000ea0 T __ZNK4llvm9StringRefcvNSt3__112basic_stringIcNS1_11char_traitsIcEENS1_9allocatorIcEEEEEv
                 U __ZNKSt3__110error_code7messageEv
0000000000005d30 T __ZNR4llvm8OptionalINSt3__110error_codeEEdeEv
0000000000005240 T __ZNR4llvm8OptionalINSt3__14pairINS1_12basic_stringIcNS1_11char_traitsIcEENS1_9allocatorIcEEEEiEEEdeEv
0000000000005df0 T __ZNSt3__111char_traitsIcE6assignERcRKc
0000000000006a80 T __ZNSt3__111char_traitsIcE6lengthEPKc
                 U __ZNSt3__112basic_stringIcNS_11char_traitsIcEENS_9allocatorIcEEE6__initEPKcm
                 U __ZNSt3__112basic_stringIcNS_11char_traitsIcEENS_9allocatorIcEEE6appendEPKcm
                 U __ZNSt3__112basic_stringIcNS_11char_traitsIcEENS_9allocatorIcEEE7reserveEm
                 U __ZNSt3__112basic_stringIcNS_11char_traitsIcEENS_9allocatorIcEEEC1ERKS5_
                 U __ZNSt3__112basic_stringIcNS_11char_traitsIcEENS_9allocatorIcEEED1Ev
                 U __ZNSt3__115system_categoryEv
                 U __ZNSt3__116generic_categoryEv
0000000000006870 T __ZNSt3__14pairINS_12basic_stringIcNS_11char_traitsIcEENS_9allocatorIcEEEEiEC1EOS7_
00000000000068a0 T __ZNSt3__14pairINS_12basic_stringIcNS_11char_traitsIcEENS_9allocatorIcEEEEiEC2EOS7_
0000000000001120 T __ZNSt3__14pairINS_12basic_stringIcNS_11char_traitsIcEENS_9allocatorIcEEEEiED1Ev
00000000000057b0 T __ZNSt3__14pairINS_12basic_stringIcNS_11char_traitsIcEENS_9allocatorIcEEEEiED2Ev
                 U __ZTVN4llvm11raw_ostreamE
                 U __ZTVN4llvm18raw_string_ostreamE
                 U ___assert_rtn
                 U ___error
                 U ___stack_chk_fail
                 U ___stack_chk_guard
                 U _free
                 U _gethostuuid
                 U _getpid
                 U _getsid
                 U _memcmp
                 U _memcpy
                 U _memmove
                 U _memset
                 U _nanosleep
                 U _strlen
                 U _uuid_unparse

libLLVMSupport.a(LowLevelType.o):
                 U __ZN4llvm11raw_ostream5writeEPKcm
0000000000001870 T __ZN4llvm11raw_ostreamlsENS_9StringRefE
00000000000010f0 T __ZN4llvm11raw_ostreamlsEPKc
0000000000001190 T __ZN4llvm11raw_ostreamlsEi
00000000000013e0 T __ZN4llvm11raw_ostreamlsEj
                 U __ZN4llvm11raw_ostreamlsEl
                 U __ZN4llvm11raw_ostreamlsEm
                 U __ZN4llvm25llvm_unreachable_internalEPKcS1_j
0000000000001700 T __ZN4llvm3LLT12maskAndShiftEyPKi
0000000000001750 T __ZN4llvm3LLT12maskAndShiftEyyh
00000000000020c8 S __ZN4llvm3LLT19ScalarSizeFieldInfoE
00000000000020e8 S __ZN4llvm3LLT19VectorSizeFieldInfoE
00000000000020d0 S __ZN4llvm3LLT20PointerSizeFieldInfoE
00000000000020e0 S __ZN4llvm3LLT23VectorElementsFieldInfoE
00000000000020f8 S __ZN4llvm3LLT26PointerVectorSizeFieldInfoE
00000000000020d8 S __ZN4llvm3LLT28PointerAddressSpaceFieldInfoE
00000000000020f0 S __ZN4llvm3LLT30PointerVectorElementsFieldInfoE
0000000000002100 S __ZN4llvm3LLT34PointerVectorAddressSpaceFieldInfoE
00000000000001a0 T __ZN4llvm3LLT4initEbbtjj
0000000000001a10 T __ZN4llvm3LLT6scalarEj
00000000000017e0 T __ZN4llvm3LLT7getMaskEPKi
0000000000001980 T __ZN4llvm3LLT7pointerEtj
0000000000000e80 T __ZN4llvm3LLTC1ENS_3MVTE
0000000000001a90 T __ZN4llvm3LLTC1Ebbtjj
0000000000000000 T __ZN4llvm3LLTC2ENS_3MVTE
0000000000001b00 T __ZN4llvm3LLTC2Ebbtjj
0000000000001820 T __ZN4llvm3MVTC1ENS0_15SimpleValueTypeE
0000000000001850 T __ZN4llvm3MVTC2ENS0_15SimpleValueTypeE
00000000000010c0 T __ZN4llvmlsERNS_11raw_ostreamERKNS_3LLTE
0000000000001930 T __ZNK4llvm3LLT13getFieldValueEPKi
0000000000001290 T __ZNK4llvm3LLT14getElementTypeEv
00000000000011c0 T __ZNK4llvm3LLT14getNumElementsEv
0000000000001410 T __ZNK4llvm3LLT15getAddressSpaceEv
00000000000015e0 T __ZNK4llvm3LLT19getScalarSizeInBitsEv
0000000000000eb0 T __ZNK4llvm3LLT5printERNS_11raw_ostreamE
0000000000001530 T __ZNK4llvm3LLT7isValidEv
0000000000001560 T __ZNK4llvm3LLT8isScalarEv
0000000000001060 T __ZNK4llvm3LLT8isVectorEv
0000000000001360 T __ZNK4llvm3LLT9isPointerEv
00000000000008d0 T __ZNK4llvm3MVT13getSizeInBitsEv
0000000000000650 T __ZNK4llvm3MVT20getVectorElementTypeEv
00000000000003f0 T __ZNK4llvm3MVT20getVectorNumElementsEv
0000000000000e40 T __ZNK4llvm3MVT7isValidEv
0000000000000160 T __ZNK4llvm3MVT8isVectorEv
                 U ___assert_rtn
                 U _memcpy
                 U _strlen

libLLVMSupport.a(MD5.o):
0000000000001820 T __ZN4llvm11SmallStringILj32EEC1Ev
0000000000001c60 T __ZN4llvm11SmallStringILj32EEC2Ev
00000000000018c0 T __ZN4llvm11SmallStringILj32EED1Ev
0000000000002010 T __ZN4llvm11SmallStringILj32EED2Ev
0000000000001920 T __ZN4llvm11SmallStringILj32EEaSEOS1_
0000000000001c80 T __ZN4llvm11SmallVectorIcLj32EEC2Ev
0000000000002030 T __ZN4llvm11SmallVectorIcLj32EED2Ev
0000000000002100 T __ZN4llvm11SmallVectorIcLj32EEaSEOS1_
0000000000001f20 T __ZN4llvm11raw_ostream10resetColorEv
0000000000001ef0 T __ZN4llvm11raw_ostream11changeColorENS0_6ColorsEbb
0000000000001f30 T __ZN4llvm11raw_ostream12reverseColorEv
0000000000001e10 T __ZN4llvm11raw_ostream13SetUnbufferedEv
                 U __ZN4llvm11raw_ostream14flush_nonemptyEv
                 U __ZN4llvm11raw_ostream16SetBufferAndModeEPcmNS0_10BufferKindE
0000000000001fb0 T __ZN4llvm11raw_ostream5flushEv
                 U __ZN4llvm11raw_ostream6handleEv
0000000000001e50 T __ZN4llvm11raw_ostreamC2Eb
                 U __ZN4llvm11raw_ostreamD2Ev
                 U __ZN4llvm11raw_ostreamlsERKNS_18format_object_baseE
0000000000001440 T __ZN4llvm12makeArrayRefIhEENS_8ArrayRefIT_EEPKS2_m
00000000000028a0 T __ZN4llvm13format_objectIJhEEC1EPKcRKh
00000000000028d0 T __ZN4llvm13format_objectIJhEEC2EPKcRKh
                 U __ZN4llvm15SmallVectorBase8grow_podEPvmm
0000000000001d30 T __ZN4llvm15SmallVectorBaseC2EPvm
00000000000026c0 T __ZN4llvm15SmallVectorImplIcE5clearEv
0000000000001ca0 T __ZN4llvm15SmallVectorImplIcEC2Ej
0000000000002050 T __ZN4llvm15SmallVectorImplIcED2Ev
0000000000002140 T __ZN4llvm15SmallVectorImplIcEaSEOS1_
0000000000001dc0 T __ZN4llvm17raw_pwrite_streamC2Eb
0000000000001ec0 T __ZN4llvm17raw_pwrite_streamD0Ev
0000000000001ea0 T __ZN4llvm17raw_pwrite_streamD1Ev
0000000000001f90 T __ZN4llvm17raw_pwrite_streamD2Ev
                 U __ZN4llvm18format_object_base4homeEv
00000000000029b0 T __ZN4llvm18format_object_baseC2EPKc
0000000000001840 T __ZN4llvm19raw_svector_ostreamC1ERNS_15SmallVectorImplIcEE
0000000000001d70 T __ZN4llvm19raw_svector_ostreamC2ERNS_15SmallVectorImplIcEE
00000000000018a0 T __ZN4llvm19raw_svector_ostreamD1Ev
0000000000001ff0 T __ZN4llvm19raw_svector_ostreamD2Ev
00000000000020c0 T __ZN4llvm23SmallVectorTemplateBaseIcLb1EE13destroy_rangeEPcS2_
0000000000002820 T __ZN4llvm23SmallVectorTemplateBaseIcLb1EE18uninitialized_copyIccEEvPT_S4_PT0_PNSt3__19enable_ifIXsr3std7is_sameINS7_12remove_constIS3_E4typeES5_EE5valueEvE4typeE
0000000000002790 T __ZN4llvm23SmallVectorTemplateBaseIcLb1EE18uninitialized_moveIPcS3_EEvT_S4_T0_
0000000000002750 T __ZN4llvm23SmallVectorTemplateBaseIcLb1EE4growEm
0000000000001cd0 T __ZN4llvm23SmallVectorTemplateBaseIcLb1EEC2Em
0000000000002680 T __ZN4llvm25SmallVectorTemplateCommonIcvE12resetToSmallEv
00000000000026a0 T __ZN4llvm25SmallVectorTemplateCommonIcvE6setEndEPc
00000000000027e0 T __ZN4llvm25SmallVectorTemplateCommonIcvE8grow_podEmm
0000000000001d00 T __ZN4llvm25SmallVectorTemplateCommonIcvEC2Em
00000000000029e0 T __ZN4llvm26validate_format_parametersIJhEEC1Ev
0000000000002a30 T __ZN4llvm26validate_format_parametersIJhEEC2Ev
00000000000018e0 T __ZN4llvm3MD515stringifyResultERNS0_9MD5ResultERNS_11SmallStringILj32EEE
0000000000000000 T __ZN4llvm3MD54bodyENS_8ArrayRefIhEE
0000000000001960 T __ZN4llvm3MD54hashENS_8ArrayRefIhEE
0000000000001510 T __ZN4llvm3MD55finalERNS0_9MD5ResultE
0000000000001270 T __ZN4llvm3MD56updateENS_8ArrayRefIhEE
0000000000001470 T __ZN4llvm3MD56updateENS_9StringRefE
0000000000001710 T __ZN4llvm3MD59MD5ResultixEm
0000000000001250 T __ZN4llvm3MD5C1Ev
0000000000001210 T __ZN4llvm3MD5C2Ev
0000000000001c00 T __ZN4llvm3sys13swapByteOrderIjEEvRT_
0000000000001c30 T __ZN4llvm3sys15getSwappedBytesEj
0000000000001c50 T __ZN4llvm3sys16SwapByteOrder_32Ej
0000000000001870 T __ZN4llvm6formatIJhEEENS_13format_objectIJDpT_EEEPKcDpRKS2_
0000000000001b20 T __ZN4llvm7support6detail31packed_endian_specific_integralIjLNS0_10endiannessE1ELm1EEaSEj
0000000000001bf0 T __ZN4llvm7support6endian17system_endiannessEv
0000000000001af0 T __ZN4llvm7support6endian5writeIjLNS0_10endiannessE1EEEvPvT_
0000000000001b50 T __ZN4llvm7support6endian5writeIjLNS0_10endiannessE1ELm1EEEvPvT_
0000000000001b80 T __ZN4llvm7support6endian5writeIjLm1EEEvPvT_NS0_10endiannessE
0000000000001ac0 T __ZN4llvm7support6endian7write32ILNS0_10endiannessE1EEEvPvj
0000000000001bb0 T __ZN4llvm7support6endian9byte_swapIjEET_S3_NS0_10endiannessE
00000000000016e0 T __ZN4llvm7support6endian9write32leEPvj
00000000000014e0 T __ZN4llvm8ArrayRefIhEC1EPKhm
0000000000002870 T __ZN4llvm8ArrayRefIhEC2EPKhm
0000000000001f60 T __ZNK4llvm11raw_ostream10has_colorsEv
0000000000001f40 T __ZNK4llvm11raw_ostream12is_displayedEv
                 U __ZNK4llvm11raw_ostream21preferred_buffer_sizeEv
0000000000002a40 T __ZNK4llvm13format_objectIJhEE13snprint_tupleIJLm0EEEEiPcjNS_14index_sequenceIJXspT_EEEE
0000000000002a00 T __ZNK4llvm13format_objectIJhEE7snprintEPcj
00000000000027c0 T __ZNK4llvm25SmallVectorTemplateCommonIcvE12capacity_ptrEv
00000000000020d0 T __ZNK4llvm25SmallVectorTemplateCommonIcvE7isSmallEv
0000000000002710 T __ZNK4llvm25SmallVectorTemplateCommonIcvE8capacityEv
0000000000001740 T __ZNK4llvm3MD59MD5Result6digestEv
0000000000001a50 T __ZNK4llvm3MD59MD5ResultcvNSt3__15arrayIhLm16EEEEv
00000000000011f0 T __ZNK4llvm8ArrayRefIhE4dataEv
00000000000011d0 T __ZNK4llvm8ArrayRefIhE4sizeEv
                 U __ZTVN4llvm11raw_ostreamE
0000000000002b00 D __ZTVN4llvm13format_objectIJhEEE
0000000000002a90 D __ZTVN4llvm17raw_pwrite_streamE
                 U __ZTVN4llvm18format_object_baseE
                 U __ZTVN4llvm19raw_svector_ostreamE
                 U __ZdlPv
                 U ___cxa_pure_virtual
                 U ___stack_chk_fail
                 U ___stack_chk_guard
                 U _free
                 U _memcpy
                 U _memmove
                 U _memset
                 U _snprintf

libLLVMSupport.a(ManagedStatic.o):
000000000000a4d0 b __ZL10StaticList
0000000000000910 t __ZL15initializeMutexv
000000000000a4d8 b __ZL15mutex_init_flag
000000000000a4e0 b __ZL18ManagedStaticMutex
00000000000004a0 t __ZL21getManagedStaticMutexv
00000000000004c0 T __ZN4llvm10MutexGuardC1ERNS_3sys10SmartMutexILb0EEE
0000000000000a30 T __ZN4llvm10MutexGuardC2ERNS_3sys10SmartMutexILb0EEE
00000000000004f0 T __ZN4llvm10MutexGuardD1Ev
0000000000000a80 T __ZN4llvm10MutexGuardD2Ev
0000000000000780 T __ZN4llvm13llvm_shutdownEv
                 U __ZN4llvm21llvm_is_multithreadedEv
0000000000000a60 T __ZN4llvm3sys10SmartMutexILb0EE4lockEv
0000000000000ab0 T __ZN4llvm3sys10SmartMutexILb0EE6unlockEv
00000000000009b0 T __ZN4llvm3sys10SmartMutexILb0EEC1Eb
00000000000009e0 T __ZN4llvm3sys10SmartMutexILb0EEC2Eb
                 U __ZN4llvm3sys9MutexImpl7acquireEv
                 U __ZN4llvm3sys9MutexImpl7releaseEv
                 U __ZN4llvm3sys9MutexImplC1Eb
00000000000007d0 T __ZN4llvm9call_onceIRFvvEJEEEvRNSt3__19once_flagEOT_DpOT0_
0000000000000000 T __ZNK4llvm17ManagedStaticBase21RegisterManagedStaticEPFPvvEPFvS1_E
0000000000000510 T __ZNK4llvm17ManagedStaticBase7destroyEv
                 U __ZNSt3__111__call_onceERVmPvPFvS2_E
0000000000000950 T __ZNSt3__117__call_once_proxyINS_5tupleIJRFvvEEEEEEvPv
                 U __Znwm
                 U ___assert_rtn

libLLVMSupport.a(MathExtras.o):
0000000000000000 S __ZN4llvm9huge_valfE

libLLVMSupport.a(Memory.o):
0000000000014aa8 b __ZGVZN4llvm3sys6Memory11AllocateRWXEmPKNS0_11MemoryBlockEPNSt3__112basic_stringIcNS5_11char_traitsIcEENS5_9allocatorIcEEEEE8PageSize
0000000000014a98 b __ZGVZN4llvm3sys6Memory19protectMappedMemoryERKNS0_11MemoryBlockEjE8PageSize
0000000000014a88 b __ZGVZN4llvm3sys6Memory20allocateMappedMemoryEmPKNS0_11MemoryBlockEjRNSt3__110error_codeEE8PageSize
0000000000000bd0 t __ZL10MakeErrMsgPNSt3__112basic_stringIcNS_11char_traitsIcEENS_9allocatorIcEEEERKS5_i
0000000000000350 t __ZN12_GLOBAL__N_123getPosixProtectionFlagsEj
00000000000014d0 T __ZN4llvm13isPowerOf2_64Ey
                 U __ZN4llvm25llvm_unreachable_internalEPKcS1_j
0000000000000330 T __ZN4llvm3sys11MemoryBlockC1Ev
00000000000014b0 T __ZN4llvm3sys11MemoryBlockC2Ev
                 U __ZN4llvm3sys27ValgrindDiscardTranslationsEPKvm
00000000000012d0 T __ZN4llvm3sys6Memory10ReleaseRWXERNS0_11MemoryBlockEPNSt3__112basic_stringIcNS4_11char_traitsIcEENS4_9allocatorIcEEEE
0000000000000950 T __ZN4llvm3sys6Memory11AllocateRWXEmPKNS0_11MemoryBlockEPNSt3__112basic_stringIcNS5_11char_traitsIcEENS5_9allocatorIcEEEE
00000000000013f0 T __ZN4llvm3sys6Memory11setWritableERNS0_11MemoryBlockEPNSt3__112basic_stringIcNS4_11char_traitsIcEENS4_9allocatorIcEEEE
0000000000001410 T __ZN4llvm3sys6Memory13setExecutableERNS0_11MemoryBlockEPNSt3__112basic_stringIcNS4_11char_traitsIcEENS4_9allocatorIcEEEE
0000000000001470 T __ZN4llvm3sys6Memory16setRangeWritableEPKvm
0000000000001490 T __ZN4llvm3sys6Memory18setRangeExecutableEPKvm
00000000000005e0 T __ZN4llvm3sys6Memory19protectMappedMemoryERKNS0_11MemoryBlockEj
00000000000004c0 T __ZN4llvm3sys6Memory19releaseMappedMemoryERNS0_11MemoryBlockE
0000000000000000 T __ZN4llvm3sys6Memory20allocateMappedMemoryEmPKNS0_11MemoryBlockEjRNSt3__110error_codeE
0000000000000490 T __ZN4llvm3sys6Memory26InvalidateInstructionCacheEPKvm
                 U __ZN4llvm3sys7Process11getPageSizeEv
                 U __ZN4llvm3sys8StrErrorEi
0000000000000860 T __ZN4llvm9alignAddrEPKvm
0000000000000450 T __ZNK4llvm3sys11MemoryBlock4baseEv
0000000000000470 T __ZNK4llvm3sys11MemoryBlock4sizeEv
00000000000018d0 T __ZNSt3__111char_traitsIcE6assignERcRKc
00000000000018b0 T __ZNSt3__111char_traitsIcE6lengthEPKc
                 U __ZNSt3__112basic_stringIcNS_11char_traitsIcEENS_9allocatorIcEEE6__initEPKcm
                 U __ZNSt3__112basic_stringIcNS_11char_traitsIcEENS_9allocatorIcEEE6__initEPKcmm
                 U __ZNSt3__112basic_stringIcNS_11char_traitsIcEENS_9allocatorIcEEE6appendEPKcm
                 U __ZNSt3__112basic_stringIcNS_11char_traitsIcEENS_9allocatorIcEEE7reserveEm
                 U __ZNSt3__112basic_stringIcNS_11char_traitsIcEENS_9allocatorIcEEED1Ev
                 U __ZNSt3__115system_categoryEv
                 U __ZNSt3__116generic_categoryEv
0000000000001510 T __ZNSt3__1plIcNS_11char_traitsIcEENS_9allocatorIcEEEENS_12basic_stringIT_T0_T1_EERKS9_PKS6_
0000000000014aa0 b __ZZN4llvm3sys6Memory11AllocateRWXEmPKNS0_11MemoryBlockEPNSt3__112basic_stringIcNS5_11char_traitsIcEENS5_9allocatorIcEEEEE8PageSize
0000000000014a90 b __ZZN4llvm3sys6Memory19protectMappedMemoryERKNS0_11MemoryBlockEjE8PageSize
0000000000014a80 b __ZZN4llvm3sys6Memory20allocateMappedMemoryEmPKNS0_11MemoryBlockEjRNSt3__110error_codeEE8PageSize
                 U ___assert_rtn
                 U ___cxa_guard_acquire
                 U ___cxa_guard_release
                 U ___error
                 U _memset
                 U _mmap
                 U _mprotect
                 U _munmap
                 U _strlen

libLLVMSupport.a(MemoryBuffer.o):
000000000002bdc0 b __ZGVZL15getOpenFileImpliRKN4llvm5TwineEyyxbbE8PageSize
0000000000001690 t __ZL10getFileAuxRKN4llvm5TwineExyybb
0000000000000e30 t __ZL13CopyStringRefPcN4llvm9StringRefE
0000000000003510 t __ZL13shouldUseMmapimmxbib
0000000000001850 t __ZL15getOpenFileImpliRKN4llvm5TwineEyyxbb
0000000000002170 t __ZL24getMemoryBufferForStreamiRKN4llvm5TwineE
00000000000003b0 t __ZN12_GLOBAL__N_115MemoryBufferMemC1EN4llvm9StringRefEb
0000000000002ae0 t __ZN12_GLOBAL__N_115MemoryBufferMemC2EN4llvm9StringRefEb
0000000000002be0 t __ZN12_GLOBAL__N_115MemoryBufferMemD0Ev
0000000000002bc0 t __ZN12_GLOBAL__N_115MemoryBufferMemD1Ev
0000000000002cb0 t __ZN12_GLOBAL__N_115MemoryBufferMemD2Ev
0000000000002cd0 t __ZN12_GLOBAL__N_115MemoryBufferMemdlEPv
00000000000002a0 t __ZN12_GLOBAL__N_116NamedBufferAllocC1ERKN4llvm5TwineE
0000000000002ac0 t __ZN12_GLOBAL__N_116NamedBufferAllocC2ERKN4llvm5TwineE
0000000000003940 t __ZN12_GLOBAL__N_120MemoryBufferMMapFile15getLegalMapSizeEyy
0000000000003980 t __ZN12_GLOBAL__N_120MemoryBufferMMapFile17getLegalMapOffsetEy
00000000000039c0 t __ZN12_GLOBAL__N_120MemoryBufferMMapFile8getStartEyy
0000000000003690 t __ZN12_GLOBAL__N_120MemoryBufferMMapFileC1EbiyyRNSt3__110error_codeE
0000000000003860 t __ZN12_GLOBAL__N_120MemoryBufferMMapFileC2EbiyyRNSt3__110error_codeE
0000000000003a30 t __ZN12_GLOBAL__N_120MemoryBufferMMapFileD0Ev
0000000000003a10 t __ZN12_GLOBAL__N_120MemoryBufferMMapFileD1Ev
0000000000003b00 t __ZN12_GLOBAL__N_120MemoryBufferMMapFileD2Ev
0000000000003b50 t __ZN12_GLOBAL__N_120MemoryBufferMMapFiledlEPv
0000000000003d60 T __ZN4llvm11SmallStringILj16384EEC1Ev
